	.text
	.syntax unified
	.eabi_attribute	67, "2.09"	@ Tag_conformance
	.cpu	cortex-m23
	.eabi_attribute	6, 16	@ Tag_CPU_arch
	.eabi_attribute	7, 77	@ Tag_CPU_arch_profile
	.eabi_attribute	8, 0	@ Tag_ARM_ISA_use
	.eabi_attribute	9, 3	@ Tag_THUMB_ISA_use
	.eabi_attribute	34, 0	@ Tag_CPU_unaligned_access
	.eabi_attribute	17, 1	@ Tag_ABI_PCS_GOT_use
	.eabi_attribute	20, 2	@ Tag_ABI_FP_denormal
	.eabi_attribute	21, 0	@ Tag_ABI_FP_exceptions
	.eabi_attribute	23, 1	@ Tag_ABI_FP_number_model
	.eabi_attribute	24, 1	@ Tag_ABI_align_needed
	.eabi_attribute	25, 1	@ Tag_ABI_align_preserved
	.eabi_attribute	38, 1	@ Tag_ABI_FP_16bit_format
	.eabi_attribute	18, 2	@ Tag_ABI_PCS_wchar_t
	.eabi_attribute	26, 1	@ Tag_ABI_enum_size
	.eabi_attribute	14, 0	@ Tag_ABI_PCS_R9_use
	.file	"clk.c"
	.file	1 "C:\\Keil_v5\\ARM\\ARMCLANG\\Bin\\..\\include" "stdint.h"
	.file	2 "../../../Library/Device/Nuvoton/NUC1262/Include" "NUC1262.h"
	.file	3 "../../../Library/CMSIS/Include" "core_cm0.h"
	.section	.text.CLK_DisableCKO,"ax",%progbits
	.hidden	CLK_DisableCKO          @ -- Begin function CLK_DisableCKO
	.globl	CLK_DisableCKO
	.p2align	2
	.type	CLK_DisableCKO,%function
	.code	16                      @ @CLK_DisableCKO
	.thumb_func
CLK_DisableCKO:
.Lfunc_begin0:
	.file	4 "../../../Library/StdDriver/src" "clk.c"
	.loc	4 30 0                  @ ../../../Library/StdDriver/src/clk.c:30:0
	.fnstart
	.cfi_sections .debug_frame
	.cfi_startproc
@ %bb.0:
	.loc	4 32 18 prologue_end    @ ../../../Library/StdDriver/src/clk.c:32:18
	ldr	r0, __arm_cp.0_0
	ldr	r1, [r0]
	movs	r2, #64
	bics	r1, r2
	str	r1, [r0]
	.loc	4 33 1                  @ ../../../Library/StdDriver/src/clk.c:33:1
	bx	lr
.Ltmp0:
	.p2align	2
@ %bb.1:
	.loc	4 0 1 is_stmt 0         @ ../../../Library/StdDriver/src/clk.c:0:1
__arm_cp.0_0:
	.long	1342177800              @ 0x50000208
.Lcpi_end0:
	.size	__arm_cp.0_0, .Lcpi_end0-__arm_cp.0_0
.Lfunc_end0:
	.size	CLK_DisableCKO, .Lfunc_end0-CLK_DisableCKO
	.cfi_endproc
	.cantunwind
	.fnend
                                        @ -- End function
	.section	.text.CLK_EnableCKO,"ax",%progbits
	.hidden	CLK_EnableCKO           @ -- Begin function CLK_EnableCKO
	.globl	CLK_EnableCKO
	.p2align	2
	.type	CLK_EnableCKO,%function
	.code	16                      @ @CLK_EnableCKO
	.thumb_func
CLK_EnableCKO:
.Lfunc_begin1:
	.loc	4 56 0 is_stmt 1        @ ../../../Library/StdDriver/src/clk.c:56:0
	.fnstart
	.cfi_startproc
@ %bb.0:
	.save	{r4, r5, r7, lr}
	push	{r4, r5, r7, lr}
	.cfi_def_cfa_offset 16
	.cfi_offset lr, -4
	.cfi_offset r7, -8
	.cfi_offset r5, -12
	.cfi_offset r4, -16
	.pad	#24
	sub	sp, #24
	.cfi_def_cfa_offset 40
	mov	r3, r2
	mov	r4, r1
	mov	r5, r0
	str	r0, [sp, #20]
	str	r1, [sp, #16]
	str	r2, [sp, #12]
.Ltmp1:
	.loc	4 58 45 prologue_end    @ ../../../Library/StdDriver/src/clk.c:58:45
	ldr	r0, [sp, #16]
	.loc	4 58 58 is_stmt 0       @ ../../../Library/StdDriver/src/clk.c:58:58
	ldr	r1, [sp, #12]
	.loc	4 58 73                 @ ../../../Library/StdDriver/src/clk.c:58:73
	lsls	r1, r1, #5
	.loc	4 58 43                 @ ../../../Library/StdDriver/src/clk.c:58:43
	orrs	r0, r1
	movs	r1, #16
	.loc	4 58 55                 @ ../../../Library/StdDriver/src/clk.c:58:55
	orrs	r0, r1
	.loc	4 58 18                 @ ../../../Library/StdDriver/src/clk.c:58:18
	ldr	r1, __arm_cp.1_0
	str	r0, [r1]
	.loc	4 61 18 is_stmt 1       @ ../../../Library/StdDriver/src/clk.c:61:18
	ldr	r0, __arm_cp.1_1
	ldr	r1, [r0]
	movs	r2, #64
	orrs	r1, r2
	str	r1, [r0]
	.loc	4 64 26                 @ ../../../Library/StdDriver/src/clk.c:64:26
	ldr	r0, __arm_cp.1_2
	ldr	r1, [r0]
	.loc	4 64 34 is_stmt 0       @ ../../../Library/StdDriver/src/clk.c:64:34
	movs	r2, #28
	bics	r1, r2
	.loc	4 64 67                 @ ../../../Library/StdDriver/src/clk.c:64:67
	ldr	r2, [sp, #20]
	.loc	4 64 64                 @ ../../../Library/StdDriver/src/clk.c:64:64
	orrs	r1, r2
	.loc	4 64 18                 @ ../../../Library/StdDriver/src/clk.c:64:18
	str	r1, [r0]
	.loc	4 66 1 is_stmt 1        @ ../../../Library/StdDriver/src/clk.c:66:1
	str	r3, [sp, #8]            @ 4-byte Spill
	str	r4, [sp, #4]            @ 4-byte Spill
	str	r5, [sp]                @ 4-byte Spill
	add	sp, #24
	pop	{r4, r5, r7, pc}
.Ltmp2:
	.p2align	2
@ %bb.1:
	.loc	4 0 1 is_stmt 0         @ ../../../Library/StdDriver/src/clk.c:0:1
__arm_cp.1_0:
	.long	1342177828              @ 0x50000224
.Lcpi_end1:
	.size	__arm_cp.1_0, .Lcpi_end1-__arm_cp.1_0
__arm_cp.1_1:
	.long	1342177800              @ 0x50000208
.Lcpi_end2:
	.size	__arm_cp.1_1, .Lcpi_end2-__arm_cp.1_1
__arm_cp.1_2:
	.long	1342177820              @ 0x5000021c
.Lcpi_end3:
	.size	__arm_cp.1_2, .Lcpi_end3-__arm_cp.1_2
.Lfunc_end1:
	.size	CLK_EnableCKO, .Lfunc_end1-CLK_EnableCKO
	.cfi_endproc
	.cantunwind
	.fnend
                                        @ -- End function
	.section	.text.CLK_PowerDown,"ax",%progbits
	.hidden	CLK_PowerDown           @ -- Begin function CLK_PowerDown
	.globl	CLK_PowerDown
	.p2align	2
	.type	CLK_PowerDown,%function
	.code	16                      @ @CLK_PowerDown
	.thumb_func
CLK_PowerDown:
.Lfunc_begin2:
	.loc	4 76 0 is_stmt 1        @ ../../../Library/StdDriver/src/clk.c:76:0
	.fnstart
	.cfi_startproc
@ %bb.0:
	.loc	4 78 14 prologue_end    @ ../../../Library/StdDriver/src/clk.c:78:14
	ldr	r0, __arm_cp.2_0
	ldr	r1, [r0]
	movs	r2, #4
	orrs	r1, r2
	str	r1, [r0]
	.loc	4 81 17                 @ ../../../Library/StdDriver/src/clk.c:81:17
	ldr	r0, __arm_cp.2_1
	ldr	r1, [r0]
	movs	r2, #128
	orrs	r1, r2
	str	r1, [r0]
	.loc	4 84 5                  @ ../../../Library/StdDriver/src/clk.c:84:5
	wfi
	.loc	4 85 1                  @ ../../../Library/StdDriver/src/clk.c:85:1
	bx	lr
.Ltmp3:
	.p2align	2
@ %bb.1:
	.loc	4 0 1 is_stmt 0         @ ../../../Library/StdDriver/src/clk.c:0:1
__arm_cp.2_0:
	.long	3758157072              @ 0xe000ed10
.Lcpi_end4:
	.size	__arm_cp.2_0, .Lcpi_end4-__arm_cp.2_0
__arm_cp.2_1:
	.long	1342177792              @ 0x50000200
.Lcpi_end5:
	.size	__arm_cp.2_1, .Lcpi_end5-__arm_cp.2_1
.Lfunc_end2:
	.size	CLK_PowerDown, .Lfunc_end2-CLK_PowerDown
	.cfi_endproc
	.cantunwind
	.fnend
                                        @ -- End function
	.section	.text.CLK_Idle,"ax",%progbits
	.hidden	CLK_Idle                @ -- Begin function CLK_Idle
	.globl	CLK_Idle
	.p2align	2
	.type	CLK_Idle,%function
	.code	16                      @ @CLK_Idle
	.thumb_func
CLK_Idle:
.Lfunc_begin3:
	.loc	4 95 0 is_stmt 1        @ ../../../Library/StdDriver/src/clk.c:95:0
	.fnstart
	.cfi_startproc
@ %bb.0:
	.loc	4 97 14 prologue_end    @ ../../../Library/StdDriver/src/clk.c:97:14
	ldr	r0, __arm_cp.3_0
	ldr	r1, [r0]
	movs	r2, #4
	bics	r1, r2
	str	r1, [r0]
	.loc	4 100 17                @ ../../../Library/StdDriver/src/clk.c:100:17
	ldr	r0, __arm_cp.3_1
	ldr	r1, [r0]
	movs	r2, #128
	bics	r1, r2
	str	r1, [r0]
	.loc	4 103 5                 @ ../../../Library/StdDriver/src/clk.c:103:5
	wfi
	.loc	4 104 1                 @ ../../../Library/StdDriver/src/clk.c:104:1
	bx	lr
.Ltmp4:
	.p2align	2
@ %bb.1:
	.loc	4 0 1 is_stmt 0         @ ../../../Library/StdDriver/src/clk.c:0:1
__arm_cp.3_0:
	.long	3758157072              @ 0xe000ed10
.Lcpi_end6:
	.size	__arm_cp.3_0, .Lcpi_end6-__arm_cp.3_0
__arm_cp.3_1:
	.long	1342177792              @ 0x50000200
.Lcpi_end7:
	.size	__arm_cp.3_1, .Lcpi_end7-__arm_cp.3_1
.Lfunc_end3:
	.size	CLK_Idle, .Lfunc_end3-CLK_Idle
	.cfi_endproc
	.cantunwind
	.fnend
                                        @ -- End function
	.section	.text.CLK_GetHXTFreq,"ax",%progbits
	.hidden	CLK_GetHXTFreq          @ -- Begin function CLK_GetHXTFreq
	.globl	CLK_GetHXTFreq
	.p2align	2
	.type	CLK_GetHXTFreq,%function
	.code	16                      @ @CLK_GetHXTFreq
	.thumb_func
CLK_GetHXTFreq:
.Lfunc_begin4:
	.loc	4 113 0 is_stmt 1       @ ../../../Library/StdDriver/src/clk.c:113:0
	.fnstart
	.cfi_startproc
@ %bb.0:
	.pad	#4
	sub	sp, #4
	.cfi_def_cfa_offset 4
.Ltmp5:
	.loc	4 114 13 prologue_end   @ ../../../Library/StdDriver/src/clk.c:114:13
	ldr	r0, __arm_cp.4_0
	ldr	r0, [r0]
	.loc	4 114 20 is_stmt 0      @ ../../../Library/StdDriver/src/clk.c:114:20
	movs	r1, #1
.Ltmp6:
	.loc	4 114 8                 @ ../../../Library/StdDriver/src/clk.c:114:8
	tst	r0, r1
	beq	.LBB4_2
	b	.LBB4_1
.LBB4_1:
.Ltmp7:
	.loc	4 115 9 is_stmt 1       @ ../../../Library/StdDriver/src/clk.c:115:9
	ldr	r0, __arm_cp.4_1
	str	r0, [sp]
	b	.LBB4_3
.LBB4_2:
	.loc	4 117 9                 @ ../../../Library/StdDriver/src/clk.c:117:9
	movs	r0, #0
	str	r0, [sp]
	b	.LBB4_3
.Ltmp8:
.LBB4_3:
	.loc	4 118 1                 @ ../../../Library/StdDriver/src/clk.c:118:1
	ldr	r0, [sp]
	add	sp, #4
	bx	lr
.Ltmp9:
	.p2align	2
@ %bb.4:
	.loc	4 0 1 is_stmt 0         @ ../../../Library/StdDriver/src/clk.c:0:1
__arm_cp.4_0:
	.long	1342177792              @ 0x50000200
.Lcpi_end8:
	.size	__arm_cp.4_0, .Lcpi_end8-__arm_cp.4_0
__arm_cp.4_1:
	.long	12000000                @ 0xb71b00
.Lcpi_end9:
	.size	__arm_cp.4_1, .Lcpi_end9-__arm_cp.4_1
.Lfunc_end4:
	.size	CLK_GetHXTFreq, .Lfunc_end4-CLK_GetHXTFreq
	.cfi_endproc
	.cantunwind
	.fnend
                                        @ -- End function
	.section	.text.CLK_GetLXTFreq,"ax",%progbits
	.hidden	CLK_GetLXTFreq          @ -- Begin function CLK_GetLXTFreq
	.globl	CLK_GetLXTFreq
	.p2align	2
	.type	CLK_GetLXTFreq,%function
	.code	16                      @ @CLK_GetLXTFreq
	.thumb_func
CLK_GetLXTFreq:
.Lfunc_begin5:
	.loc	4 127 0 is_stmt 1       @ ../../../Library/StdDriver/src/clk.c:127:0
	.fnstart
	.cfi_startproc
@ %bb.0:
	.pad	#4
	sub	sp, #4
	.cfi_def_cfa_offset 4
.Ltmp10:
	.loc	4 128 13 prologue_end   @ ../../../Library/StdDriver/src/clk.c:128:13
	ldr	r0, __arm_cp.5_0
	ldr	r0, [r0]
	.loc	4 128 20 is_stmt 0      @ ../../../Library/StdDriver/src/clk.c:128:20
	movs	r1, #2
.Ltmp11:
	.loc	4 128 8                 @ ../../../Library/StdDriver/src/clk.c:128:8
	tst	r0, r1
	beq	.LBB5_2
	b	.LBB5_1
.LBB5_1:
.Ltmp12:
	.loc	4 129 9 is_stmt 1       @ ../../../Library/StdDriver/src/clk.c:129:9
	movw	r0, #32768
	str	r0, [sp]
	b	.LBB5_3
.LBB5_2:
	.loc	4 131 9                 @ ../../../Library/StdDriver/src/clk.c:131:9
	movs	r0, #0
	str	r0, [sp]
	b	.LBB5_3
.Ltmp13:
.LBB5_3:
	.loc	4 132 1                 @ ../../../Library/StdDriver/src/clk.c:132:1
	ldr	r0, [sp]
	add	sp, #4
	bx	lr
.Ltmp14:
	.p2align	2
@ %bb.4:
	.loc	4 0 1 is_stmt 0         @ ../../../Library/StdDriver/src/clk.c:0:1
__arm_cp.5_0:
	.long	1342177792              @ 0x50000200
.Lcpi_end10:
	.size	__arm_cp.5_0, .Lcpi_end10-__arm_cp.5_0
.Lfunc_end5:
	.size	CLK_GetLXTFreq, .Lfunc_end5-CLK_GetLXTFreq
	.cfi_endproc
	.cantunwind
	.fnend
                                        @ -- End function
	.section	.text.CLK_GetHCLKFreq,"ax",%progbits
	.hidden	CLK_GetHCLKFreq         @ -- Begin function CLK_GetHCLKFreq
	.globl	CLK_GetHCLKFreq
	.p2align	2
	.type	CLK_GetHCLKFreq,%function
	.code	16                      @ @CLK_GetHCLKFreq
	.thumb_func
CLK_GetHCLKFreq:
.Lfunc_begin6:
	.loc	4 141 0 is_stmt 1       @ ../../../Library/StdDriver/src/clk.c:141:0
	.fnstart
	.cfi_startproc
@ %bb.0:
	.save	{r7, lr}
	push	{r7, lr}
	.cfi_def_cfa_offset 8
	.cfi_offset lr, -4
	.cfi_offset r7, -8
.Ltmp15:
	.loc	4 142 5 prologue_end    @ ../../../Library/StdDriver/src/clk.c:142:5
	bl	SystemCoreClockUpdate
	.loc	4 143 12                @ ../../../Library/StdDriver/src/clk.c:143:12
	ldr	r0, __arm_cp.6_0
	ldr	r0, [r0]
	.loc	4 143 5 is_stmt 0       @ ../../../Library/StdDriver/src/clk.c:143:5
	pop	{r7, pc}
.Ltmp16:
	.p2align	2
@ %bb.1:
	.loc	4 0 5                   @ ../../../Library/StdDriver/src/clk.c:0:5
__arm_cp.6_0:
	.long	SystemCoreClock
.Lcpi_end11:
	.size	__arm_cp.6_0, .Lcpi_end11-__arm_cp.6_0
.Lfunc_end6:
	.size	CLK_GetHCLKFreq, .Lfunc_end6-CLK_GetHCLKFreq
	.cfi_endproc
	.cantunwind
	.fnend
                                        @ -- End function
	.section	.text.CLK_GetPCLK0Freq,"ax",%progbits
	.hidden	CLK_GetPCLK0Freq        @ -- Begin function CLK_GetPCLK0Freq
	.globl	CLK_GetPCLK0Freq
	.p2align	2
	.type	CLK_GetPCLK0Freq,%function
	.code	16                      @ @CLK_GetPCLK0Freq
	.thumb_func
CLK_GetPCLK0Freq:
.Lfunc_begin7:
	.loc	4 153 0 is_stmt 1       @ ../../../Library/StdDriver/src/clk.c:153:0
	.fnstart
	.cfi_startproc
@ %bb.0:
	.save	{r7, lr}
	push	{r7, lr}
	.cfi_def_cfa_offset 8
	.cfi_offset lr, -4
	.cfi_offset r7, -8
	.pad	#8
	sub	sp, #8
	.cfi_def_cfa_offset 16
.Ltmp17:
	.loc	4 154 5 prologue_end    @ ../../../Library/StdDriver/src/clk.c:154:5
	bl	SystemCoreClockUpdate
.Ltmp18:
	.loc	4 155 13                @ ../../../Library/StdDriver/src/clk.c:155:13
	ldr	r0, __arm_cp.7_0
	ldr	r0, [r0]
	.loc	4 155 21 is_stmt 0      @ ../../../Library/StdDriver/src/clk.c:155:21
	movs	r1, #64
.Ltmp19:
	.loc	4 155 8                 @ ../../../Library/StdDriver/src/clk.c:155:8
	tst	r0, r1
	beq	.LBB7_2
	b	.LBB7_1
.LBB7_1:
.Ltmp20:
	.loc	4 156 16 is_stmt 1      @ ../../../Library/StdDriver/src/clk.c:156:16
	ldr	r0, __arm_cp.7_1
	ldr	r0, [r0]
	.loc	4 156 32 is_stmt 0      @ ../../../Library/StdDriver/src/clk.c:156:32
	lsrs	r0, r0, #1
	.loc	4 156 9                 @ ../../../Library/StdDriver/src/clk.c:156:9
	str	r0, [sp, #4]
	b	.LBB7_3
.LBB7_2:
	.loc	4 158 16 is_stmt 1      @ ../../../Library/StdDriver/src/clk.c:158:16
	ldr	r0, __arm_cp.7_1
	ldr	r0, [r0]
	.loc	4 158 9 is_stmt 0       @ ../../../Library/StdDriver/src/clk.c:158:9
	str	r0, [sp, #4]
	b	.LBB7_3
.Ltmp21:
.LBB7_3:
	.loc	4 159 1 is_stmt 1       @ ../../../Library/StdDriver/src/clk.c:159:1
	ldr	r0, [sp, #4]
	add	sp, #8
	pop	{r7, pc}
.Ltmp22:
	.p2align	2
@ %bb.4:
	.loc	4 0 1 is_stmt 0         @ ../../../Library/StdDriver/src/clk.c:0:1
__arm_cp.7_0:
	.long	1342177808              @ 0x50000210
.Lcpi_end12:
	.size	__arm_cp.7_0, .Lcpi_end12-__arm_cp.7_0
__arm_cp.7_1:
	.long	SystemCoreClock
.Lcpi_end13:
	.size	__arm_cp.7_1, .Lcpi_end13-__arm_cp.7_1
.Lfunc_end7:
	.size	CLK_GetPCLK0Freq, .Lfunc_end7-CLK_GetPCLK0Freq
	.cfi_endproc
	.cantunwind
	.fnend
                                        @ -- End function
	.section	.text.CLK_GetPCLK1Freq,"ax",%progbits
	.hidden	CLK_GetPCLK1Freq        @ -- Begin function CLK_GetPCLK1Freq
	.globl	CLK_GetPCLK1Freq
	.p2align	2
	.type	CLK_GetPCLK1Freq,%function
	.code	16                      @ @CLK_GetPCLK1Freq
	.thumb_func
CLK_GetPCLK1Freq:
.Lfunc_begin8:
	.loc	4 168 0 is_stmt 1       @ ../../../Library/StdDriver/src/clk.c:168:0
	.fnstart
	.cfi_startproc
@ %bb.0:
	.save	{r7, lr}
	push	{r7, lr}
	.cfi_def_cfa_offset 8
	.cfi_offset lr, -4
	.cfi_offset r7, -8
	.pad	#8
	sub	sp, #8
	.cfi_def_cfa_offset 16
.Ltmp23:
	.loc	4 169 5 prologue_end    @ ../../../Library/StdDriver/src/clk.c:169:5
	bl	SystemCoreClockUpdate
.Ltmp24:
	.loc	4 170 13                @ ../../../Library/StdDriver/src/clk.c:170:13
	ldr	r0, __arm_cp.8_0
	ldr	r0, [r0]
	.loc	4 170 21 is_stmt 0      @ ../../../Library/StdDriver/src/clk.c:170:21
	movs	r1, #128
.Ltmp25:
	.loc	4 170 8                 @ ../../../Library/StdDriver/src/clk.c:170:8
	tst	r0, r1
	beq	.LBB8_2
	b	.LBB8_1
.LBB8_1:
.Ltmp26:
	.loc	4 171 16 is_stmt 1      @ ../../../Library/StdDriver/src/clk.c:171:16
	ldr	r0, __arm_cp.8_1
	ldr	r0, [r0]
	.loc	4 171 32 is_stmt 0      @ ../../../Library/StdDriver/src/clk.c:171:32
	lsrs	r0, r0, #1
	.loc	4 171 9                 @ ../../../Library/StdDriver/src/clk.c:171:9
	str	r0, [sp, #4]
	b	.LBB8_3
.LBB8_2:
	.loc	4 173 16 is_stmt 1      @ ../../../Library/StdDriver/src/clk.c:173:16
	ldr	r0, __arm_cp.8_1
	ldr	r0, [r0]
	.loc	4 173 9 is_stmt 0       @ ../../../Library/StdDriver/src/clk.c:173:9
	str	r0, [sp, #4]
	b	.LBB8_3
.Ltmp27:
.LBB8_3:
	.loc	4 174 1 is_stmt 1       @ ../../../Library/StdDriver/src/clk.c:174:1
	ldr	r0, [sp, #4]
	add	sp, #8
	pop	{r7, pc}
.Ltmp28:
	.p2align	2
@ %bb.4:
	.loc	4 0 1 is_stmt 0         @ ../../../Library/StdDriver/src/clk.c:0:1
__arm_cp.8_0:
	.long	1342177808              @ 0x50000210
.Lcpi_end14:
	.size	__arm_cp.8_0, .Lcpi_end14-__arm_cp.8_0
__arm_cp.8_1:
	.long	SystemCoreClock
.Lcpi_end15:
	.size	__arm_cp.8_1, .Lcpi_end15-__arm_cp.8_1
.Lfunc_end8:
	.size	CLK_GetPCLK1Freq, .Lfunc_end8-CLK_GetPCLK1Freq
	.cfi_endproc
	.cantunwind
	.fnend
                                        @ -- End function
	.section	.text.CLK_GetCPUFreq,"ax",%progbits
	.hidden	CLK_GetCPUFreq          @ -- Begin function CLK_GetCPUFreq
	.globl	CLK_GetCPUFreq
	.p2align	2
	.type	CLK_GetCPUFreq,%function
	.code	16                      @ @CLK_GetCPUFreq
	.thumb_func
CLK_GetCPUFreq:
.Lfunc_begin9:
	.loc	4 183 0 is_stmt 1       @ ../../../Library/StdDriver/src/clk.c:183:0
	.fnstart
	.cfi_startproc
@ %bb.0:
	.save	{r7, lr}
	push	{r7, lr}
	.cfi_def_cfa_offset 8
	.cfi_offset lr, -4
	.cfi_offset r7, -8
.Ltmp29:
	.loc	4 184 5 prologue_end    @ ../../../Library/StdDriver/src/clk.c:184:5
	bl	SystemCoreClockUpdate
	.loc	4 185 12                @ ../../../Library/StdDriver/src/clk.c:185:12
	ldr	r0, __arm_cp.9_0
	ldr	r0, [r0]
	.loc	4 185 5 is_stmt 0       @ ../../../Library/StdDriver/src/clk.c:185:5
	pop	{r7, pc}
.Ltmp30:
	.p2align	2
@ %bb.1:
	.loc	4 0 5                   @ ../../../Library/StdDriver/src/clk.c:0:5
__arm_cp.9_0:
	.long	SystemCoreClock
.Lcpi_end16:
	.size	__arm_cp.9_0, .Lcpi_end16-__arm_cp.9_0
.Lfunc_end9:
	.size	CLK_GetCPUFreq, .Lfunc_end9-CLK_GetCPUFreq
	.cfi_endproc
	.cantunwind
	.fnend
                                        @ -- End function
	.section	.text.CLK_SetCoreClock,"ax",%progbits
	.hidden	CLK_SetCoreClock        @ -- Begin function CLK_SetCoreClock
	.globl	CLK_SetCoreClock
	.p2align	2
	.type	CLK_SetCoreClock,%function
	.code	16                      @ @CLK_SetCoreClock
	.thumb_func
CLK_SetCoreClock:
.Lfunc_begin10:
	.loc	4 198 0 is_stmt 1       @ ../../../Library/StdDriver/src/clk.c:198:0
	.fnstart
	.cfi_startproc
@ %bb.0:
	.save	{r7, lr}
	push	{r7, lr}
	.cfi_def_cfa_offset 8
	.cfi_offset lr, -4
	.cfi_offset r7, -8
	.pad	#16
	sub	sp, #16
	.cfi_def_cfa_offset 24
	mov	r1, r0
	str	r0, [sp, #12]
.Ltmp31:
	.loc	4 202 23 prologue_end   @ ../../../Library/StdDriver/src/clk.c:202:23
	ldr	r0, __arm_cp.10_0
	ldr	r0, [r0]
	.loc	4 202 30 is_stmt 0      @ ../../../Library/StdDriver/src/clk.c:202:30
	movs	r2, #16
	ands	r0, r2
	.loc	4 202 16                @ ../../../Library/StdDriver/src/clk.c:202:16
	str	r0, [sp, #8]
.Ltmp32:
	.loc	4 205 8 is_stmt 1       @ ../../../Library/StdDriver/src/clk.c:205:8
	ldr	r0, [sp, #12]
.Ltmp33:
	.loc	4 205 8 is_stmt 0       @ ../../../Library/StdDriver/src/clk.c:205:8
	ldr	r2, __arm_cp.10_1
	cmp	r0, r2
	str	r1, [sp, #4]            @ 4-byte Spill
	blo	.LBB10_2
	b	.LBB10_1
.LBB10_1:
.Ltmp34:
	.loc	4 206 17 is_stmt 1      @ ../../../Library/StdDriver/src/clk.c:206:17
	ldr	r0, __arm_cp.10_2
	str	r0, [sp, #12]
	.loc	4 206 9 is_stmt 0       @ ../../../Library/StdDriver/src/clk.c:206:9
	b	.LBB10_2
.Ltmp35:
.LBB10_2:
	.loc	4 207 8 is_stmt 1       @ ../../../Library/StdDriver/src/clk.c:207:8
	ldr	r0, [sp, #12]
.Ltmp36:
	.loc	4 207 8 is_stmt 0       @ ../../../Library/StdDriver/src/clk.c:207:8
	ldr	r1, __arm_cp.10_3
	cmp	r0, r1
	bhi	.LBB10_4
	b	.LBB10_3
.LBB10_3:
.Ltmp37:
	.loc	4 208 17 is_stmt 1      @ ../../../Library/StdDriver/src/clk.c:208:17
	ldr	r0, __arm_cp.10_4
	str	r0, [sp, #12]
	.loc	4 208 9 is_stmt 0       @ ../../../Library/StdDriver/src/clk.c:208:9
	b	.LBB10_4
.Ltmp38:
.LBB10_4:
	.loc	4 211 17 is_stmt 1      @ ../../../Library/StdDriver/src/clk.c:211:17
	ldr	r0, __arm_cp.10_5
	ldr	r1, [r0]
	movs	r2, #4
	orrs	r1, r2
	str	r1, [r0]
	movs	r0, #16
	.loc	4 212 5                 @ ../../../Library/StdDriver/src/clk.c:212:5
	bl	CLK_WaitClockReady
	.loc	4 213 18                @ ../../../Library/StdDriver/src/clk.c:213:18
	ldr	r1, __arm_cp.10_6
	ldr	r2, [r1]
	movs	r3, #7
	orrs	r2, r3
	str	r2, [r1]
	.loc	4 214 18                @ ../../../Library/StdDriver/src/clk.c:214:18
	ldr	r1, __arm_cp.10_7
	ldr	r2, [r1]
	movs	r3, #15
	bics	r2, r3
	str	r2, [r1]
.Ltmp39:
	.loc	4 217 13                @ ../../../Library/StdDriver/src/clk.c:217:13
	ldr	r1, __arm_cp.10_0
	ldr	r1, [r1]
	.loc	4 217 20 is_stmt 0      @ ../../../Library/StdDriver/src/clk.c:217:20
	movs	r2, #1
.Ltmp40:
	.loc	4 217 8                 @ ../../../Library/StdDriver/src/clk.c:217:8
	tst	r1, r2
	str	r0, [sp]                @ 4-byte Spill
	beq	.LBB10_6
	b	.LBB10_5
.LBB10_5:
.Ltmp41:
	.loc	4 218 57 is_stmt 1      @ ../../../Library/StdDriver/src/clk.c:218:57
	ldr	r0, [sp, #12]
	.loc	4 218 65 is_stmt 0      @ ../../../Library/StdDriver/src/clk.c:218:65
	lsls	r1, r0, #1
	movs	r0, #0
	.loc	4 218 19                @ ../../../Library/StdDriver/src/clk.c:218:19
	bl	CLK_EnablePLL
	.loc	4 218 17                @ ../../../Library/StdDriver/src/clk.c:218:17
	str	r0, [sp, #12]
	.loc	4 218 9                 @ ../../../Library/StdDriver/src/clk.c:218:9
	b	.LBB10_7
.LBB10_6:
.Ltmp42:
	.loc	4 223 63 is_stmt 1      @ ../../../Library/StdDriver/src/clk.c:223:63
	ldr	r0, [sp, #12]
	.loc	4 223 71 is_stmt 0      @ ../../../Library/StdDriver/src/clk.c:223:71
	lsls	r1, r0, #1
	.loc	4 223 19                @ ../../../Library/StdDriver/src/clk.c:223:19
	movs	r0, #1
	lsls	r0, r0, #19
	bl	CLK_EnablePLL
	.loc	4 223 17                @ ../../../Library/StdDriver/src/clk.c:223:17
	str	r0, [sp, #12]
	.loc	4 226 27 is_stmt 1      @ ../../../Library/StdDriver/src/clk.c:226:27
	ldr	r0, __arm_cp.10_0
	ldr	r0, [r0]
	.loc	4 226 34 is_stmt 0      @ ../../../Library/StdDriver/src/clk.c:226:34
	movs	r1, #16
	ands	r0, r1
	.loc	4 226 20                @ ../../../Library/StdDriver/src/clk.c:226:20
	str	r0, [sp, #8]
	b	.LBB10_7
.Ltmp43:
.LBB10_7:
	.loc	4 233 5 is_stmt 1       @ ../../../Library/StdDriver/src/clk.c:233:5
	movs	r0, #2
	movs	r1, #0
	bl	CLK_SetHCLK
.Ltmp44:
	.loc	4 236 8                 @ ../../../Library/StdDriver/src/clk.c:236:8
	ldr	r0, [sp, #8]
.Ltmp45:
	.loc	4 236 8 is_stmt 0       @ ../../../Library/StdDriver/src/clk.c:236:8
	cmp	r0, #0
	bne	.LBB10_9
	b	.LBB10_8
.LBB10_8:
.Ltmp46:
	.loc	4 237 21 is_stmt 1      @ ../../../Library/StdDriver/src/clk.c:237:21
	ldr	r0, __arm_cp.10_5
	ldr	r1, [r0]
	movs	r2, #4
	bics	r1, r2
	str	r1, [r0]
	.loc	4 237 9 is_stmt 0       @ ../../../Library/StdDriver/src/clk.c:237:9
	b	.LBB10_9
.Ltmp47:
.LBB10_9:
	.loc	4 240 12 is_stmt 1      @ ../../../Library/StdDriver/src/clk.c:240:12
	ldr	r0, [sp, #12]
	.loc	4 240 20 is_stmt 0      @ ../../../Library/StdDriver/src/clk.c:240:20
	lsrs	r0, r0, #1
	.loc	4 240 5                 @ ../../../Library/StdDriver/src/clk.c:240:5
	add	sp, #16
	pop	{r7, pc}
.Ltmp48:
	.p2align	2
@ %bb.10:
	.loc	4 0 5                   @ ../../../Library/StdDriver/src/clk.c:0:5
__arm_cp.10_0:
	.long	1342177804              @ 0x5000020c
.Lcpi_end17:
	.size	__arm_cp.10_0, .Lcpi_end17-__arm_cp.10_0
__arm_cp.10_1:
	.long	72000001                @ 0x44aa201
.Lcpi_end18:
	.size	__arm_cp.10_1, .Lcpi_end18-__arm_cp.10_1
__arm_cp.10_2:
	.long	72000000                @ 0x44aa200
.Lcpi_end19:
	.size	__arm_cp.10_2, .Lcpi_end19-__arm_cp.10_2
__arm_cp.10_3:
	.long	24999999                @ 0x17d783f
.Lcpi_end20:
	.size	__arm_cp.10_3, .Lcpi_end20-__arm_cp.10_3
__arm_cp.10_4:
	.long	25000000                @ 0x17d7840
.Lcpi_end21:
	.size	__arm_cp.10_4, .Lcpi_end21-__arm_cp.10_4
__arm_cp.10_5:
	.long	1342177792              @ 0x50000200
.Lcpi_end22:
	.size	__arm_cp.10_5, .Lcpi_end22-__arm_cp.10_5
__arm_cp.10_6:
	.long	1342177808              @ 0x50000210
.Lcpi_end23:
	.size	__arm_cp.10_6, .Lcpi_end23-__arm_cp.10_6
__arm_cp.10_7:
	.long	1342177816              @ 0x50000218
.Lcpi_end24:
	.size	__arm_cp.10_7, .Lcpi_end24-__arm_cp.10_7
.Lfunc_end10:
	.size	CLK_SetCoreClock, .Lfunc_end10-CLK_SetCoreClock
	.cfi_endproc
	.cantunwind
	.fnend
                                        @ -- End function
	.section	.text.CLK_WaitClockReady,"ax",%progbits
	.hidden	CLK_WaitClockReady      @ -- Begin function CLK_WaitClockReady
	.globl	CLK_WaitClockReady
	.p2align	2
	.type	CLK_WaitClockReady,%function
	.code	16                      @ @CLK_WaitClockReady
	.thumb_func
CLK_WaitClockReady:
.Lfunc_begin11:
	.loc	4 682 0 is_stmt 1       @ ../../../Library/StdDriver/src/clk.c:682:0
	.fnstart
	.cfi_startproc
@ %bb.0:
	.pad	#16
	sub	sp, #16
	.cfi_def_cfa_offset 16
	mov	r1, r0
	str	r0, [sp, #8]
.Ltmp49:
	.loc	4 683 13 prologue_end   @ ../../../Library/StdDriver/src/clk.c:683:13
	ldr	r0, __arm_cp.11_0
	str	r0, [sp, #4]
	.loc	4 685 5                 @ ../../../Library/StdDriver/src/clk.c:685:5
	str	r1, [sp]                @ 4-byte Spill
	b	.LBB11_1
.LBB11_1:                               @ =>This Inner Loop Header: Depth=1
	.loc	4 685 17 is_stmt 0      @ ../../../Library/StdDriver/src/clk.c:685:17
	ldr	r0, __arm_cp.11_1
	ldr	r0, [r0]
	.loc	4 685 26                @ ../../../Library/StdDriver/src/clk.c:685:26
	ldr	r1, [sp, #8]
	.loc	4 685 24                @ ../../../Library/StdDriver/src/clk.c:685:24
	ands	r0, r1
	.loc	4 685 5                 @ ../../../Library/StdDriver/src/clk.c:685:5
	cmp	r0, r1
	beq	.LBB11_5
	b	.LBB11_2
.LBB11_2:                               @   in Loop: Header=BB11_1 Depth=1
.Ltmp50:
	.loc	4 687 25 is_stmt 1      @ ../../../Library/StdDriver/src/clk.c:687:25
	ldr	r0, [sp, #4]
	subs	r1, r0, #1
	str	r1, [sp, #4]
.Ltmp51:
	.loc	4 687 12 is_stmt 0      @ ../../../Library/StdDriver/src/clk.c:687:12
	cmp	r0, #0
	bgt	.LBB11_4
	b	.LBB11_3
.LBB11_3:
.Ltmp52:
	.loc	4 688 13 is_stmt 1      @ ../../../Library/StdDriver/src/clk.c:688:13
	movs	r0, #0
	str	r0, [sp, #12]
	b	.LBB11_6
.Ltmp53:
.LBB11_4:                               @   in Loop: Header=BB11_1 Depth=1
	.loc	4 685 5                 @ ../../../Library/StdDriver/src/clk.c:685:5
	b	.LBB11_1
.LBB11_5:
	.loc	4 691 5                 @ ../../../Library/StdDriver/src/clk.c:691:5
	movs	r0, #1
	str	r0, [sp, #12]
	b	.LBB11_6
.LBB11_6:
	.loc	4 692 1                 @ ../../../Library/StdDriver/src/clk.c:692:1
	ldr	r0, [sp, #12]
	add	sp, #16
	bx	lr
.Ltmp54:
	.p2align	2
@ %bb.7:
	.loc	4 0 1 is_stmt 0         @ ../../../Library/StdDriver/src/clk.c:0:1
__arm_cp.11_0:
	.long	3000000                 @ 0x2dc6c0
.Lcpi_end25:
	.size	__arm_cp.11_0, .Lcpi_end25-__arm_cp.11_0
__arm_cp.11_1:
	.long	1342177804              @ 0x5000020c
.Lcpi_end26:
	.size	__arm_cp.11_1, .Lcpi_end26-__arm_cp.11_1
.Lfunc_end11:
	.size	CLK_WaitClockReady, .Lfunc_end11-CLK_WaitClockReady
	.cfi_endproc
	.cantunwind
	.fnend
                                        @ -- End function
	.section	.text.CLK_EnablePLL,"ax",%progbits
	.hidden	CLK_EnablePLL           @ -- Begin function CLK_EnablePLL
	.globl	CLK_EnablePLL
	.p2align	2
	.type	CLK_EnablePLL,%function
	.code	16                      @ @CLK_EnablePLL
	.thumb_func
CLK_EnablePLL:
.Lfunc_begin12:
	.loc	4 541 0 is_stmt 1       @ ../../../Library/StdDriver/src/clk.c:541:0
	.fnstart
	.cfi_startproc
@ %bb.0:
	.save	{r7, lr}
	push	{r7, lr}
	.cfi_def_cfa_offset 8
	.cfi_offset lr, -4
	.cfi_offset r7, -8
	.pad	#88
	sub	sp, #88
	.cfi_def_cfa_offset 96
	mov	r2, r1
	mov	r3, r0
	str	r0, [sp, #80]
	str	r1, [sp, #76]
.Ltmp55:
	.loc	4 546 5 prologue_end    @ ../../../Library/StdDriver/src/clk.c:546:5
	str	r2, [sp, #28]           @ 4-byte Spill
	str	r3, [sp, #24]           @ 4-byte Spill
	bl	CLK_DisablePLL
.Ltmp56:
	.loc	4 549 8                 @ ../../../Library/StdDriver/src/clk.c:549:8
	ldr	r0, [sp, #80]
.Ltmp57:
	.loc	4 549 8 is_stmt 0       @ ../../../Library/StdDriver/src/clk.c:549:8
	cmp	r0, #0
	bne	.LBB12_2
	b	.LBB12_1
.LBB12_1:
.Ltmp58:
	.loc	4 552 21 is_stmt 1      @ ../../../Library/StdDriver/src/clk.c:552:21
	ldr	r0, __arm_cp.12_0
	ldr	r1, [r0]
	movs	r2, #1
	orrs	r1, r2
	str	r1, [r0]
	.loc	4 555 9                 @ ../../../Library/StdDriver/src/clk.c:555:9
	mov	r0, r2
	bl	CLK_WaitClockReady
	movs	r1, #0
	.loc	4 558 20                @ ../../../Library/StdDriver/src/clk.c:558:20
	str	r1, [sp, #56]
	.loc	4 559 22                @ ../../../Library/StdDriver/src/clk.c:559:22
	ldr	r1, __arm_cp.12_2
	str	r1, [sp, #72]
	.loc	4 562 15                @ ../../../Library/StdDriver/src/clk.c:562:15
	movs	r1, #2
	str	r1, [sp, #68]
	.loc	4 563 5                 @ ../../../Library/StdDriver/src/clk.c:563:5
	str	r0, [sp, #20]           @ 4-byte Spill
	b	.LBB12_3
.Ltmp59:
.LBB12_2:
	.loc	4 569 21                @ ../../../Library/StdDriver/src/clk.c:569:21
	ldr	r0, __arm_cp.12_0
	ldr	r1, [r0]
	movs	r2, #4
	orrs	r1, r2
	str	r1, [r0]
	.loc	4 572 9                 @ ../../../Library/StdDriver/src/clk.c:572:9
	movs	r0, #16
	str	r2, [sp, #16]           @ 4-byte Spill
	bl	CLK_WaitClockReady
	.loc	4 575 20                @ ../../../Library/StdDriver/src/clk.c:575:20
	movs	r1, #1
	lsls	r1, r1, #19
	str	r1, [sp, #56]
	.loc	4 576 22                @ ../../../Library/StdDriver/src/clk.c:576:22
	ldr	r1, __arm_cp.12_1
	str	r1, [sp, #72]
	.loc	4 579 15                @ ../../../Library/StdDriver/src/clk.c:579:15
	ldr	r1, [sp, #16]           @ 4-byte Reload
	str	r1, [sp, #68]
	str	r0, [sp, #12]           @ 4-byte Spill
	b	.LBB12_3
.Ltmp60:
.LBB12_3:
	.loc	4 583 9                 @ ../../../Library/StdDriver/src/clk.c:583:9
	ldr	r0, [sp, #76]
	.loc	4 583 20 is_stmt 0      @ ../../../Library/StdDriver/src/clk.c:583:20
	ldr	r1, __arm_cp.12_3
	.loc	4 583 36                @ ../../../Library/StdDriver/src/clk.c:583:36
	cmp	r0, r1
	bhi	.LBB12_6
	b	.LBB12_4
.LBB12_4:
	.loc	4 583 40                @ ../../../Library/StdDriver/src/clk.c:583:40
	ldr	r0, [sp, #76]
.Ltmp61:
	.loc	4 583 8                 @ ../../../Library/StdDriver/src/clk.c:583:8
	ldr	r1, __arm_cp.12_4
	cmp	r0, r1
	blo	.LBB12_6
	b	.LBB12_5
.LBB12_5:
.Ltmp62:
	.loc	4 585 15 is_stmt 1      @ ../../../Library/StdDriver/src/clk.c:585:15
	movs	r0, #0
	str	r0, [sp, #60]
	.loc	4 586 5                 @ ../../../Library/StdDriver/src/clk.c:586:5
	b	.LBB12_15
.Ltmp63:
.LBB12_6:
	.loc	4 587 14                @ ../../../Library/StdDriver/src/clk.c:587:14
	ldr	r0, [sp, #76]
	.loc	4 587 25 is_stmt 0      @ ../../../Library/StdDriver/src/clk.c:587:25
	ldr	r1, __arm_cp.12_5
	.loc	4 587 41                @ ../../../Library/StdDriver/src/clk.c:587:41
	cmp	r0, r1
	bhi	.LBB12_9
	b	.LBB12_7
.LBB12_7:
	.loc	4 587 45                @ ../../../Library/StdDriver/src/clk.c:587:45
	ldr	r0, [sp, #76]
.Ltmp64:
	.loc	4 587 13                @ ../../../Library/StdDriver/src/clk.c:587:13
	ldr	r1, __arm_cp.12_6
	cmp	r0, r1
	blo	.LBB12_9
	b	.LBB12_8
.LBB12_8:
.Ltmp65:
	.loc	4 589 15 is_stmt 1      @ ../../../Library/StdDriver/src/clk.c:589:15
	movs	r0, #1
	str	r0, [sp, #60]
	.loc	4 590 22                @ ../../../Library/StdDriver/src/clk.c:590:22
	ldr	r0, [sp, #76]
	.loc	4 590 33 is_stmt 0      @ ../../../Library/StdDriver/src/clk.c:590:33
	lsls	r0, r0, #1
	.loc	4 590 20                @ ../../../Library/StdDriver/src/clk.c:590:20
	str	r0, [sp, #76]
	.loc	4 591 5 is_stmt 1       @ ../../../Library/StdDriver/src/clk.c:591:5
	b	.LBB12_14
.Ltmp66:
.LBB12_9:
	.loc	4 592 14                @ ../../../Library/StdDriver/src/clk.c:592:14
	ldr	r0, [sp, #76]
	.loc	4 592 25 is_stmt 0      @ ../../../Library/StdDriver/src/clk.c:592:25
	ldr	r1, __arm_cp.12_7
	.loc	4 592 41                @ ../../../Library/StdDriver/src/clk.c:592:41
	cmp	r0, r1
	bhi	.LBB12_12
	b	.LBB12_10
.LBB12_10:
	.loc	4 592 45                @ ../../../Library/StdDriver/src/clk.c:592:45
	ldr	r0, [sp, #76]
	.loc	4 592 56                @ ../../../Library/StdDriver/src/clk.c:592:56
	ldr	r1, __arm_cp.12_8
.Ltmp67:
	.loc	4 592 13                @ ../../../Library/StdDriver/src/clk.c:592:13
	cmp	r0, r1
	blo	.LBB12_12
	b	.LBB12_11
.LBB12_11:
.Ltmp68:
	.loc	4 594 15 is_stmt 1      @ ../../../Library/StdDriver/src/clk.c:594:15
	movs	r0, #3
	str	r0, [sp, #60]
	.loc	4 595 22                @ ../../../Library/StdDriver/src/clk.c:595:22
	ldr	r0, [sp, #76]
	.loc	4 595 33 is_stmt 0      @ ../../../Library/StdDriver/src/clk.c:595:33
	lsls	r0, r0, #2
	.loc	4 595 20                @ ../../../Library/StdDriver/src/clk.c:595:20
	str	r0, [sp, #76]
	.loc	4 596 5 is_stmt 1       @ ../../../Library/StdDriver/src/clk.c:596:5
	b	.LBB12_13
.Ltmp69:
.LBB12_12:
	.loc	4 600 9                 @ ../../../Library/StdDriver/src/clk.c:600:9
	b	.LBB12_37
.Ltmp70:
.LBB12_13:
	.loc	4 0 9 is_stmt 0         @ ../../../Library/StdDriver/src/clk.c:0:9
	b	.LBB12_14
.LBB12_14:
	b	.LBB12_15
.LBB12_15:
	movs	r0, #0
	.loc	4 604 12 is_stmt 1      @ ../../../Library/StdDriver/src/clk.c:604:12
	mvns	r1, r0
	str	r1, [sp, #40]
	.loc	4 605 14                @ ../../../Library/StdDriver/src/clk.c:605:14
	str	r0, [sp, #32]
	.loc	4 606 14                @ ../../../Library/StdDriver/src/clk.c:606:14
	str	r0, [sp, #36]
	.loc	4 607 5                 @ ../../../Library/StdDriver/src/clk.c:607:5
	b	.LBB12_16
.LBB12_16:                              @ =>This Loop Header: Depth=1
                                        @     Child Loop BB12_20 Depth 2
.Ltmp71:
	.loc	4 607 11 is_stmt 0      @ ../../../Library/StdDriver/src/clk.c:607:11
	ldr	r0, [sp, #68]
.Ltmp72:
	.loc	4 607 5                 @ ../../../Library/StdDriver/src/clk.c:607:5
	cmp	r0, #33
	bhi	.LBB12_36
	b	.LBB12_17
.LBB12_17:                              @   in Loop: Header=BB12_16 Depth=1
.Ltmp73:
	.loc	4 609 18 is_stmt 1      @ ../../../Library/StdDriver/src/clk.c:609:18
	ldr	r0, [sp, #72]
	.loc	4 609 33 is_stmt 0      @ ../../../Library/StdDriver/src/clk.c:609:33
	ldr	r1, [sp, #68]
	.loc	4 609 31                @ ../../../Library/StdDriver/src/clk.c:609:31
	udiv	r0, r0, r1
	.loc	4 609 16                @ ../../../Library/StdDriver/src/clk.c:609:16
	str	r0, [sp, #52]
.Ltmp74:
	.loc	4 610 13 is_stmt 1      @ ../../../Library/StdDriver/src/clk.c:610:13
	ldr	r0, [sp, #52]
	.loc	4 610 31 is_stmt 0      @ ../../../Library/StdDriver/src/clk.c:610:31
	ldr	r1, __arm_cp.12_13
	cmp	r0, r1
	blo	.LBB12_34
	b	.LBB12_18
.LBB12_18:                              @   in Loop: Header=BB12_16 Depth=1
	.loc	4 610 35                @ ../../../Library/StdDriver/src/clk.c:610:35
	ldr	r0, [sp, #52]
.Ltmp75:
	.loc	4 610 12                @ ../../../Library/StdDriver/src/clk.c:610:12
	ldr	r1, __arm_cp.12_14
	cmp	r0, r1
	bhi	.LBB12_34
	b	.LBB12_19
.LBB12_19:                              @   in Loop: Header=BB12_16 Depth=1
.Ltmp76:
	.loc	4 612 23 is_stmt 1      @ ../../../Library/StdDriver/src/clk.c:612:23
	movs	r0, #2
	str	r0, [sp, #64]
	.loc	4 612 17 is_stmt 0      @ ../../../Library/StdDriver/src/clk.c:612:17
	b	.LBB12_20
.LBB12_20:                              @   Parent Loop BB12_16 Depth=1
                                        @ =>  This Inner Loop Header: Depth=2
.Ltmp77:
	.loc	4 612 28                @ ../../../Library/StdDriver/src/clk.c:612:28
	ldr	r0, [sp, #64]
	.loc	4 612 34                @ ../../../Library/StdDriver/src/clk.c:612:34
	ldr	r1, __arm_cp.12_15
.Ltmp78:
	.loc	4 612 13                @ ../../../Library/StdDriver/src/clk.c:612:13
	cmp	r0, r1
	bhi	.LBB12_33
	b	.LBB12_21
.LBB12_21:                              @   in Loop: Header=BB12_20 Depth=2
.Ltmp79:
	.loc	4 614 27 is_stmt 1      @ ../../../Library/StdDriver/src/clk.c:614:27
	ldr	r0, [sp, #52]
	.loc	4 614 36 is_stmt 0      @ ../../../Library/StdDriver/src/clk.c:614:36
	ldr	r1, [sp, #64]
	.loc	4 614 34                @ ../../../Library/StdDriver/src/clk.c:614:34
	muls	r1, r0, r1
	.loc	4 614 25                @ ../../../Library/StdDriver/src/clk.c:614:25
	str	r1, [sp, #48]
.Ltmp80:
	.loc	4 615 21 is_stmt 1      @ ../../../Library/StdDriver/src/clk.c:615:21
	ldr	r0, [sp, #48]
	.loc	4 615 29 is_stmt 0      @ ../../../Library/StdDriver/src/clk.c:615:29
	ldr	r1, __arm_cp.12_5
	.loc	4 615 43                @ ../../../Library/StdDriver/src/clk.c:615:43
	cmp	r0, r1
	blo	.LBB12_31
	b	.LBB12_22
.LBB12_22:                              @   in Loop: Header=BB12_20 Depth=2
	.loc	4 615 47                @ ../../../Library/StdDriver/src/clk.c:615:47
	ldr	r0, [sp, #48]
	.loc	4 615 55                @ ../../../Library/StdDriver/src/clk.c:615:55
	ldr	r1, __arm_cp.12_3
.Ltmp81:
	.loc	4 615 20                @ ../../../Library/StdDriver/src/clk.c:615:20
	cmp	r0, r1
	bhi	.LBB12_31
	b	.LBB12_23
.LBB12_23:                              @   in Loop: Header=BB12_20 Depth=2
.Ltmp82:
	.loc	4 617 32 is_stmt 1      @ ../../../Library/StdDriver/src/clk.c:617:32
	ldr	r0, [sp, #48]
	.loc	4 617 42 is_stmt 0      @ ../../../Library/StdDriver/src/clk.c:617:42
	ldr	r1, [sp, #76]
	.loc	4 617 31                @ ../../../Library/StdDriver/src/clk.c:617:31
	cmp	r0, r1
	bls	.LBB12_25
	b	.LBB12_24
.LBB12_24:                              @   in Loop: Header=BB12_20 Depth=2
	.loc	4 617 56                @ ../../../Library/StdDriver/src/clk.c:617:56
	ldr	r0, [sp, #48]
	.loc	4 617 66                @ ../../../Library/StdDriver/src/clk.c:617:66
	ldr	r1, [sp, #76]
	.loc	4 617 64                @ ../../../Library/StdDriver/src/clk.c:617:64
	subs	r0, r0, r1
	.loc	4 617 31                @ ../../../Library/StdDriver/src/clk.c:617:31
	str	r0, [sp, #8]            @ 4-byte Spill
	b	.LBB12_26
.LBB12_25:                              @   in Loop: Header=BB12_20 Depth=2
	.loc	4 617 79                @ ../../../Library/StdDriver/src/clk.c:617:79
	ldr	r0, [sp, #76]
	.loc	4 617 92                @ ../../../Library/StdDriver/src/clk.c:617:92
	ldr	r1, [sp, #48]
	.loc	4 617 90                @ ../../../Library/StdDriver/src/clk.c:617:90
	subs	r0, r0, r1
	.loc	4 617 31                @ ../../../Library/StdDriver/src/clk.c:617:31
	str	r0, [sp, #8]            @ 4-byte Spill
	b	.LBB12_26
.LBB12_26:                              @   in Loop: Header=BB12_20 Depth=2
	ldr	r0, [sp, #8]            @ 4-byte Reload
	.loc	4 617 29                @ ../../../Library/StdDriver/src/clk.c:617:29
	str	r0, [sp, #44]
.Ltmp83:
	.loc	4 618 24 is_stmt 1      @ ../../../Library/StdDriver/src/clk.c:618:24
	ldr	r0, [sp, #44]
	.loc	4 618 34 is_stmt 0      @ ../../../Library/StdDriver/src/clk.c:618:34
	ldr	r1, [sp, #40]
.Ltmp84:
	.loc	4 618 24                @ ../../../Library/StdDriver/src/clk.c:618:24
	cmp	r0, r1
	bhs	.LBB12_30
	b	.LBB12_27
.LBB12_27:                              @   in Loop: Header=BB12_20 Depth=2
.Ltmp85:
	.loc	4 620 34 is_stmt 1      @ ../../../Library/StdDriver/src/clk.c:620:34
	ldr	r0, [sp, #44]
	.loc	4 620 32 is_stmt 0      @ ../../../Library/StdDriver/src/clk.c:620:32
	str	r0, [sp, #40]
	.loc	4 621 36 is_stmt 1      @ ../../../Library/StdDriver/src/clk.c:621:36
	ldr	r0, [sp, #68]
	.loc	4 621 34 is_stmt 0      @ ../../../Library/StdDriver/src/clk.c:621:34
	str	r0, [sp, #32]
	.loc	4 622 36 is_stmt 1      @ ../../../Library/StdDriver/src/clk.c:622:36
	ldr	r0, [sp, #64]
	.loc	4 622 34 is_stmt 0      @ ../../../Library/StdDriver/src/clk.c:622:34
	str	r0, [sp, #36]
.Ltmp86:
	.loc	4 625 28 is_stmt 1      @ ../../../Library/StdDriver/src/clk.c:625:28
	ldr	r0, [sp, #40]
.Ltmp87:
	.loc	4 625 28 is_stmt 0      @ ../../../Library/StdDriver/src/clk.c:625:28
	cmp	r0, #0
	bne	.LBB12_29
	b	.LBB12_28
.LBB12_28:                              @   in Loop: Header=BB12_16 Depth=1
.Ltmp88:
	.loc	4 626 29 is_stmt 1      @ ../../../Library/StdDriver/src/clk.c:626:29
	b	.LBB12_33
.Ltmp89:
.LBB12_29:                              @   in Loop: Header=BB12_20 Depth=2
	.loc	4 627 21                @ ../../../Library/StdDriver/src/clk.c:627:21
	b	.LBB12_30
.Ltmp90:
.LBB12_30:                              @   in Loop: Header=BB12_20 Depth=2
	.loc	4 628 17                @ ../../../Library/StdDriver/src/clk.c:628:17
	b	.LBB12_31
.Ltmp91:
.LBB12_31:                              @   in Loop: Header=BB12_20 Depth=2
	.loc	4 629 13                @ ../../../Library/StdDriver/src/clk.c:629:13
	b	.LBB12_32
.Ltmp92:
.LBB12_32:                              @   in Loop: Header=BB12_20 Depth=2
	.loc	4 612 47                @ ../../../Library/StdDriver/src/clk.c:612:47
	ldr	r0, [sp, #64]
	adds	r0, r0, #1
	str	r0, [sp, #64]
	.loc	4 612 13 is_stmt 0      @ ../../../Library/StdDriver/src/clk.c:612:13
	b	.LBB12_20
.Ltmp93:
.LBB12_33:                              @   in Loop: Header=BB12_16 Depth=1
	.loc	4 630 9 is_stmt 1       @ ../../../Library/StdDriver/src/clk.c:630:9
	b	.LBB12_34
.Ltmp94:
.LBB12_34:                              @   in Loop: Header=BB12_16 Depth=1
	.loc	4 631 5                 @ ../../../Library/StdDriver/src/clk.c:631:5
	b	.LBB12_35
.Ltmp95:
.LBB12_35:                              @   in Loop: Header=BB12_16 Depth=1
	.loc	4 607 29                @ ../../../Library/StdDriver/src/clk.c:607:29
	ldr	r0, [sp, #68]
	adds	r0, r0, #1
	str	r0, [sp, #68]
	.loc	4 607 5 is_stmt 0       @ ../../../Library/StdDriver/src/clk.c:607:5
	b	.LBB12_16
.Ltmp96:
.LBB12_36:
	.loc	4 634 19 is_stmt 1      @ ../../../Library/StdDriver/src/clk.c:634:19
	ldr	r0, [sp, #56]
	.loc	4 634 33 is_stmt 0      @ ../../../Library/StdDriver/src/clk.c:634:33
	ldr	r1, [sp, #60]
	.loc	4 634 39                @ ../../../Library/StdDriver/src/clk.c:634:39
	lsls	r1, r1, #14
	.loc	4 634 30                @ ../../../Library/StdDriver/src/clk.c:634:30
	orrs	r0, r1
	.loc	4 634 50                @ ../../../Library/StdDriver/src/clk.c:634:50
	ldr	r1, [sp, #32]
	.loc	4 634 59                @ ../../../Library/StdDriver/src/clk.c:634:59
	lsls	r1, r1, #9
	.loc	4 634 64                @ ../../../Library/StdDriver/src/clk.c:634:64
	ldr	r2, __arm_cp.12_12
	adds	r1, r1, r2
	.loc	4 634 46                @ ../../../Library/StdDriver/src/clk.c:634:46
	orrs	r0, r1
	.loc	4 634 73                @ ../../../Library/StdDriver/src/clk.c:634:73
	ldr	r1, [sp, #36]
	.loc	4 634 82                @ ../../../Library/StdDriver/src/clk.c:634:82
	subs	r1, r1, #2
	.loc	4 634 70                @ ../../../Library/StdDriver/src/clk.c:634:70
	orrs	r0, r1
	.loc	4 634 17                @ ../../../Library/StdDriver/src/clk.c:634:17
	ldr	r1, __arm_cp.12_9
	str	r0, [r1]
	.loc	4 637 5 is_stmt 1       @ ../../../Library/StdDriver/src/clk.c:637:5
	movs	r0, #4
	bl	CLK_WaitClockReady
	.loc	4 640 12                @ ../../../Library/StdDriver/src/clk.c:640:12
	ldr	r1, [sp, #72]
	.loc	4 640 29 is_stmt 0      @ ../../../Library/StdDriver/src/clk.c:640:29
	ldr	r2, [sp, #60]
	.loc	4 640 35                @ ../../../Library/StdDriver/src/clk.c:640:35
	adds	r2, r2, #1
	.loc	4 640 42                @ ../../../Library/StdDriver/src/clk.c:640:42
	ldr	r3, [sp, #32]
	.loc	4 640 40                @ ../../../Library/StdDriver/src/clk.c:640:40
	muls	r3, r2, r3
	.loc	4 640 25                @ ../../../Library/StdDriver/src/clk.c:640:25
	udiv	r1, r1, r3
	.loc	4 640 54                @ ../../../Library/StdDriver/src/clk.c:640:54
	ldr	r2, [sp, #36]
	.loc	4 640 52                @ ../../../Library/StdDriver/src/clk.c:640:52
	muls	r2, r1, r2
	.loc	4 640 5                 @ ../../../Library/StdDriver/src/clk.c:640:5
	str	r2, [sp, #84]
	str	r0, [sp, #4]            @ 4-byte Spill
	b	.LBB12_41
.LBB12_37:
.Ltmp97:
	.loc	4 645 8 is_stmt 1       @ ../../../Library/StdDriver/src/clk.c:645:8
	ldr	r0, [sp, #80]
.Ltmp98:
	.loc	4 645 8 is_stmt 0       @ ../../../Library/StdDriver/src/clk.c:645:8
	cmp	r0, #0
	bne	.LBB12_39
	b	.LBB12_38
.LBB12_38:
.Ltmp99:
	.loc	4 646 21 is_stmt 1      @ ../../../Library/StdDriver/src/clk.c:646:21
	ldr	r0, __arm_cp.12_9
	ldr	r1, __arm_cp.12_11
	str	r1, [r0]
	.loc	4 646 9 is_stmt 0       @ ../../../Library/StdDriver/src/clk.c:646:9
	b	.LBB12_40
.LBB12_39:
	.loc	4 648 21 is_stmt 1      @ ../../../Library/StdDriver/src/clk.c:648:21
	ldr	r0, __arm_cp.12_9
	ldr	r1, __arm_cp.12_10
	str	r1, [r0]
	b	.LBB12_40
.Ltmp100:
.LBB12_40:
	.loc	4 651 5                 @ ../../../Library/StdDriver/src/clk.c:651:5
	movs	r0, #4
	bl	CLK_WaitClockReady
	.loc	4 653 12                @ ../../../Library/StdDriver/src/clk.c:653:12
	str	r0, [sp]                @ 4-byte Spill
	bl	CLK_GetPLLClockFreq
	.loc	4 653 5 is_stmt 0       @ ../../../Library/StdDriver/src/clk.c:653:5
	str	r0, [sp, #84]
	b	.LBB12_41
.LBB12_41:
	.loc	4 655 1 is_stmt 1       @ ../../../Library/StdDriver/src/clk.c:655:1
	ldr	r0, [sp, #84]
	add	sp, #88
	pop	{r7, pc}
.Ltmp101:
	.p2align	2
@ %bb.42:
	.loc	4 0 1 is_stmt 0         @ ../../../Library/StdDriver/src/clk.c:0:1
__arm_cp.12_0:
	.long	1342177792              @ 0x50000200
.Lcpi_end27:
	.size	__arm_cp.12_0, .Lcpi_end27-__arm_cp.12_0
__arm_cp.12_1:
	.long	24000000                @ 0x16e3600
.Lcpi_end28:
	.size	__arm_cp.12_1, .Lcpi_end28-__arm_cp.12_1
__arm_cp.12_2:
	.long	12000000                @ 0xb71b00
.Lcpi_end29:
	.size	__arm_cp.12_2, .Lcpi_end29-__arm_cp.12_2
__arm_cp.12_3:
	.long	500000000               @ 0x1dcd6500
.Lcpi_end30:
	.size	__arm_cp.12_3, .Lcpi_end30-__arm_cp.12_3
__arm_cp.12_4:
	.long	200000001               @ 0xbebc201
.Lcpi_end31:
	.size	__arm_cp.12_4, .Lcpi_end31-__arm_cp.12_4
__arm_cp.12_5:
	.long	200000000               @ 0xbebc200
.Lcpi_end32:
	.size	__arm_cp.12_5, .Lcpi_end32-__arm_cp.12_5
__arm_cp.12_6:
	.long	100000001               @ 0x5f5e101
.Lcpi_end33:
	.size	__arm_cp.12_6, .Lcpi_end33-__arm_cp.12_6
__arm_cp.12_7:
	.long	100000000               @ 0x5f5e100
.Lcpi_end34:
	.size	__arm_cp.12_7, .Lcpi_end34-__arm_cp.12_7
__arm_cp.12_8:
	.long	50000000                @ 0x2faf080
.Lcpi_end35:
	.size	__arm_cp.12_8, .Lcpi_end35-__arm_cp.12_8
__arm_cp.12_9:
	.long	1342177824              @ 0x50000220
.Lcpi_end36:
	.size	__arm_cp.12_9, .Lcpi_end36-__arm_cp.12_9
__arm_cp.12_10:
	.long	540694                  @ 0x84016
.Lcpi_end37:
	.size	__arm_cp.12_10, .Lcpi_end37-__arm_cp.12_10
__arm_cp.12_11:
	.long	16430                   @ 0x402e
.Lcpi_end38:
	.size	__arm_cp.12_11, .Lcpi_end38-__arm_cp.12_11
__arm_cp.12_12:
	.long	4294966272              @ 0xfffffc00
.Lcpi_end39:
	.size	__arm_cp.12_12, .Lcpi_end39-__arm_cp.12_12
__arm_cp.12_13:
	.long	1600001                 @ 0x186a01
.Lcpi_end40:
	.size	__arm_cp.12_13, .Lcpi_end40-__arm_cp.12_13
__arm_cp.12_14:
	.long	15999999                @ 0xf423ff
.Lcpi_end41:
	.size	__arm_cp.12_14, .Lcpi_end41-__arm_cp.12_14
__arm_cp.12_15:
	.long	513                     @ 0x201
.Lcpi_end42:
	.size	__arm_cp.12_15, .Lcpi_end42-__arm_cp.12_15
.Lfunc_end12:
	.size	CLK_EnablePLL, .Lfunc_end12-CLK_EnablePLL
	.cfi_endproc
	.cantunwind
	.fnend
                                        @ -- End function
	.section	.text.CLK_SetHCLK,"ax",%progbits
	.hidden	CLK_SetHCLK             @ -- Begin function CLK_SetHCLK
	.globl	CLK_SetHCLK
	.p2align	2
	.type	CLK_SetHCLK,%function
	.code	16                      @ @CLK_SetHCLK
	.thumb_func
CLK_SetHCLK:
.Lfunc_begin13:
	.loc	4 259 0 is_stmt 1       @ ../../../Library/StdDriver/src/clk.c:259:0
	.fnstart
	.cfi_startproc
@ %bb.0:
	.save	{r4, r5, r6, lr}
	push	{r4, r5, r6, lr}
	.cfi_def_cfa_offset 16
	.cfi_offset lr, -4
	.cfi_offset r6, -8
	.cfi_offset r5, -12
	.cfi_offset r4, -16
	.pad	#32
	sub	sp, #32
	.cfi_def_cfa_offset 48
	mov	r2, r1
	mov	r3, r0
	str	r0, [sp, #28]
	str	r1, [sp, #24]
.Ltmp102:
	.loc	4 263 23 prologue_end   @ ../../../Library/StdDriver/src/clk.c:263:23
	ldr	r0, __arm_cp.13_0
	ldr	r0, [r0]
	movs	r1, #16
	.loc	4 263 30 is_stmt 0      @ ../../../Library/StdDriver/src/clk.c:263:30
	ands	r0, r1
	.loc	4 263 16                @ ../../../Library/StdDriver/src/clk.c:263:16
	str	r0, [sp, #20]
	.loc	4 263 23                @ ../../../Library/StdDriver/src/clk.c:263:23
	ldr	r0, __arm_cp.13_1
	.loc	4 266 17 is_stmt 1      @ ../../../Library/StdDriver/src/clk.c:266:17
	ldr	r4, [r0]
	movs	r5, #4
	orrs	r4, r5
	str	r4, [r0]
	.loc	4 267 5                 @ ../../../Library/StdDriver/src/clk.c:267:5
	mov	r0, r1
	str	r2, [sp, #16]           @ 4-byte Spill
	str	r3, [sp, #12]           @ 4-byte Spill
	str	r5, [sp, #8]            @ 4-byte Spill
	bl	CLK_WaitClockReady
	.loc	4 268 26                @ ../../../Library/StdDriver/src/clk.c:268:26
	ldr	r1, __arm_cp.13_2
	ldr	r2, [r1]
	.loc	4 268 34 is_stmt 0      @ ../../../Library/StdDriver/src/clk.c:268:34
	movs	r3, #7
	mvns	r3, r3
	ands	r2, r3
	.loc	4 268 64                @ ../../../Library/StdDriver/src/clk.c:268:64
	ldr	r4, [sp, #8]            @ 4-byte Reload
	orrs	r2, r4
	.loc	4 268 18                @ ../../../Library/StdDriver/src/clk.c:268:18
	str	r2, [r1]
	.loc	4 271 26 is_stmt 1      @ ../../../Library/StdDriver/src/clk.c:271:26
	ldr	r2, __arm_cp.13_3
	ldr	r5, [r2]
	.loc	4 271 34 is_stmt 0      @ ../../../Library/StdDriver/src/clk.c:271:34
	movs	r6, #15
	bics	r5, r6
	.loc	4 271 66                @ ../../../Library/StdDriver/src/clk.c:271:66
	ldr	r6, [sp, #24]
	.loc	4 271 64                @ ../../../Library/StdDriver/src/clk.c:271:64
	orrs	r5, r6
	.loc	4 271 18                @ ../../../Library/StdDriver/src/clk.c:271:18
	str	r5, [r2]
	.loc	4 274 26 is_stmt 1      @ ../../../Library/StdDriver/src/clk.c:274:26
	ldr	r2, [r1]
	.loc	4 274 34 is_stmt 0      @ ../../../Library/StdDriver/src/clk.c:274:34
	ands	r2, r3
	.loc	4 274 66                @ ../../../Library/StdDriver/src/clk.c:274:66
	ldr	r3, [sp, #28]
	.loc	4 274 64                @ ../../../Library/StdDriver/src/clk.c:274:64
	orrs	r2, r3
	.loc	4 274 18                @ ../../../Library/StdDriver/src/clk.c:274:18
	str	r2, [r1]
	.loc	4 277 5 is_stmt 1       @ ../../../Library/StdDriver/src/clk.c:277:5
	str	r0, [sp, #4]            @ 4-byte Spill
	bl	SystemCoreClockUpdate
.Ltmp103:
	.loc	4 280 8                 @ ../../../Library/StdDriver/src/clk.c:280:8
	ldr	r0, [sp, #20]
.Ltmp104:
	.loc	4 280 8 is_stmt 0       @ ../../../Library/StdDriver/src/clk.c:280:8
	cmp	r0, #0
	bne	.LBB13_2
	b	.LBB13_1
.LBB13_1:
.Ltmp105:
	.loc	4 281 21 is_stmt 1      @ ../../../Library/StdDriver/src/clk.c:281:21
	ldr	r0, __arm_cp.13_1
	ldr	r1, [r0]
	movs	r2, #4
	bics	r1, r2
	str	r1, [r0]
	.loc	4 281 9 is_stmt 0       @ ../../../Library/StdDriver/src/clk.c:281:9
	b	.LBB13_2
.Ltmp106:
.LBB13_2:
	.loc	4 282 1 is_stmt 1       @ ../../../Library/StdDriver/src/clk.c:282:1
	add	sp, #32
	pop	{r4, r5, r6, pc}
.Ltmp107:
	.p2align	2
@ %bb.3:
	.loc	4 0 1 is_stmt 0         @ ../../../Library/StdDriver/src/clk.c:0:1
__arm_cp.13_0:
	.long	1342177804              @ 0x5000020c
.Lcpi_end43:
	.size	__arm_cp.13_0, .Lcpi_end43-__arm_cp.13_0
__arm_cp.13_1:
	.long	1342177792              @ 0x50000200
.Lcpi_end44:
	.size	__arm_cp.13_1, .Lcpi_end44-__arm_cp.13_1
__arm_cp.13_2:
	.long	1342177808              @ 0x50000210
.Lcpi_end45:
	.size	__arm_cp.13_2, .Lcpi_end45-__arm_cp.13_2
__arm_cp.13_3:
	.long	1342177816              @ 0x50000218
.Lcpi_end46:
	.size	__arm_cp.13_3, .Lcpi_end46-__arm_cp.13_3
.Lfunc_end13:
	.size	CLK_SetHCLK, .Lfunc_end13-CLK_SetHCLK
	.cfi_endproc
	.cantunwind
	.fnend
                                        @ -- End function
	.section	.text.CLK_SetModuleClock,"ax",%progbits
	.hidden	CLK_SetModuleClock      @ -- Begin function CLK_SetModuleClock
	.globl	CLK_SetModuleClock
	.p2align	2
	.type	CLK_SetModuleClock,%function
	.code	16                      @ @CLK_SetModuleClock
	.thumb_func
CLK_SetModuleClock:
.Lfunc_begin14:
	.loc	4 354 0 is_stmt 1       @ ../../../Library/StdDriver/src/clk.c:354:0
	.fnstart
	.cfi_startproc
@ %bb.0:
	.save	{r4, r5, r7, lr}
	push	{r4, r5, r7, lr}
	.cfi_def_cfa_offset 16
	.cfi_offset lr, -4
	.cfi_offset r7, -8
	.cfi_offset r5, -12
	.cfi_offset r4, -16
	.pad	#56
	sub	sp, #56
	.cfi_def_cfa_offset 72
	mov	r3, r2
	mov	r4, r1
	mov	r5, r0
	str	r0, [sp, #52]
	str	r1, [sp, #48]
	str	r2, [sp, #44]
	movs	r0, #0
.Ltmp108:
	.loc	4 355 14 prologue_end   @ ../../../Library/StdDriver/src/clk.c:355:14
	str	r0, [sp, #40]
	.loc	4 355 26 is_stmt 0      @ ../../../Library/StdDriver/src/clk.c:355:26
	str	r0, [sp, #36]
	.loc	4 356 14 is_stmt 1      @ ../../../Library/StdDriver/src/clk.c:356:14
	ldr	r0, __arm_cp.14_0
	ldr	r1, [r0, #12]
	str	r1, [sp, #32]
	ldr	r1, [r0, #8]
	str	r1, [sp, #28]
	ldr	r1, [r0, #4]
	str	r1, [sp, #24]
	ldr	r0, [r0]
	str	r0, [sp, #20]
	.loc	4 357 14                @ ../../../Library/StdDriver/src/clk.c:357:14
	ldr	r0, __arm_cp.14_1
	ldr	r1, [r0, #4]
	str	r1, [sp, #16]
	ldr	r0, [r0]
	str	r0, [sp, #12]
.Ltmp109:
	.loc	4 359 8                 @ ../../../Library/StdDriver/src/clk.c:359:8
	ldr	r0, [sp, #52]
	lsrs	r0, r0, #10
.Ltmp110:
	.loc	4 359 8 is_stmt 0       @ ../../../Library/StdDriver/src/clk.c:359:8
	lsls	r0, r0, #24
	cmp	r0, #0
	str	r3, [sp, #8]            @ 4-byte Spill
	str	r4, [sp, #4]            @ 4-byte Spill
	str	r5, [sp]                @ 4-byte Spill
	beq	.LBB14_2
	b	.LBB14_1
.LBB14_1:
	.loc	4 0 8                   @ ../../../Library/StdDriver/src/clk.c:0:8
	add	r0, sp, #52
.Ltmp111:
	.loc	4 362 55 is_stmt 1      @ ../../../Library/StdDriver/src/clk.c:362:55
	ldrh	r0, [r0, #2]
	movs	r1, #12
	.loc	4 362 45 is_stmt 0      @ ../../../Library/StdDriver/src/clk.c:362:45
	ands	r0, r1
	add	r1, sp, #12
	ldr	r0, [r1, r0]
	.loc	4 362 42                @ ../../../Library/StdDriver/src/clk.c:362:42
	ldr	r1, __arm_cp.14_2
	adds	r0, r0, r1
	.loc	4 362 16                @ ../../../Library/StdDriver/src/clk.c:362:16
	str	r0, [sp, #36]
	.loc	4 364 24 is_stmt 1      @ ../../../Library/StdDriver/src/clk.c:364:24
	ldr	r0, [sp, #36]
	ldr	r0, [r0]
	.loc	4 364 41 is_stmt 0      @ ../../../Library/StdDriver/src/clk.c:364:41
	ldr	r1, [sp, #52]
	lsrs	r2, r1, #10
	uxtb	r2, r2
	.loc	4 364 76                @ ../../../Library/StdDriver/src/clk.c:364:76
	lsrs	r1, r1, #5
	movs	r3, #31
	ands	r1, r3
	.loc	4 364 73                @ ../../../Library/StdDriver/src/clk.c:364:73
	lsls	r2, r1
	.loc	4 364 36                @ ../../../Library/StdDriver/src/clk.c:364:36
	bics	r0, r2
	.loc	4 364 113               @ ../../../Library/StdDriver/src/clk.c:364:113
	ldr	r1, [sp, #44]
	.loc	4 364 111               @ ../../../Library/StdDriver/src/clk.c:364:111
	orrs	r0, r1
	.loc	4 364 9                 @ ../../../Library/StdDriver/src/clk.c:364:9
	ldr	r1, [sp, #36]
	.loc	4 364 21                @ ../../../Library/StdDriver/src/clk.c:364:21
	str	r0, [r1]
	.loc	4 365 5 is_stmt 1       @ ../../../Library/StdDriver/src/clk.c:365:5
	b	.LBB14_2
.Ltmp112:
.LBB14_2:
	.loc	4 367 8                 @ ../../../Library/StdDriver/src/clk.c:367:8
	ldr	r0, [sp, #52]
	lsrs	r0, r0, #25
.Ltmp113:
	.loc	4 367 8 is_stmt 0       @ ../../../Library/StdDriver/src/clk.c:367:8
	lsls	r0, r0, #29
	cmp	r0, #0
	beq	.LBB14_4
	b	.LBB14_3
.LBB14_3:
.Ltmp114:
	.loc	4 370 55 is_stmt 1      @ ../../../Library/StdDriver/src/clk.c:370:55
	ldr	r0, [sp, #52]
	lsrs	r0, r0, #26
	movs	r1, #12
	.loc	4 370 45 is_stmt 0      @ ../../../Library/StdDriver/src/clk.c:370:45
	ands	r0, r1
	add	r1, sp, #20
	ldr	r0, [r1, r0]
	.loc	4 370 42                @ ../../../Library/StdDriver/src/clk.c:370:42
	ldr	r1, __arm_cp.14_3
	adds	r0, r0, r1
	.loc	4 370 16                @ ../../../Library/StdDriver/src/clk.c:370:16
	str	r0, [sp, #40]
	.loc	4 372 24 is_stmt 1      @ ../../../Library/StdDriver/src/clk.c:372:24
	ldr	r0, [sp, #40]
	ldr	r0, [r0]
	.loc	4 372 41 is_stmt 0      @ ../../../Library/StdDriver/src/clk.c:372:41
	ldr	r1, [sp, #52]
	lsrs	r2, r1, #25
	movs	r3, #7
	ands	r2, r3
	.loc	4 372 76                @ ../../../Library/StdDriver/src/clk.c:372:76
	lsrs	r1, r1, #20
	movs	r3, #31
	ands	r1, r3
	.loc	4 372 73                @ ../../../Library/StdDriver/src/clk.c:372:73
	lsls	r2, r1
	.loc	4 372 36                @ ../../../Library/StdDriver/src/clk.c:372:36
	bics	r0, r2
	.loc	4 372 113               @ ../../../Library/StdDriver/src/clk.c:372:113
	ldr	r1, [sp, #48]
	.loc	4 372 111               @ ../../../Library/StdDriver/src/clk.c:372:111
	orrs	r0, r1
	.loc	4 372 9                 @ ../../../Library/StdDriver/src/clk.c:372:9
	ldr	r1, [sp, #40]
	.loc	4 372 21                @ ../../../Library/StdDriver/src/clk.c:372:21
	str	r0, [r1]
	.loc	4 373 5 is_stmt 1       @ ../../../Library/StdDriver/src/clk.c:373:5
	b	.LBB14_4
.Ltmp115:
.LBB14_4:
	.loc	4 374 1                 @ ../../../Library/StdDriver/src/clk.c:374:1
	add	sp, #56
	pop	{r4, r5, r7, pc}
.Ltmp116:
	.p2align	2
@ %bb.5:
	.loc	4 0 1 is_stmt 0         @ ../../../Library/StdDriver/src/clk.c:0:1
__arm_cp.14_0:
	.long	.LCLK_SetModuleClock.u32SelTbl
.Lcpi_end47:
	.size	__arm_cp.14_0, .Lcpi_end47-__arm_cp.14_0
__arm_cp.14_1:
	.long	.LCLK_SetModuleClock.u32DivTbl
.Lcpi_end48:
	.size	__arm_cp.14_1, .Lcpi_end48-__arm_cp.14_1
__arm_cp.14_2:
	.long	1342177816              @ 0x50000218
.Lcpi_end49:
	.size	__arm_cp.14_2, .Lcpi_end49-__arm_cp.14_2
__arm_cp.14_3:
	.long	1342177808              @ 0x50000210
.Lcpi_end50:
	.size	__arm_cp.14_3, .Lcpi_end50-__arm_cp.14_3
.Lfunc_end14:
	.size	CLK_SetModuleClock, .Lfunc_end14-CLK_SetModuleClock
	.cfi_endproc
	.cantunwind
	.fnend
                                        @ -- End function
	.section	.text.CLK_SetSysTickClockSrc,"ax",%progbits
	.hidden	CLK_SetSysTickClockSrc  @ -- Begin function CLK_SetSysTickClockSrc
	.globl	CLK_SetSysTickClockSrc
	.p2align	2
	.type	CLK_SetSysTickClockSrc,%function
	.code	16                      @ @CLK_SetSysTickClockSrc
	.thumb_func
CLK_SetSysTickClockSrc:
.Lfunc_begin15:
	.loc	4 389 0 is_stmt 1       @ ../../../Library/StdDriver/src/clk.c:389:0
	.fnstart
	.cfi_startproc
@ %bb.0:
	.pad	#8
	sub	sp, #8
	.cfi_def_cfa_offset 8
	mov	r1, r0
	str	r0, [sp, #4]
.Ltmp117:
	.loc	4 390 26 prologue_end   @ ../../../Library/StdDriver/src/clk.c:390:26
	ldr	r0, __arm_cp.15_0
	ldr	r2, [r0]
	.loc	4 390 34 is_stmt 0      @ ../../../Library/StdDriver/src/clk.c:390:34
	movs	r3, #56
	bics	r2, r3
	.loc	4 390 65                @ ../../../Library/StdDriver/src/clk.c:390:65
	ldr	r3, [sp, #4]
	.loc	4 390 63                @ ../../../Library/StdDriver/src/clk.c:390:63
	orrs	r2, r3
	.loc	4 390 18                @ ../../../Library/StdDriver/src/clk.c:390:18
	str	r2, [r0]
	.loc	4 391 1 is_stmt 1       @ ../../../Library/StdDriver/src/clk.c:391:1
	str	r1, [sp]                @ 4-byte Spill
	add	sp, #8
	bx	lr
.Ltmp118:
	.p2align	2
@ %bb.1:
	.loc	4 0 1 is_stmt 0         @ ../../../Library/StdDriver/src/clk.c:0:1
__arm_cp.15_0:
	.long	1342177808              @ 0x50000210
.Lcpi_end51:
	.size	__arm_cp.15_0, .Lcpi_end51-__arm_cp.15_0
.Lfunc_end15:
	.size	CLK_SetSysTickClockSrc, .Lfunc_end15-CLK_SetSysTickClockSrc
	.cfi_endproc
	.cantunwind
	.fnend
                                        @ -- End function
	.section	.text.CLK_EnableXtalRC,"ax",%progbits
	.hidden	CLK_EnableXtalRC        @ -- Begin function CLK_EnableXtalRC
	.globl	CLK_EnableXtalRC
	.p2align	2
	.type	CLK_EnableXtalRC,%function
	.code	16                      @ @CLK_EnableXtalRC
	.thumb_func
CLK_EnableXtalRC:
.Lfunc_begin16:
	.loc	4 405 0 is_stmt 1       @ ../../../Library/StdDriver/src/clk.c:405:0
	.fnstart
	.cfi_startproc
@ %bb.0:
	.pad	#8
	sub	sp, #8
	.cfi_def_cfa_offset 8
	mov	r1, r0
	str	r0, [sp, #4]
.Ltmp119:
	.loc	4 406 20 prologue_end   @ ../../../Library/StdDriver/src/clk.c:406:20
	ldr	r0, [sp, #4]
	.loc	4 406 17 is_stmt 0      @ ../../../Library/StdDriver/src/clk.c:406:17
	ldr	r2, __arm_cp.16_0
	ldr	r3, [r2]
	orrs	r3, r0
	str	r3, [r2]
	.loc	4 407 1 is_stmt 1       @ ../../../Library/StdDriver/src/clk.c:407:1
	str	r1, [sp]                @ 4-byte Spill
	add	sp, #8
	bx	lr
.Ltmp120:
	.p2align	2
@ %bb.1:
	.loc	4 0 1 is_stmt 0         @ ../../../Library/StdDriver/src/clk.c:0:1
__arm_cp.16_0:
	.long	1342177792              @ 0x50000200
.Lcpi_end52:
	.size	__arm_cp.16_0, .Lcpi_end52-__arm_cp.16_0
.Lfunc_end16:
	.size	CLK_EnableXtalRC, .Lfunc_end16-CLK_EnableXtalRC
	.cfi_endproc
	.cantunwind
	.fnend
                                        @ -- End function
	.section	.text.CLK_DisableXtalRC,"ax",%progbits
	.hidden	CLK_DisableXtalRC       @ -- Begin function CLK_DisableXtalRC
	.globl	CLK_DisableXtalRC
	.p2align	2
	.type	CLK_DisableXtalRC,%function
	.code	16                      @ @CLK_DisableXtalRC
	.thumb_func
CLK_DisableXtalRC:
.Lfunc_begin17:
	.loc	4 421 0 is_stmt 1       @ ../../../Library/StdDriver/src/clk.c:421:0
	.fnstart
	.cfi_startproc
@ %bb.0:
	.pad	#8
	sub	sp, #8
	.cfi_def_cfa_offset 8
	mov	r1, r0
	str	r0, [sp, #4]
.Ltmp121:
	.loc	4 422 21 prologue_end   @ ../../../Library/StdDriver/src/clk.c:422:21
	ldr	r0, [sp, #4]
	.loc	4 422 17 is_stmt 0      @ ../../../Library/StdDriver/src/clk.c:422:17
	ldr	r2, __arm_cp.17_0
	ldr	r3, [r2]
	bics	r3, r0
	str	r3, [r2]
	.loc	4 423 1 is_stmt 1       @ ../../../Library/StdDriver/src/clk.c:423:1
	str	r1, [sp]                @ 4-byte Spill
	add	sp, #8
	bx	lr
.Ltmp122:
	.p2align	2
@ %bb.1:
	.loc	4 0 1 is_stmt 0         @ ../../../Library/StdDriver/src/clk.c:0:1
__arm_cp.17_0:
	.long	1342177792              @ 0x50000200
.Lcpi_end53:
	.size	__arm_cp.17_0, .Lcpi_end53-__arm_cp.17_0
.Lfunc_end17:
	.size	CLK_DisableXtalRC, .Lfunc_end17-CLK_DisableXtalRC
	.cfi_endproc
	.cantunwind
	.fnend
                                        @ -- End function
	.section	.text.CLK_EnableModuleClock,"ax",%progbits
	.hidden	CLK_EnableModuleClock   @ -- Begin function CLK_EnableModuleClock
	.globl	CLK_EnableModuleClock
	.p2align	2
	.type	CLK_EnableModuleClock,%function
	.code	16                      @ @CLK_EnableModuleClock
	.thumb_func
CLK_EnableModuleClock:
.Lfunc_begin18:
	.loc	4 471 0 is_stmt 1       @ ../../../Library/StdDriver/src/clk.c:471:0
	.fnstart
	.cfi_startproc
@ %bb.0:
	.save	{r4, lr}
	push	{r4, lr}
	.cfi_def_cfa_offset 8
	.cfi_offset lr, -4
	.cfi_offset r4, -8
	.pad	#20
	sub	sp, #20
	.cfi_def_cfa_offset 28
	mov	r1, r0
	str	r0, [sp, #16]
.Ltmp123:
	.loc	4 472 14 prologue_end   @ ../../../Library/StdDriver/src/clk.c:472:14
	ldr	r0, __arm_cp.18_0
	ldr	r2, [r0, #8]
	str	r2, [sp, #12]
	ldr	r2, [r0, #4]
	str	r2, [sp, #8]
	ldr	r0, [r0]
	str	r0, [sp, #4]
	.loc	4 474 104               @ ../../../Library/StdDriver/src/clk.c:474:104
	ldr	r0, [sp, #16]
	movs	r2, #31
	mov	r3, r0
	ands	r3, r2
	.loc	4 474 101 is_stmt 0     @ ../../../Library/StdDriver/src/clk.c:474:101
	movs	r2, #1
	lsls	r2, r3
	.loc	4 474 54                @ ../../../Library/StdDriver/src/clk.c:474:54
	lsrs	r0, r0, #28
	movs	r3, #12
	.loc	4 474 64                @ ../../../Library/StdDriver/src/clk.c:474:64
	ands	r0, r3
	add	r3, sp, #4
	.loc	4 474 54                @ ../../../Library/StdDriver/src/clk.c:474:54
	ldr	r0, [r3, r0]
	.loc	4 474 51                @ ../../../Library/StdDriver/src/clk.c:474:51
	ldr	r3, __arm_cp.18_1
	.loc	4 474 96                @ ../../../Library/StdDriver/src/clk.c:474:96
	ldr	r4, [r0, r3]
	orrs	r4, r2
	str	r4, [r0, r3]
	.loc	4 475 1 is_stmt 1       @ ../../../Library/StdDriver/src/clk.c:475:1
	str	r1, [sp]                @ 4-byte Spill
	add	sp, #20
	pop	{r4, pc}
.Ltmp124:
	.p2align	2
@ %bb.1:
	.loc	4 0 1 is_stmt 0         @ ../../../Library/StdDriver/src/clk.c:0:1
__arm_cp.18_0:
	.long	.LCLK_EnableModuleClock.u32ClkTbl
.Lcpi_end54:
	.size	__arm_cp.18_0, .Lcpi_end54-__arm_cp.18_0
__arm_cp.18_1:
	.long	1342177796              @ 0x50000204
.Lcpi_end55:
	.size	__arm_cp.18_1, .Lcpi_end55-__arm_cp.18_1
.Lfunc_end18:
	.size	CLK_EnableModuleClock, .Lfunc_end18-CLK_EnableModuleClock
	.cfi_endproc
	.cantunwind
	.fnend
                                        @ -- End function
	.section	.text.CLK_DisableModuleClock,"ax",%progbits
	.hidden	CLK_DisableModuleClock  @ -- Begin function CLK_DisableModuleClock
	.globl	CLK_DisableModuleClock
	.p2align	2
	.type	CLK_DisableModuleClock,%function
	.code	16                      @ @CLK_DisableModuleClock
	.thumb_func
CLK_DisableModuleClock:
.Lfunc_begin19:
	.loc	4 523 0 is_stmt 1       @ ../../../Library/StdDriver/src/clk.c:523:0
	.fnstart
	.cfi_startproc
@ %bb.0:
	.save	{r4, lr}
	push	{r4, lr}
	.cfi_def_cfa_offset 8
	.cfi_offset lr, -4
	.cfi_offset r4, -8
	.pad	#20
	sub	sp, #20
	.cfi_def_cfa_offset 28
	mov	r1, r0
	str	r0, [sp, #16]
.Ltmp125:
	.loc	4 524 14 prologue_end   @ ../../../Library/StdDriver/src/clk.c:524:14
	ldr	r0, __arm_cp.19_0
	ldr	r2, [r0, #8]
	str	r2, [sp, #12]
	ldr	r2, [r0, #4]
	str	r2, [sp, #8]
	ldr	r0, [r0]
	str	r0, [sp, #4]
	.loc	4 526 106               @ ../../../Library/StdDriver/src/clk.c:526:106
	ldr	r0, [sp, #16]
	movs	r2, #31
	mov	r3, r0
	ands	r3, r2
	.loc	4 526 103 is_stmt 0     @ ../../../Library/StdDriver/src/clk.c:526:103
	movs	r2, #1
	lsls	r2, r3
	.loc	4 526 54                @ ../../../Library/StdDriver/src/clk.c:526:54
	lsrs	r0, r0, #28
	movs	r3, #12
	.loc	4 526 64                @ ../../../Library/StdDriver/src/clk.c:526:64
	ands	r0, r3
	add	r3, sp, #4
	.loc	4 526 54                @ ../../../Library/StdDriver/src/clk.c:526:54
	ldr	r0, [r3, r0]
	.loc	4 526 51                @ ../../../Library/StdDriver/src/clk.c:526:51
	ldr	r3, __arm_cp.19_1
	.loc	4 526 96                @ ../../../Library/StdDriver/src/clk.c:526:96
	ldr	r4, [r0, r3]
	bics	r4, r2
	str	r4, [r0, r3]
	.loc	4 527 1 is_stmt 1       @ ../../../Library/StdDriver/src/clk.c:527:1
	str	r1, [sp]                @ 4-byte Spill
	add	sp, #20
	pop	{r4, pc}
.Ltmp126:
	.p2align	2
@ %bb.1:
	.loc	4 0 1 is_stmt 0         @ ../../../Library/StdDriver/src/clk.c:0:1
__arm_cp.19_0:
	.long	.LCLK_DisableModuleClock.u32ClkTbl
.Lcpi_end56:
	.size	__arm_cp.19_0, .Lcpi_end56-__arm_cp.19_0
__arm_cp.19_1:
	.long	1342177796              @ 0x50000204
.Lcpi_end57:
	.size	__arm_cp.19_1, .Lcpi_end57-__arm_cp.19_1
.Lfunc_end19:
	.size	CLK_DisableModuleClock, .Lfunc_end19-CLK_DisableModuleClock
	.cfi_endproc
	.cantunwind
	.fnend
                                        @ -- End function
	.section	.text.CLK_DisablePLL,"ax",%progbits
	.hidden	CLK_DisablePLL          @ -- Begin function CLK_DisablePLL
	.globl	CLK_DisablePLL
	.p2align	2
	.type	CLK_DisablePLL,%function
	.code	16                      @ @CLK_DisablePLL
	.thumb_func
CLK_DisablePLL:
.Lfunc_begin20:
	.loc	4 665 0 is_stmt 1       @ ../../../Library/StdDriver/src/clk.c:665:0
	.fnstart
	.cfi_startproc
@ %bb.0:
	.loc	4 666 17 prologue_end   @ ../../../Library/StdDriver/src/clk.c:666:17
	ldr	r0, __arm_cp.20_0
	ldr	r1, [r0]
	movs	r2, #1
	lsls	r2, r2, #16
	orrs	r1, r2
	str	r1, [r0]
	.loc	4 667 1                 @ ../../../Library/StdDriver/src/clk.c:667:1
	bx	lr
.Ltmp127:
	.p2align	2
@ %bb.1:
	.loc	4 0 1 is_stmt 0         @ ../../../Library/StdDriver/src/clk.c:0:1
__arm_cp.20_0:
	.long	1342177824              @ 0x50000220
.Lcpi_end58:
	.size	__arm_cp.20_0, .Lcpi_end58-__arm_cp.20_0
.Lfunc_end20:
	.size	CLK_DisablePLL, .Lfunc_end20-CLK_DisablePLL
	.cfi_endproc
	.cantunwind
	.fnend
                                        @ -- End function
	.section	.text.CLK_GetPLLClockFreq,"ax",%progbits
	.p2align	2               @ -- Begin function CLK_GetPLLClockFreq
	.type	CLK_GetPLLClockFreq,%function
	.code	16                      @ @CLK_GetPLLClockFreq
	.thumb_func
CLK_GetPLLClockFreq:
.Lfunc_begin21:
	.file	5 "../../../Library/StdDriver/inc" "clk.h"
	.loc	5 371 0 is_stmt 1       @ ../../../Library/StdDriver/inc\clk.h:371:0
	.fnstart
	.cfi_startproc
@ %bb.0:
	.pad	#32
	sub	sp, #32
	.cfi_def_cfa_offset 32
	movs	r0, #0
.Ltmp128:
	.loc	5 372 14 prologue_end   @ ../../../Library/StdDriver/inc\clk.h:372:14
	str	r0, [sp, #24]
	.loc	5 374 13                @ ../../../Library/StdDriver/inc\clk.h:374:13
	ldr	r0, __arm_cp.21_0
	str	r0, [sp]
	.loc	5 376 22                @ ../../../Library/StdDriver/inc\clk.h:376:22
	ldr	r0, __arm_cp.21_1
	ldr	r0, [r0]
	.loc	5 376 15 is_stmt 0      @ ../../../Library/StdDriver/inc\clk.h:376:15
	str	r0, [sp, #20]
	add	r0, sp, #20
	.loc	5 378 8 is_stmt 1       @ ../../../Library/StdDriver/inc\clk.h:378:8
	ldrb	r0, [r0, #2]
	movs	r1, #5
	tst	r0, r1
	beq	.LBB21_2
	b	.LBB21_1
.LBB21_1:
.Ltmp129:
	.loc	5 379 9                 @ ../../../Library/StdDriver/inc\clk.h:379:9
	movs	r0, #0
	str	r0, [sp, #28]
	b	.LBB21_8
.Ltmp130:
.LBB21_2:
	.loc	5 0 9 is_stmt 0         @ ../../../Library/StdDriver/inc\clk.h:0:9
	add	r0, sp, #20
	.loc	5 381 8 is_stmt 1       @ ../../../Library/StdDriver/inc\clk.h:381:8
	ldrb	r0, [r0, #2]
	lsls	r0, r0, #28
	cmp	r0, #0
	bpl	.LBB21_4
	b	.LBB21_3
.LBB21_3:
.Ltmp131:
	.loc	5 382 16                @ ../../../Library/StdDriver/inc\clk.h:382:16
	ldr	r0, __arm_cp.21_3
	str	r0, [sp, #16]
	.loc	5 382 9 is_stmt 0       @ ../../../Library/StdDriver/inc\clk.h:382:9
	b	.LBB21_5
.LBB21_4:
	.loc	5 384 16 is_stmt 1      @ ../../../Library/StdDriver/inc\clk.h:384:16
	ldr	r0, __arm_cp.21_2
	str	r0, [sp, #16]
	b	.LBB21_5
.Ltmp132:
.LBB21_5:
	.loc	5 0 16 is_stmt 0        @ ../../../Library/StdDriver/inc\clk.h:0:16
	add	r0, sp, #20
	.loc	5 386 8 is_stmt 1       @ ../../../Library/StdDriver/inc\clk.h:386:8
	ldrb	r0, [r0, #2]
	lsls	r0, r0, #30
	cmp	r0, #0
	bpl	.LBB21_7
	b	.LBB21_6
.LBB21_6:
.Ltmp133:
	.loc	5 387 16                @ ../../../Library/StdDriver/inc\clk.h:387:16
	ldr	r0, [sp, #16]
	.loc	5 387 9 is_stmt 0       @ ../../../Library/StdDriver/inc\clk.h:387:9
	str	r0, [sp, #28]
	b	.LBB21_8
.Ltmp134:
.LBB21_7:
	.loc	5 390 24 is_stmt 1      @ ../../../Library/StdDriver/inc\clk.h:390:24
	ldr	r0, [sp, #20]
	.loc	5 390 34 is_stmt 0      @ ../../../Library/StdDriver/inc\clk.h:390:34
	movw	r1, #49152
	ands	r0, r1
	.loc	5 390 59                @ ../../../Library/StdDriver/inc\clk.h:390:59
	lsrs	r0, r0, #14
	mov	r1, sp
	.loc	5 390 13                @ ../../../Library/StdDriver/inc\clk.h:390:13
	orrs	r1, r0
	ldrb	r0, [r1]
	.loc	5 390 11                @ ../../../Library/StdDriver/inc\clk.h:390:11
	str	r0, [sp, #4]
	.loc	5 391 15 is_stmt 1      @ ../../../Library/StdDriver/inc\clk.h:391:15
	ldr	r0, [sp, #20]
	.loc	5 391 25 is_stmt 0      @ ../../../Library/StdDriver/inc\clk.h:391:25
	ldr	r1, __arm_cp.21_4
	ands	r0, r1
	.loc	5 391 74                @ ../../../Library/StdDriver/inc\clk.h:391:74
	adds	r0, r0, #2
	.loc	5 391 11                @ ../../../Library/StdDriver/inc\clk.h:391:11
	str	r0, [sp, #12]
	.loc	5 392 15 is_stmt 1      @ ../../../Library/StdDriver/inc\clk.h:392:15
	ldr	r0, [sp, #20]
	.loc	5 392 25 is_stmt 0      @ ../../../Library/StdDriver/inc\clk.h:392:25
	movw	r1, #15872
	ands	r0, r1
	.loc	5 392 49                @ ../../../Library/StdDriver/inc\clk.h:392:49
	lsrs	r0, r0, #9
	.loc	5 392 74                @ ../../../Library/StdDriver/inc\clk.h:392:74
	adds	r0, r0, #2
	.loc	5 392 11                @ ../../../Library/StdDriver/inc\clk.h:392:11
	str	r0, [sp, #8]
	.loc	5 395 21 is_stmt 1      @ ../../../Library/StdDriver/inc\clk.h:395:21
	ldr	r0, [sp, #16]
	.loc	5 395 28 is_stmt 0      @ ../../../Library/StdDriver/inc\clk.h:395:28
	lsrs	r0, r0, #2
	.loc	5 395 36                @ ../../../Library/StdDriver/inc\clk.h:395:36
	ldr	r1, [sp, #12]
	.loc	5 395 34                @ ../../../Library/StdDriver/inc\clk.h:395:34
	muls	r1, r0, r1
	.loc	5 395 46                @ ../../../Library/StdDriver/inc\clk.h:395:46
	ldr	r0, [sp, #8]
	.loc	5 395 54                @ ../../../Library/StdDriver/inc\clk.h:395:54
	ldr	r2, [sp, #4]
	.loc	5 395 52                @ ../../../Library/StdDriver/inc\clk.h:395:52
	muls	r2, r0, r2
	.loc	5 395 43                @ ../../../Library/StdDriver/inc\clk.h:395:43
	udiv	r0, r1, r2
	.loc	5 395 61                @ ../../../Library/StdDriver/inc\clk.h:395:61
	lsls	r0, r0, #2
	.loc	5 395 16                @ ../../../Library/StdDriver/inc\clk.h:395:16
	str	r0, [sp, #24]
	.loc	5 397 12 is_stmt 1      @ ../../../Library/StdDriver/inc\clk.h:397:12
	ldr	r0, [sp, #24]
	.loc	5 397 5 is_stmt 0       @ ../../../Library/StdDriver/inc\clk.h:397:5
	str	r0, [sp, #28]
	b	.LBB21_8
.LBB21_8:
	.loc	5 398 1 is_stmt 1       @ ../../../Library/StdDriver/inc\clk.h:398:1
	ldr	r0, [sp, #28]
	add	sp, #32
	bx	lr
.Ltmp135:
	.p2align	2
@ %bb.9:
	.loc	5 0 1 is_stmt 0         @ ../../../Library/StdDriver/inc\clk.h:0:1
__arm_cp.21_0:
	.long	67240449                @ 0x4020201
.Lcpi_end59:
	.size	__arm_cp.21_0, .Lcpi_end59-__arm_cp.21_0
__arm_cp.21_1:
	.long	1342177824              @ 0x50000220
.Lcpi_end60:
	.size	__arm_cp.21_1, .Lcpi_end60-__arm_cp.21_1
__arm_cp.21_2:
	.long	12000000                @ 0xb71b00
.Lcpi_end61:
	.size	__arm_cp.21_2, .Lcpi_end61-__arm_cp.21_2
__arm_cp.21_3:
	.long	24000000                @ 0x16e3600
.Lcpi_end62:
	.size	__arm_cp.21_3, .Lcpi_end62-__arm_cp.21_3
__arm_cp.21_4:
	.long	511                     @ 0x1ff
.Lcpi_end63:
	.size	__arm_cp.21_4, .Lcpi_end63-__arm_cp.21_4
.Lfunc_end21:
	.size	CLK_GetPLLClockFreq, .Lfunc_end21-CLK_GetPLLClockFreq
	.cfi_endproc
	.cantunwind
	.fnend
                                        @ -- End function
	.section	.text.CLK_EnableSysTick,"ax",%progbits
	.hidden	CLK_EnableSysTick       @ -- Begin function CLK_EnableSysTick
	.globl	CLK_EnableSysTick
	.p2align	2
	.type	CLK_EnableSysTick,%function
	.code	16                      @ @CLK_EnableSysTick
	.thumb_func
CLK_EnableSysTick:
.Lfunc_begin22:
	.loc	4 709 0 is_stmt 1       @ ../../../Library/StdDriver/src/clk.c:709:0
	.fnstart
	.cfi_startproc
@ %bb.0:
	.pad	#16
	sub	sp, #16
	.cfi_def_cfa_offset 16
	mov	r2, r1
	mov	r3, r0
	str	r0, [sp, #12]
	str	r1, [sp, #8]
.Ltmp136:
	.loc	4 711 19 prologue_end   @ ../../../Library/StdDriver/src/clk.c:711:19
	ldr	r0, __arm_cp.22_0
	movs	r1, #0
	str	r1, [r0]
.Ltmp137:
	.loc	4 714 8                 @ ../../../Library/StdDriver/src/clk.c:714:8
	ldr	r0, [sp, #12]
.Ltmp138:
	.loc	4 714 8 is_stmt 0       @ ../../../Library/StdDriver/src/clk.c:714:8
	cmp	r0, #4
	str	r2, [sp, #4]            @ 4-byte Spill
	str	r3, [sp]                @ 4-byte Spill
	bne	.LBB22_2
	b	.LBB22_1
.LBB22_1:
.Ltmp139:
	.loc	4 715 23 is_stmt 1      @ ../../../Library/StdDriver/src/clk.c:715:23
	ldr	r0, __arm_cp.22_0
	ldr	r1, [r0]
	movs	r2, #4
	orrs	r1, r2
	str	r1, [r0]
	.loc	4 715 9 is_stmt 0       @ ../../../Library/StdDriver/src/clk.c:715:9
	b	.LBB22_3
.LBB22_2:
	.loc	4 717 30 is_stmt 1      @ ../../../Library/StdDriver/src/clk.c:717:30
	ldr	r0, __arm_cp.22_1
	ldr	r1, [r0]
	.loc	4 717 38 is_stmt 0      @ ../../../Library/StdDriver/src/clk.c:717:38
	movs	r2, #56
	bics	r1, r2
	.loc	4 717 69                @ ../../../Library/StdDriver/src/clk.c:717:69
	ldr	r2, [sp, #12]
	.loc	4 717 67                @ ../../../Library/StdDriver/src/clk.c:717:67
	orrs	r1, r2
	.loc	4 717 22                @ ../../../Library/StdDriver/src/clk.c:717:22
	str	r1, [r0]
	b	.LBB22_3
.Ltmp140:
.LBB22_3:
	.loc	4 720 21 is_stmt 1      @ ../../../Library/StdDriver/src/clk.c:720:21
	ldr	r0, [sp, #8]
	.loc	4 720 19 is_stmt 0      @ ../../../Library/StdDriver/src/clk.c:720:19
	ldr	r1, __arm_cp.22_2
	str	r0, [r1]
	.loc	4 723 18 is_stmt 1      @ ../../../Library/StdDriver/src/clk.c:723:18
	ldr	r0, __arm_cp.22_3
	movs	r1, #0
	str	r1, [r0]
	.loc	4 720 19                @ ../../../Library/StdDriver/src/clk.c:720:19
	ldr	r0, __arm_cp.22_0
	.loc	4 726 19                @ ../../../Library/StdDriver/src/clk.c:726:19
	ldr	r1, [r0]
	movs	r2, #3
	orrs	r1, r2
	str	r1, [r0]
	.loc	4 727 1                 @ ../../../Library/StdDriver/src/clk.c:727:1
	add	sp, #16
	bx	lr
.Ltmp141:
	.p2align	2
@ %bb.4:
	.loc	4 0 1 is_stmt 0         @ ../../../Library/StdDriver/src/clk.c:0:1
__arm_cp.22_0:
	.long	3758153744              @ 0xe000e010
.Lcpi_end64:
	.size	__arm_cp.22_0, .Lcpi_end64-__arm_cp.22_0
__arm_cp.22_1:
	.long	1342177808              @ 0x50000210
.Lcpi_end65:
	.size	__arm_cp.22_1, .Lcpi_end65-__arm_cp.22_1
__arm_cp.22_2:
	.long	3758153748              @ 0xe000e014
.Lcpi_end66:
	.size	__arm_cp.22_2, .Lcpi_end66-__arm_cp.22_2
__arm_cp.22_3:
	.long	3758153752              @ 0xe000e018
.Lcpi_end67:
	.size	__arm_cp.22_3, .Lcpi_end67-__arm_cp.22_3
.Lfunc_end22:
	.size	CLK_EnableSysTick, .Lfunc_end22-CLK_EnableSysTick
	.cfi_endproc
	.cantunwind
	.fnend
                                        @ -- End function
	.section	.text.CLK_DisableSysTick,"ax",%progbits
	.hidden	CLK_DisableSysTick      @ -- Begin function CLK_DisableSysTick
	.globl	CLK_DisableSysTick
	.p2align	2
	.type	CLK_DisableSysTick,%function
	.code	16                      @ @CLK_DisableSysTick
	.thumb_func
CLK_DisableSysTick:
.Lfunc_begin23:
	.loc	4 736 0 is_stmt 1       @ ../../../Library/StdDriver/src/clk.c:736:0
	.fnstart
	.cfi_startproc
@ %bb.0:
	.loc	4 738 19 prologue_end   @ ../../../Library/StdDriver/src/clk.c:738:19
	ldr	r0, __arm_cp.23_0
	movs	r1, #0
	str	r1, [r0]
	.loc	4 739 1                 @ ../../../Library/StdDriver/src/clk.c:739:1
	bx	lr
.Ltmp142:
	.p2align	2
@ %bb.1:
	.loc	4 0 1 is_stmt 0         @ ../../../Library/StdDriver/src/clk.c:0:1
__arm_cp.23_0:
	.long	3758153744              @ 0xe000e010
.Lcpi_end68:
	.size	__arm_cp.23_0, .Lcpi_end68-__arm_cp.23_0
.Lfunc_end23:
	.size	CLK_DisableSysTick, .Lfunc_end23-CLK_DisableSysTick
	.cfi_endproc
	.cantunwind
	.fnend
                                        @ -- End function
	.section	.text.CLK_GetModuleClockSource,"ax",%progbits
	.hidden	CLK_GetModuleClockSource @ -- Begin function CLK_GetModuleClockSource
	.globl	CLK_GetModuleClockSource
	.p2align	2
	.type	CLK_GetModuleClockSource,%function
	.code	16                      @ @CLK_GetModuleClockSource
	.thumb_func
CLK_GetModuleClockSource:
.Lfunc_begin24:
	.loc	4 764 0 is_stmt 1       @ ../../../Library/StdDriver/src/clk.c:764:0
	.fnstart
	.cfi_startproc
@ %bb.0:
	.pad	#32
	sub	sp, #32
	.cfi_def_cfa_offset 32
	mov	r1, r0
	str	r0, [sp, #28]
	movs	r0, #0
.Ltmp143:
	.loc	4 765 14 prologue_end   @ ../../../Library/StdDriver/src/clk.c:765:14
	str	r0, [sp, #24]
	.loc	4 765 31 is_stmt 0      @ ../../../Library/StdDriver/src/clk.c:765:31
	str	r0, [sp, #20]
	.loc	4 766 14 is_stmt 1      @ ../../../Library/StdDriver/src/clk.c:766:14
	ldr	r0, __arm_cp.24_0
	ldr	r2, [r0, #12]
	str	r2, [sp, #16]
	ldr	r2, [r0, #8]
	str	r2, [sp, #12]
	ldr	r2, [r0, #4]
	str	r2, [sp, #8]
	ldr	r0, [r0]
	str	r0, [sp, #4]
.Ltmp144:
	.loc	4 768 8                 @ ../../../Library/StdDriver/src/clk.c:768:8
	ldr	r0, [sp, #28]
	lsrs	r0, r0, #25
.Ltmp145:
	.loc	4 768 8 is_stmt 0       @ ../../../Library/StdDriver/src/clk.c:768:8
	lsls	r0, r0, #29
	cmp	r0, #0
	str	r1, [sp]                @ 4-byte Spill
	beq	.LBB24_2
	b	.LBB24_1
.LBB24_1:
.Ltmp146:
	.loc	4 771 60 is_stmt 1      @ ../../../Library/StdDriver/src/clk.c:771:60
	ldr	r0, [sp, #28]
	lsrs	r0, r0, #26
	movs	r1, #12
	.loc	4 771 49 is_stmt 0      @ ../../../Library/StdDriver/src/clk.c:771:49
	ands	r0, r1
	add	r1, sp, #4
	ldr	r0, [r1, r0]
	.loc	4 771 46                @ ../../../Library/StdDriver/src/clk.c:771:46
	ldr	r1, __arm_cp.24_1
	adds	r0, r0, r1
	.loc	4 771 20                @ ../../../Library/StdDriver/src/clk.c:771:20
	str	r0, [sp, #20]
	.loc	4 773 23 is_stmt 1      @ ../../../Library/StdDriver/src/clk.c:773:23
	ldr	r0, [sp, #20]
	ldr	r0, [r0]
	.loc	4 773 55 is_stmt 0      @ ../../../Library/StdDriver/src/clk.c:773:55
	ldr	r1, [sp, #28]
	lsrs	r2, r1, #25
	movs	r3, #7
	ands	r2, r3
	.loc	4 773 90                @ ../../../Library/StdDriver/src/clk.c:773:90
	lsrs	r1, r1, #20
	movs	r3, #31
	ands	r1, r3
	.loc	4 773 87                @ ../../../Library/StdDriver/src/clk.c:773:87
	lsls	r2, r1
	.loc	4 773 52                @ ../../../Library/StdDriver/src/clk.c:773:52
	ands	r0, r2
	.loc	4 773 124               @ ../../../Library/StdDriver/src/clk.c:773:124
	lsrs	r0, r1
	.loc	4 773 19                @ ../../../Library/StdDriver/src/clk.c:773:19
	str	r0, [sp, #24]
	.loc	4 774 5 is_stmt 1       @ ../../../Library/StdDriver/src/clk.c:774:5
	b	.LBB24_2
.Ltmp147:
.LBB24_2:
	.loc	4 776 12                @ ../../../Library/StdDriver/src/clk.c:776:12
	ldr	r0, [sp, #24]
	.loc	4 776 5 is_stmt 0       @ ../../../Library/StdDriver/src/clk.c:776:5
	add	sp, #32
	bx	lr
.Ltmp148:
	.p2align	2
@ %bb.3:
	.loc	4 0 5                   @ ../../../Library/StdDriver/src/clk.c:0:5
__arm_cp.24_0:
	.long	.LCLK_GetModuleClockSource.au32SelTbl
.Lcpi_end69:
	.size	__arm_cp.24_0, .Lcpi_end69-__arm_cp.24_0
__arm_cp.24_1:
	.long	1342177808              @ 0x50000210
.Lcpi_end70:
	.size	__arm_cp.24_1, .Lcpi_end70-__arm_cp.24_1
.Lfunc_end24:
	.size	CLK_GetModuleClockSource, .Lfunc_end24-CLK_GetModuleClockSource
	.cfi_endproc
	.cantunwind
	.fnend
                                        @ -- End function
	.section	.text.CLK_GetModuleClockDivider,"ax",%progbits
	.hidden	CLK_GetModuleClockDivider @ -- Begin function CLK_GetModuleClockDivider
	.globl	CLK_GetModuleClockDivider
	.p2align	2
	.type	CLK_GetModuleClockDivider,%function
	.code	16                      @ @CLK_GetModuleClockDivider
	.thumb_func
CLK_GetModuleClockDivider:
.Lfunc_begin25:
	.loc	4 791 0 is_stmt 1       @ ../../../Library/StdDriver/src/clk.c:791:0
	.fnstart
	.cfi_startproc
@ %bb.0:
	.pad	#24
	sub	sp, #24
	.cfi_def_cfa_offset 24
	mov	r1, r0
	str	r0, [sp, #20]
	movs	r0, #0
.Ltmp149:
	.loc	4 792 14 prologue_end   @ ../../../Library/StdDriver/src/clk.c:792:14
	str	r0, [sp, #16]
	.loc	4 792 31 is_stmt 0      @ ../../../Library/StdDriver/src/clk.c:792:31
	str	r0, [sp, #12]
	.loc	4 793 14 is_stmt 1      @ ../../../Library/StdDriver/src/clk.c:793:14
	ldr	r0, __arm_cp.25_0
	ldr	r2, [r0, #4]
	str	r2, [sp, #8]
	ldr	r0, [r0]
	str	r0, [sp, #4]
.Ltmp150:
	.loc	4 795 8                 @ ../../../Library/StdDriver/src/clk.c:795:8
	ldr	r0, [sp, #20]
	lsrs	r0, r0, #10
.Ltmp151:
	.loc	4 795 8 is_stmt 0       @ ../../../Library/StdDriver/src/clk.c:795:8
	lsls	r0, r0, #24
	cmp	r0, #0
	str	r1, [sp]                @ 4-byte Spill
	beq	.LBB25_2
	b	.LBB25_1
.LBB25_1:
	.loc	4 0 8                   @ ../../../Library/StdDriver/src/clk.c:0:8
	add	r0, sp, #20
.Ltmp152:
	.loc	4 798 60 is_stmt 1      @ ../../../Library/StdDriver/src/clk.c:798:60
	ldrh	r0, [r0, #2]
	movs	r1, #12
	.loc	4 798 49 is_stmt 0      @ ../../../Library/StdDriver/src/clk.c:798:49
	ands	r0, r1
	add	r1, sp, #4
	ldr	r0, [r1, r0]
	.loc	4 798 46                @ ../../../Library/StdDriver/src/clk.c:798:46
	ldr	r1, __arm_cp.25_1
	adds	r0, r0, r1
	.loc	4 798 20                @ ../../../Library/StdDriver/src/clk.c:798:20
	str	r0, [sp, #12]
	.loc	4 800 23 is_stmt 1      @ ../../../Library/StdDriver/src/clk.c:800:23
	ldr	r0, [sp, #12]
	ldr	r0, [r0]
	.loc	4 800 55 is_stmt 0      @ ../../../Library/StdDriver/src/clk.c:800:55
	ldr	r1, [sp, #20]
	lsrs	r2, r1, #10
	uxtb	r2, r2
	.loc	4 800 90                @ ../../../Library/StdDriver/src/clk.c:800:90
	lsrs	r1, r1, #5
	movs	r3, #31
	ands	r1, r3
	.loc	4 800 87                @ ../../../Library/StdDriver/src/clk.c:800:87
	lsls	r2, r1
	.loc	4 800 52                @ ../../../Library/StdDriver/src/clk.c:800:52
	ands	r0, r2
	.loc	4 800 124               @ ../../../Library/StdDriver/src/clk.c:800:124
	lsrs	r0, r1
	.loc	4 800 19                @ ../../../Library/StdDriver/src/clk.c:800:19
	str	r0, [sp, #16]
	.loc	4 801 5 is_stmt 1       @ ../../../Library/StdDriver/src/clk.c:801:5
	b	.LBB25_2
.Ltmp153:
.LBB25_2:
	.loc	4 803 12                @ ../../../Library/StdDriver/src/clk.c:803:12
	ldr	r0, [sp, #16]
	.loc	4 803 5 is_stmt 0       @ ../../../Library/StdDriver/src/clk.c:803:5
	add	sp, #24
	bx	lr
.Ltmp154:
	.p2align	2
@ %bb.3:
	.loc	4 0 5                   @ ../../../Library/StdDriver/src/clk.c:0:5
__arm_cp.25_0:
	.long	.LCLK_GetModuleClockDivider.au32DivTbl
.Lcpi_end71:
	.size	__arm_cp.25_0, .Lcpi_end71-__arm_cp.25_0
__arm_cp.25_1:
	.long	1342177816              @ 0x50000218
.Lcpi_end72:
	.size	__arm_cp.25_1, .Lcpi_end72-__arm_cp.25_1
.Lfunc_end25:
	.size	CLK_GetModuleClockDivider, .Lfunc_end25-CLK_GetModuleClockDivider
	.cfi_endproc
	.cantunwind
	.fnend
                                        @ -- End function
	.type	.LCLK_SetModuleClock.u32SelTbl,%object @ @CLK_SetModuleClock.u32SelTbl
	.section	.rodata.cst16,"aM",%progbits,16
	.p2align	2
.LCLK_SetModuleClock.u32SelTbl:
	.long	0                       @ 0x0
	.long	4                       @ 0x4
	.long	12                      @ 0xc
	.long	36                      @ 0x24
	.size	.LCLK_SetModuleClock.u32SelTbl, 16

	.type	.LCLK_SetModuleClock.u32DivTbl,%object @ @CLK_SetModuleClock.u32DivTbl
	.section	.rodata.cst8,"aM",%progbits,8
	.p2align	2
.LCLK_SetModuleClock.u32DivTbl:
	.long	0                       @ 0x0
	.long	32                      @ 0x20
	.size	.LCLK_SetModuleClock.u32DivTbl, 8

	.type	.LCLK_EnableModuleClock.u32ClkTbl,%object @ @CLK_EnableModuleClock.u32ClkTbl
	.section	.rodata..LCLK_EnableModuleClock.u32ClkTbl,"a",%progbits
	.p2align	2
.LCLK_EnableModuleClock.u32ClkTbl:
	.long	0                       @ 0x0
	.long	4                       @ 0x4
	.long	44                      @ 0x2c
	.size	.LCLK_EnableModuleClock.u32ClkTbl, 12

	.type	.LCLK_DisableModuleClock.u32ClkTbl,%object @ @CLK_DisableModuleClock.u32ClkTbl
	.section	.rodata..LCLK_DisableModuleClock.u32ClkTbl,"a",%progbits
	.p2align	2
.LCLK_DisableModuleClock.u32ClkTbl:
	.long	0                       @ 0x0
	.long	4                       @ 0x4
	.long	44                      @ 0x2c
	.size	.LCLK_DisableModuleClock.u32ClkTbl, 12

	.type	.LCLK_GetModuleClockSource.au32SelTbl,%object @ @CLK_GetModuleClockSource.au32SelTbl
	.section	.rodata.cst16,"aM",%progbits,16
	.p2align	2
.LCLK_GetModuleClockSource.au32SelTbl:
	.long	0                       @ 0x0
	.long	4                       @ 0x4
	.long	12                      @ 0xc
	.long	36                      @ 0x24
	.size	.LCLK_GetModuleClockSource.au32SelTbl, 16

	.type	.LCLK_GetModuleClockDivider.au32DivTbl,%object @ @CLK_GetModuleClockDivider.au32DivTbl
	.section	.rodata.cst8,"aM",%progbits,8
	.p2align	2
.LCLK_GetModuleClockDivider.au32DivTbl:
	.long	0                       @ 0x0
	.long	32                      @ 0x20
	.size	.LCLK_GetModuleClockDivider.au32DivTbl, 8

	.type	.LCLK_GetPLLClockFreq.au8NoTbl,%object @ @CLK_GetPLLClockFreq.au8NoTbl
	.section	.rodata.cst4,"aM",%progbits,4
.LCLK_GetPLLClockFreq.au8NoTbl:
	.ascii	"\001\002\002\004"
	.size	.LCLK_GetPLLClockFreq.au8NoTbl, 4

	.section	".note.GNU-stack","",%progbits
	.eabi_attribute	30, 6	@ Tag_ABI_optimization_goals
	.ARM_attribute	16, 1	@ Tag_AV_eba