	.text
	.syntax unified
	.eabi_attribute	67, "2.09"	@ Tag_conformance
	.cpu	cortex-m23
	.eabi_attribute	6, 16	@ Tag_CPU_arch
	.eabi_attribute	7, 77	@ Tag_CPU_arch_profile
	.eabi_attribute	8, 0	@ Tag_ARM_ISA_use
	.eabi_attribute	9, 3	@ Tag_THUMB_ISA_use
	.eabi_attribute	34, 0	@ Tag_CPU_unaligned_access
	.eabi_attribute	17, 1	@ Tag_ABI_PCS_GOT_use
	.eabi_attribute	20, 2	@ Tag_ABI_FP_denormal
	.eabi_attribute	21, 0	@ Tag_ABI_FP_exceptions
	.eabi_attribute	23, 1	@ Tag_ABI_FP_number_model
	.eabi_attribute	24, 1	@ Tag_ABI_align_needed
	.eabi_attribute	25, 1	@ Tag_ABI_align_preserved
	.eabi_attribute	38, 1	@ Tag_ABI_FP_16bit_format
	.eabi_attribute	18, 2	@ Tag_ABI_PCS_wchar_t
	.eabi_attribute	26, 1	@ Tag_ABI_enum_size
	.eabi_attribute	14, 0	@ Tag_ABI_PCS_R9_use
	.file	"led_effect.c"
	.file	1 "C:\\Keil_v5\\ARM\\ARMCLANG\\Bin\\..\\include" "stdint.h"
	.file	2 ".." "led_effect.c"
	.section	.text.setLED_Display,"ax",%progbits
	.hidden	setLED_Display          @ -- Begin function setLED_Display
	.globl	setLED_Display
	.p2align	2
	.type	setLED_Display,%function
	.code	16                      @ @setLED_Display
	.thumb_func
setLED_Display:
.Lfunc_begin0:
	.loc	2 872 0                 @ ../led_effect.c:872:0
	.fnstart
	.cfi_sections .debug_frame
	.cfi_startproc
@ %bb.0:
	.save	{r7, lr}
	push	{r7, lr}
	.cfi_def_cfa_offset 8
	.cfi_offset lr, -4
	.cfi_offset r7, -8
	.pad	#16
	sub	sp, #16
	.cfi_def_cfa_offset 24
	mov	r1, r0
	add	r2, sp, #12
	strh	r0, [r2]
.Ltmp0:
	.loc	2 873 36 prologue_end   @ ../led_effect.c:873:36
	ldrh	r0, [r2]
	.loc	2 873 2 is_stmt 0       @ ../led_effect.c:873:2
	ldr	r2, __arm_cp.0_0
	str	r0, [sp, #8]            @ 4-byte Spill
	mov	r0, r2
	ldr	r2, [sp, #8]            @ 4-byte Reload
	str	r1, [sp, #4]            @ 4-byte Spill
	mov	r1, r2
	bl	LLSI_PDMA_Transfer
	.loc	2 874 1 is_stmt 1       @ ../led_effect.c:874:1
	add	sp, #16
	pop	{r7, pc}
.Ltmp1:
	.p2align	2
@ %bb.1:
	.loc	2 0 1 is_stmt 0         @ ../led_effect.c:0:1
__arm_cp.0_0:
	.long	LLSIDataBuffer
.Lcpi_end0:
	.size	__arm_cp.0_0, .Lcpi_end0-__arm_cp.0_0
.Lfunc_end0:
	.size	setLED_Display, .Lfunc_end0-setLED_Display
	.cfi_endproc
	.cantunwind
	.fnend
                                        @ -- End function
	.section	.text.setLED_BufferClear,"ax",%progbits
	.hidden	setLED_BufferClear      @ -- Begin function setLED_BufferClear
	.globl	setLED_BufferClear
	.p2align	2
	.type	setLED_BufferClear,%function
	.code	16                      @ @setLED_BufferClear
	.thumb_func
setLED_BufferClear:
.Lfunc_begin1:
	.loc	2 877 0 is_stmt 1       @ ../led_effect.c:877:0
	.fnstart
	.cfi_startproc
@ %bb.0:
	.pad	#4
	sub	sp, #4
	.cfi_def_cfa_offset 4
	movs	r0, #0
.Ltmp2:
	.loc	2 879 11 prologue_end   @ ../led_effect.c:879:11
	str	r0, [sp]
.Ltmp3:
	.loc	2 881 7                 @ ../led_effect.c:881:7
	b	.LBB1_1
.LBB1_1:                                @ =>This Inner Loop Header: Depth=1
.Ltmp4:
	.loc	2 881 15 is_stmt 0      @ ../led_effect.c:881:15
	ldr	r0, [sp]
.Ltmp5:
	.loc	2 881 2                 @ ../led_effect.c:881:2
	cmp	r0, #17
	bhi	.LBB1_4
	b	.LBB1_2
.LBB1_2:                                @   in Loop: Header=BB1_1 Depth=1
.Ltmp6:
	.loc	2 883 18 is_stmt 1      @ ../led_effect.c:883:18
	ldr	r0, [sp]
	.loc	2 883 3 is_stmt 0       @ ../led_effect.c:883:3
	lsls	r0, r0, #2
	ldr	r1, __arm_cp.1_0
	movs	r2, #0
	.loc	2 883 21                @ ../led_effect.c:883:21
	str	r2, [r1, r0]
	.loc	2 884 2 is_stmt 1       @ ../led_effect.c:884:2
	b	.LBB1_3
.Ltmp7:
.LBB1_3:                                @   in Loop: Header=BB1_1 Depth=1
	.loc	2 881 34                @ ../led_effect.c:881:34
	ldr	r0, [sp]
	adds	r0, r0, #1
	str	r0, [sp]
	.loc	2 881 2 is_stmt 0       @ ../led_effect.c:881:2
	b	.LBB1_1
.Ltmp8:
.LBB1_4:
	.loc	2 886 1 is_stmt 1       @ ../led_effect.c:886:1
	add	sp, #4
	bx	lr
.Ltmp9:
	.p2align	2
@ %bb.5:
	.loc	2 0 1 is_stmt 0         @ ../led_effect.c:0:1
__arm_cp.1_0:
	.long	LLSIDataBuffer
.Lcpi_end1:
	.size	__arm_cp.1_0, .Lcpi_end1-__arm_cp.1_0
.Lfunc_end1:
	.size	setLED_BufferClear, .Lfunc_end1-setLED_BufferClear
	.cfi_endproc
	.cantunwind
	.fnend
                                        @ -- End function
	.section	.text.setLED_ColorArrange,"ax",%progbits
	.hidden	setLED_ColorArrange     @ -- Begin function setLED_ColorArrange
	.globl	setLED_ColorArrange
	.p2align	2
	.type	setLED_ColorArrange,%function
	.code	16                      @ @setLED_ColorArrange
	.thumb_func
setLED_ColorArrange:
.Lfunc_begin2:
	.loc	2 889 0 is_stmt 1       @ ../led_effect.c:889:0
	.fnstart
	.cfi_startproc
@ %bb.0:
	.save	{r4, r5, r6, r7, lr}
	push	{r4, r5, r6, r7, lr}
	.cfi_def_cfa_offset 20
	.cfi_offset lr, -4
	.cfi_offset r7, -8
	.cfi_offset r6, -12
	.cfi_offset r5, -16
	.cfi_offset r4, -20
	.pad	#60
	sub	sp, #60
	.cfi_def_cfa_offset 80
	mov	r4, r3
	mov	r5, r2
	mov	r6, r1
	mov	r7, r0
	str	r0, [sp, #28]           @ 4-byte Spill
	add	r0, sp, #56
	str	r0, [sp, #24]           @ 4-byte Spill
	ldr	r0, [sp, #28]           @ 4-byte Reload
	str	r1, [sp, #20]           @ 4-byte Spill
	ldr	r1, [sp, #24]           @ 4-byte Reload
	strb	r0, [r1]
	add	r0, sp, #52
	ldr	r1, [sp, #20]           @ 4-byte Reload
	strb	r1, [r0]
	add	r0, sp, #48
	strb	r2, [r0]
	add	r0, sp, #44
	strb	r3, [r0]
	movs	r0, #0
.Ltmp10:
	.loc	2 935 11 prologue_end   @ ../led_effect.c:935:11
	str	r0, [sp, #40]
	add	r2, sp, #36
	.loc	2 936 10                @ ../led_effect.c:936:10
	strb	r0, [r2]
	add	r3, sp, #32
	.loc	2 937 10                @ ../led_effect.c:937:10
	strb	r0, [r3]
	.loc	2 939 8                 @ ../led_effect.c:939:8
	ldr	r0, [sp, #24]           @ 4-byte Reload
	ldrb	r0, [r0]
	movs	r1, #3
	.loc	2 939 20 is_stmt 0      @ ../led_effect.c:939:20
	ands	r0, r1
	.loc	2 939 6                 @ ../led_effect.c:939:6
	strb	r0, [r2]
	.loc	2 940 8 is_stmt 1       @ ../led_effect.c:940:8
	ldr	r0, [sp, #24]           @ 4-byte Reload
	ldrb	r1, [r0]
	.loc	2 940 20 is_stmt 0      @ ../led_effect.c:940:20
	lsrs	r1, r1, #2
	.loc	2 940 6                 @ ../led_effect.c:940:6
	strb	r1, [r3]
	.loc	2 945 9 is_stmt 1       @ ../led_effect.c:945:9
	ldrb	r1, [r2]
	.loc	2 945 2 is_stmt 0       @ ../led_effect.c:945:2
	cmp	r1, #3
	str	r5, [sp, #16]           @ 4-byte Spill
	str	r6, [sp, #12]           @ 4-byte Spill
	str	r7, [sp, #8]            @ 4-byte Spill
	str	r4, [sp, #4]            @ 4-byte Spill
	str	r1, [sp]                @ 4-byte Spill
	bhi	.LBB2_7
@ %bb.1:
	.loc	2 0 2                   @ ../led_effect.c:0:2
	ldr	r0, [sp]                @ 4-byte Reload
	lsls	r1, r0, #2
	adr	r2, .LJTI2_0
	adds	r1, r2, r1
	mov	pc, r1
@ %bb.2:
	.p2align	2
.LJTI2_0:
	b.w	.LBB2_3
	b.w	.LBB2_4
	b.w	.LBB2_5
	b.w	.LBB2_6
.LBB2_3:
	add	r0, sp, #52
.Ltmp11:
	.loc	2 952 31 is_stmt 1      @ ../led_effect.c:952:31
	ldrb	r0, [r0]
	add	r1, sp, #48
	.loc	2 952 40 is_stmt 0      @ ../led_effect.c:952:40
	ldrb	r1, [r1]
	.loc	2 952 45                @ ../led_effect.c:952:45
	lsls	r1, r1, #8
	.loc	2 952 37                @ ../led_effect.c:952:37
	orrs	r0, r1
	add	r1, sp, #44
	.loc	2 952 53                @ ../led_effect.c:952:53
	ldrb	r1, [r1]
	.loc	2 952 57                @ ../led_effect.c:952:57
	lsls	r1, r1, #16
	.loc	2 952 50                @ ../led_effect.c:952:50
	orrs	r0, r1
	add	r1, sp, #32
	.loc	2 952 19                @ ../led_effect.c:952:19
	ldrb	r1, [r1]
	.loc	2 952 4                 @ ../led_effect.c:952:4
	movs	r2, #12
	muls	r2, r1, r2
	ldr	r1, __arm_cp.2_0
	.loc	2 952 28                @ ../led_effect.c:952:28
	ldr	r3, [r1, r2]
	orrs	r3, r0
	str	r3, [r1, r2]
	.loc	2 954 4 is_stmt 1       @ ../led_effect.c:954:4
	b	.LBB2_7
.LBB2_4:
	.loc	2 960 31                @ ../led_effect.c:960:31
	ldr	r0, [sp, #52]
	.loc	2 960 34 is_stmt 0      @ ../led_effect.c:960:34
	lsls	r0, r0, #24
	add	r1, sp, #32
	.loc	2 960 19                @ ../led_effect.c:960:19
	ldrb	r2, [r1]
	movs	r3, #12
	.loc	2 960 4                 @ ../led_effect.c:960:4
	mov	r4, r3
	muls	r4, r2, r4
	ldr	r2, __arm_cp.2_0
	.loc	2 960 28                @ ../led_effect.c:960:28
	ldr	r5, [r2, r4]
	orrs	r5, r0
	str	r5, [r2, r4]
	.loc	2 961 19 is_stmt 1      @ ../led_effect.c:961:19
	ldrb	r0, [r1]
	.loc	2 961 24 is_stmt 0      @ ../led_effect.c:961:24
	muls	r3, r0, r3
	.loc	2 960 4 is_stmt 1       @ ../led_effect.c:960:4
	adds	r0, r2, r3
	add	r1, sp, #48
	.loc	2 961 31                @ ../led_effect.c:961:31
	ldrb	r1, [r1]
	add	r2, sp, #44
	.loc	2 961 42 is_stmt 0      @ ../led_effect.c:961:42
	ldrb	r2, [r2]
	.loc	2 961 46                @ ../led_effect.c:961:46
	lsls	r2, r2, #8
	.loc	2 961 39                @ ../led_effect.c:961:39
	orrs	r1, r2
	.loc	2 961 28                @ ../led_effect.c:961:28
	ldr	r2, [r0, #4]
	orrs	r2, r1
	str	r2, [r0, #4]
	.loc	2 963 4 is_stmt 1       @ ../led_effect.c:963:4
	b	.LBB2_7
.LBB2_5:
	.loc	2 0 4 is_stmt 0         @ ../led_effect.c:0:4
	add	r0, sp, #52
	.loc	2 969 32 is_stmt 1      @ ../led_effect.c:969:32
	ldrb	r0, [r0]
	.loc	2 969 35 is_stmt 0      @ ../led_effect.c:969:35
	lsls	r0, r0, #16
	.loc	2 969 44                @ ../led_effect.c:969:44
	ldr	r1, [sp, #48]
	.loc	2 969 49                @ ../led_effect.c:969:49
	lsls	r1, r1, #24
	.loc	2 969 41                @ ../led_effect.c:969:41
	orrs	r0, r1
	add	r1, sp, #32
	.loc	2 969 19                @ ../led_effect.c:969:19
	ldrb	r2, [r1]
	movs	r3, #12
	.loc	2 969 24                @ ../led_effect.c:969:24
	mov	r4, r3
	muls	r4, r2, r4
	.loc	2 969 4                 @ ../led_effect.c:969:4
	ldr	r2, __arm_cp.2_0
	adds	r4, r2, r4
	.loc	2 969 28                @ ../led_effect.c:969:28
	ldr	r5, [r4, #4]
	orrs	r5, r0
	str	r5, [r4, #4]
	.loc	2 970 19 is_stmt 1      @ ../led_effect.c:970:19
	ldrb	r0, [r1]
	.loc	2 970 24 is_stmt 0      @ ../led_effect.c:970:24
	muls	r3, r0, r3
	.loc	2 969 4 is_stmt 1       @ ../led_effect.c:969:4
	adds	r0, r2, r3
	add	r1, sp, #44
	.loc	2 970 31                @ ../led_effect.c:970:31
	ldrb	r1, [r1]
	.loc	2 970 28 is_stmt 0      @ ../led_effect.c:970:28
	ldr	r2, [r0, #8]
	orrs	r2, r1
	str	r2, [r0, #8]
	.loc	2 972 4 is_stmt 1       @ ../led_effect.c:972:4
	b	.LBB2_7
.LBB2_6:
	.loc	2 0 4 is_stmt 0         @ ../led_effect.c:0:4
	add	r0, sp, #52
	.loc	2 978 32 is_stmt 1      @ ../led_effect.c:978:32
	ldrb	r0, [r0]
	.loc	2 978 35 is_stmt 0      @ ../led_effect.c:978:35
	lsls	r0, r0, #8
	add	r1, sp, #48
	.loc	2 978 43                @ ../led_effect.c:978:43
	ldrb	r1, [r1]
	.loc	2 978 48                @ ../led_effect.c:978:48
	lsls	r1, r1, #16
	.loc	2 978 40                @ ../led_effect.c:978:40
	orrs	r0, r1
	.loc	2 978 57                @ ../led_effect.c:978:57
	ldr	r1, [sp, #44]
	.loc	2 978 61                @ ../led_effect.c:978:61
	lsls	r1, r1, #24
	.loc	2 978 54                @ ../led_effect.c:978:54
	orrs	r0, r1
	add	r1, sp, #32
	.loc	2 978 19                @ ../led_effect.c:978:19
	ldrb	r1, [r1]
	movs	r2, #12
	.loc	2 978 24                @ ../led_effect.c:978:24
	muls	r2, r1, r2
	.loc	2 978 4                 @ ../led_effect.c:978:4
	ldr	r1, __arm_cp.2_0
	adds	r1, r1, r2
	.loc	2 978 28                @ ../led_effect.c:978:28
	ldr	r2, [r1, #8]
	orrs	r2, r0
	str	r2, [r1, #8]
	.loc	2 980 4 is_stmt 1       @ ../led_effect.c:980:4
	b	.LBB2_7
.Ltmp12:
.LBB2_7:
	.loc	2 1004 1                @ ../led_effect.c:1004:1
	add	sp, #60
	pop	{r4, r5, r6, r7, pc}
.Ltmp13:
	.p2align	2
@ %bb.8:
	.loc	2 0 1 is_stmt 0         @ ../led_effect.c:0:1
__arm_cp.2_0:
	.long	LLSIDataBuffer
.Lcpi_end2:
	.size	__arm_cp.2_0, .Lcpi_end2-__arm_cp.2_0
.Lfunc_end2:
	.size	setLED_ColorArrange, .Lfunc_end2-setLED_ColorArrange
	.cfi_endproc
	.cantunwind
	.fnend
                                        @ -- End function
	.section	.text.setLED_ColorWipe,"ax",%progbits
	.hidden	setLED_ColorWipe        @ -- Begin function setLED_ColorWipe
	.globl	setLED_ColorWipe
	.p2align	1
	.type	setLED_ColorWipe,%function
	.code	16                      @ @setLED_ColorWipe
	.thumb_func
setLED_ColorWipe:
.Lfunc_begin3:
	.loc	2 1007 0 is_stmt 1      @ ../led_effect.c:1007:0
	.fnstart
	.cfi_startproc
@ %bb.0:
	.save	{r4, r5, r6, lr}
	push	{r4, r5, r6, lr}
	.cfi_def_cfa_offset 16
	.cfi_offset lr, -4
	.cfi_offset r6, -8
	.cfi_offset r5, -12
	.cfi_offset r4, -16
	.pad	#32
	sub	sp, #32
	.cfi_def_cfa_offset 48
	mov	r3, r2
	mov	r4, r1
	mov	r5, r0
	add	r6, sp, #28
	strb	r0, [r6]
	add	r0, sp, #24
	strb	r1, [r0]
	add	r0, sp, #20
	strb	r2, [r0]
	add	r0, sp, #16
.Ltmp14:
	.loc	2 1008 10 prologue_end  @ ../led_effect.c:1008:10
	movs	r1, #0
	strb	r1, [r0]
.Ltmp15:
	.loc	2 1010 7                @ ../led_effect.c:1010:7
	str	r3, [sp, #12]           @ 4-byte Spill
	str	r4, [sp, #8]            @ 4-byte Spill
	str	r5, [sp, #4]            @ 4-byte Spill
	b	.LBB3_1
.LBB3_1:                                @ =>This Inner Loop Header: Depth=1
	.loc	2 0 7 is_stmt 0         @ ../led_effect.c:0:7
	add	r0, sp, #16
.Ltmp16:
	.loc	2 1010 18               @ ../led_effect.c:1010:18
	ldrb	r0, [r0]
.Ltmp17:
	.loc	2 1010 2                @ ../led_effect.c:1010:2
	cmp	r0, #23
	bgt	.LBB3_4
	b	.LBB3_2
.LBB3_2:                                @   in Loop: Header=BB3_1 Depth=1
	.loc	2 0 2                   @ ../led_effect.c:0:2
	add	r0, sp, #20
.Ltmp18:
	.loc	2 1012 3 is_stmt 1      @ ../led_effect.c:1012:3
	ldrb	r3, [r0]
	add	r0, sp, #24
	ldrb	r2, [r0]
	add	r0, sp, #28
	ldrb	r1, [r0]
	add	r0, sp, #16
	ldrb	r0, [r0]
	bl	setLED_ColorArrange
	.loc	2 1013 2                @ ../led_effect.c:1013:2
	b	.LBB3_3
.Ltmp19:
.LBB3_3:                                @   in Loop: Header=BB3_1 Depth=1
	.loc	2 1010 40               @ ../led_effect.c:1010:40
	ldr	r0, [sp, #16]
	adds	r0, r0, #1
	add	r1, sp, #16
	strb	r0, [r1]
	.loc	2 1010 2 is_stmt 0      @ ../led_effect.c:1010:2
	b	.LBB3_1
.Ltmp20:
.LBB3_4:
	.loc	2 1015 2 is_stmt 1      @ ../led_effect.c:1015:2
	movs	r0, #18
	bl	setLED_Display
	.loc	2 1016 1                @ ../led_effect.c:1016:1
	add	sp, #32
	pop	{r4, r5, r6, pc}
.Ltmp21:
.Lfunc_end3:
	.size	setLED_ColorWipe, .Lfunc_end3-setLED_ColorWipe
	.cfi_endproc
	.cantunwind
	.fnend
                                        @ -- End function
	.section	.text.setLED_ColorIdxChange,"ax",%progbits
	.hidden	setLED_ColorIdxChange   @ -- Begin function setLED_ColorIdxChange
	.globl	setLED_ColorIdxChange
	.p2align	2
	.type	setLED_ColorIdxChange,%function
	.code	16                      @ @setLED_ColorIdxChange
	.thumb_func
setLED_ColorIdxChange:
.Lfunc_begin4:
	.loc	2 1020 0                @ ../led_effect.c:1020:0
	.fnstart
	.cfi_startproc
@ %bb.0:
	.loc	2 1023 6 prologue_end   @ ../led_effect.c:1023:6
	ldr	r0, __arm_cp.4_0
	ldrb	r0, [r0]
.Ltmp22:
	.loc	2 1023 6 is_stmt 0      @ ../led_effect.c:1023:6
	cmp	r0, #0
	beq	.LBB4_5
	b	.LBB4_1
.LBB4_1:
.Ltmp23:
	.loc	2 1025 8 is_stmt 1      @ ../led_effect.c:1025:8
	ldr	r0, __arm_cp.4_1
	ldrh	r0, [r0]
	.loc	2 1025 17 is_stmt 0     @ ../led_effect.c:1025:17
	ldr	r1, __arm_cp.4_2
.Ltmp24:
	.loc	2 1025 8                @ ../led_effect.c:1025:8
	cmp	r0, r1
	blt	.LBB4_3
	b	.LBB4_2
.LBB4_2:
.Ltmp25:
	.loc	2 1027 9 is_stmt 1      @ ../led_effect.c:1027:9
	ldr	r0, __arm_cp.4_0
	movs	r1, #0
	strb	r1, [r0]
	.loc	2 1028 13               @ ../led_effect.c:1028:13
	ldr	r0, __arm_cp.4_1
	ldr	r1, __arm_cp.4_2
	strh	r1, [r0]
	.loc	2 1029 3                @ ../led_effect.c:1029:3
	b	.LBB4_4
.Ltmp26:
.LBB4_3:
	.loc	2 1032 12               @ ../led_effect.c:1032:12
	ldr	r0, __arm_cp.4_1
	ldrh	r1, [r0]
	adds	r1, r1, #1
	strh	r1, [r0]
	b	.LBB4_4
.Ltmp27:
.LBB4_4:
	.loc	2 1034 2                @ ../led_effect.c:1034:2
	b	.LBB4_9
.Ltmp28:
.LBB4_5:
	.loc	2 1037 7                @ ../led_effect.c:1037:7
	ldr	r0, __arm_cp.4_1
	ldrh	r0, [r0]
.Ltmp29:
	.loc	2 1037 7 is_stmt 0      @ ../led_effect.c:1037:7
	cmp	r0, #0
	bne	.LBB4_7
	b	.LBB4_6
.LBB4_6:
.Ltmp30:
	.loc	2 1039 9 is_stmt 1      @ ../led_effect.c:1039:9
	ldr	r0, __arm_cp.4_0
	movs	r1, #1
	strb	r1, [r0]
	.loc	2 1040 13               @ ../led_effect.c:1040:13
	ldr	r0, __arm_cp.4_1
	movs	r1, #0
	strh	r1, [r0]
	.loc	2 1041 3                @ ../led_effect.c:1041:3
	b	.LBB4_8
.Ltmp31:
.LBB4_7:
	.loc	2 1044 12               @ ../led_effect.c:1044:12
	ldr	r0, __arm_cp.4_1
	ldrh	r1, [r0]
	subs	r1, r1, #1
	strh	r1, [r0]
	b	.LBB4_8
.Ltmp32:
.LBB4_8:
	.loc	2 0 12 is_stmt 0        @ ../led_effect.c:0:12
	b	.LBB4_9
.LBB4_9:
	.loc	2 1048 1 is_stmt 1      @ ../led_effect.c:1048:1
	bx	lr
.Ltmp33:
	.p2align	2
@ %bb.10:
	.loc	2 0 1 is_stmt 0         @ ../led_effect.c:0:1
__arm_cp.4_0:
	.long	setLED_ColorIdxChange.flag
.Lcpi_end3:
	.size	__arm_cp.4_0, .Lcpi_end3-__arm_cp.4_0
__arm_cp.4_1:
	.long	Coloridx
.Lcpi_end4:
	.size	__arm_cp.4_1, .Lcpi_end4-__arm_cp.4_1
__arm_cp.4_2:
	.long	765                     @ 0x2fd
.Lcpi_end5:
	.size	__arm_cp.4_2, .Lcpi_end5-__arm_cp.4_2
.Lfunc_end4:
	.size	setLED_ColorIdxChange, .Lfunc_end4-setLED_ColorIdxChange
	.cfi_endproc
	.cantunwind
	.fnend
                                        @ -- End function
	.section	.text._stripEffect_Rainbow,"ax",%progbits
	.hidden	_stripEffect_Rainbow    @ -- Begin function _stripEffect_Rainbow
	.globl	_stripEffect_Rainbow
	.p2align	2
	.type	_stripEffect_Rainbow,%function
	.code	16                      @ @_stripEffect_Rainbow
	.thumb_func
_stripEffect_Rainbow:
.Lfunc_begin5:
	.loc	2 1052 0 is_stmt 1      @ ../led_effect.c:1052:0
	.fnstart
	.cfi_startproc
@ %bb.0:
	.save	{r4, r5, r7, lr}
	push	{r4, r5, r7, lr}
	.cfi_def_cfa_offset 16
	.cfi_offset lr, -4
	.cfi_offset r7, -8
	.cfi_offset r5, -12
	.cfi_offset r4, -16
	.pad	#28
	sub	sp, #28
	.cfi_def_cfa_offset 44
	mov	r3, r2
	mov	r4, r1
	mov	r5, r0
	str	r0, [sp, #24]
	str	r1, [sp, #20]
	str	r2, [sp, #16]
.Ltmp34:
	.loc	2 1060 10 prologue_end  @ ../led_effect.c:1060:10
	ldr	r0, __arm_cp.5_0
	ldrb	r0, [r0]
	.loc	2 1060 2 is_stmt 0      @ ../led_effect.c:1060:2
	cmp	r0, #5
	str	r3, [sp, #12]           @ 4-byte Spill
	str	r4, [sp, #8]            @ 4-byte Spill
	str	r5, [sp, #4]            @ 4-byte Spill
	str	r0, [sp]                @ 4-byte Spill
	bhi	.LBB5_21
@ %bb.1:
	.loc	2 0 2                   @ ../led_effect.c:0:2
	ldr	r0, [sp]                @ 4-byte Reload
	lsls	r1, r0, #2
	adr	r2, .LJTI5_0
	adds	r1, r2, r1
	mov	pc, r1
@ %bb.2:
	.p2align	2
.LJTI5_0:
	b.w	.LBB5_3
	b.w	.LBB5_6
	b.w	.LBB5_9
	b.w	.LBB5_12
	b.w	.LBB5_15
	b.w	.LBB5_18
.LBB5_3:
.Ltmp35:
	.loc	2 1063 9 is_stmt 1      @ ../led_effect.c:1063:9
	ldr	r0, __arm_cp.5_3
	ldrb	r1, [r0]
	adds	r1, r1, #1
	strb	r1, [r0]
.Ltmp36:
	.loc	2 1064 8                @ ../led_effect.c:1064:8
	ldrb	r0, [r0]
.Ltmp37:
	.loc	2 1064 8 is_stmt 0      @ ../led_effect.c:1064:8
	cmp	r0, #255
	bne	.LBB5_5
	b	.LBB5_4
.LBB5_4:
.Ltmp38:
	.loc	2 1065 11 is_stmt 1     @ ../led_effect.c:1065:11
	ldr	r0, __arm_cp.5_0
	movs	r1, #1
	strb	r1, [r0]
	.loc	2 1065 5 is_stmt 0      @ ../led_effect.c:1065:5
	b	.LBB5_5
.Ltmp39:
.LBB5_5:
	.loc	2 1066 4 is_stmt 1      @ ../led_effect.c:1066:4
	b	.LBB5_21
.Ltmp40:
.LBB5_6:
	.loc	2 1069 7                @ ../led_effect.c:1069:7
	ldr	r0, __arm_cp.5_2
	ldrb	r1, [r0]
	subs	r1, r1, #1
	strb	r1, [r0]
.Ltmp41:
	.loc	2 1070 8                @ ../led_effect.c:1070:8
	ldrb	r0, [r0]
.Ltmp42:
	.loc	2 1070 8 is_stmt 0      @ ../led_effect.c:1070:8
	cmp	r0, #0
	bne	.LBB5_8
	b	.LBB5_7
.LBB5_7:
.Ltmp43:
	.loc	2 1071 11 is_stmt 1     @ ../led_effect.c:1071:11
	ldr	r0, __arm_cp.5_0
	movs	r1, #2
	strb	r1, [r0]
	.loc	2 1071 5 is_stmt 0      @ ../led_effect.c:1071:5
	b	.LBB5_8
.Ltmp44:
.LBB5_8:
	.loc	2 1072 4 is_stmt 1      @ ../led_effect.c:1072:4
	b	.LBB5_21
.Ltmp45:
.LBB5_9:
	.loc	2 1075 8                @ ../led_effect.c:1075:8
	ldr	r0, __arm_cp.5_1
	ldrb	r1, [r0]
	adds	r1, r1, #1
	strb	r1, [r0]
.Ltmp46:
	.loc	2 1076 8                @ ../led_effect.c:1076:8
	ldrb	r0, [r0]
.Ltmp47:
	.loc	2 1076 8 is_stmt 0      @ ../led_effect.c:1076:8
	cmp	r0, #255
	bne	.LBB5_11
	b	.LBB5_10
.LBB5_10:
.Ltmp48:
	.loc	2 1077 11 is_stmt 1     @ ../led_effect.c:1077:11
	ldr	r0, __arm_cp.5_0
	movs	r1, #3
	strb	r1, [r0]
	.loc	2 1077 5 is_stmt 0      @ ../led_effect.c:1077:5
	b	.LBB5_11
.Ltmp49:
.LBB5_11:
	.loc	2 1078 4 is_stmt 1      @ ../led_effect.c:1078:4
	b	.LBB5_21
.Ltmp50:
.LBB5_12:
	.loc	2 1081 9                @ ../led_effect.c:1081:9
	ldr	r0, __arm_cp.5_3
	ldrb	r1, [r0]
	subs	r1, r1, #1
	strb	r1, [r0]
.Ltmp51:
	.loc	2 1082 8                @ ../led_effect.c:1082:8
	ldrb	r0, [r0]
.Ltmp52:
	.loc	2 1082 8 is_stmt 0      @ ../led_effect.c:1082:8
	cmp	r0, #0
	bne	.LBB5_14
	b	.LBB5_13
.LBB5_13:
.Ltmp53:
	.loc	2 1083 11 is_stmt 1     @ ../led_effect.c:1083:11
	ldr	r0, __arm_cp.5_0
	movs	r1, #4
	strb	r1, [r0]
	.loc	2 1083 5 is_stmt 0      @ ../led_effect.c:1083:5
	b	.LBB5_14
.Ltmp54:
.LBB5_14:
	.loc	2 1084 4 is_stmt 1      @ ../led_effect.c:1084:4
	b	.LBB5_21
.Ltmp55:
.LBB5_15:
	.loc	2 1087 7                @ ../led_effect.c:1087:7
	ldr	r0, __arm_cp.5_2
	ldrb	r1, [r0]
	adds	r1, r1, #1
	strb	r1, [r0]
.Ltmp56:
	.loc	2 1088 8                @ ../led_effect.c:1088:8
	ldrb	r0, [r0]
.Ltmp57:
	.loc	2 1088 8 is_stmt 0      @ ../led_effect.c:1088:8
	cmp	r0, #255
	bne	.LBB5_17
	b	.LBB5_16
.LBB5_16:
.Ltmp58:
	.loc	2 1089 11 is_stmt 1     @ ../led_effect.c:1089:11
	ldr	r0, __arm_cp.5_0
	movs	r1, #5
	strb	r1, [r0]
	.loc	2 1089 5 is_stmt 0      @ ../led_effect.c:1089:5
	b	.LBB5_17
.Ltmp59:
.LBB5_17:
	.loc	2 1090 4 is_stmt 1      @ ../led_effect.c:1090:4
	b	.LBB5_21
.Ltmp60:
.LBB5_18:
	.loc	2 1093 9                @ ../led_effect.c:1093:9
	ldr	r0, __arm_cp.5_1
	ldrb	r1, [r0]
	subs	r1, r1, #1
	strb	r1, [r0]
.Ltmp61:
	.loc	2 1094 8                @ ../led_effect.c:1094:8
	ldrb	r0, [r0]
.Ltmp62:
	.loc	2 1094 8 is_stmt 0      @ ../led_effect.c:1094:8
	cmp	r0, #0
	bne	.LBB5_20
	b	.LBB5_19
.LBB5_19:
.Ltmp63:
	.loc	2 1095 11 is_stmt 1     @ ../led_effect.c:1095:11
	ldr	r0, __arm_cp.5_0
	movs	r1, #0
	strb	r1, [r0]
	.loc	2 1095 5 is_stmt 0      @ ../led_effect.c:1095:5
	b	.LBB5_20
.Ltmp64:
.LBB5_20:
	.loc	2 1096 4 is_stmt 1      @ ../led_effect.c:1096:4
	b	.LBB5_21
.Ltmp65:
.LBB5_21:
	.loc	2 1100 11               @ ../led_effect.c:1100:11
	ldr	r0, __arm_cp.5_3
	ldrb	r0, [r0]
	.loc	2 1100 3 is_stmt 0      @ ../led_effect.c:1100:3
	ldr	r1, [sp, #20]
	.loc	2 1100 9                @ ../led_effect.c:1100:9
	strb	r0, [r1]
	.loc	2 1101 9 is_stmt 1      @ ../led_effect.c:1101:9
	ldr	r0, __arm_cp.5_2
	ldrb	r0, [r0]
	.loc	2 1101 3 is_stmt 0      @ ../led_effect.c:1101:3
	ldr	r1, [sp, #24]
	.loc	2 1101 7                @ ../led_effect.c:1101:7
	strb	r0, [r1]
	.loc	2 1102 10 is_stmt 1     @ ../led_effect.c:1102:10
	ldr	r0, __arm_cp.5_1
	ldrb	r0, [r0]
	.loc	2 1102 3 is_stmt 0      @ ../led_effect.c:1102:3
	ldr	r1, [sp, #16]
	.loc	2 1102 8                @ ../led_effect.c:1102:8
	strb	r0, [r1]
	.loc	2 1106 1 is_stmt 1      @ ../led_effect.c:1106:1
	add	sp, #28
	pop	{r4, r5, r7, pc}
.Ltmp66:
	.p2align	2
@ %bb.22:
	.loc	2 0 1 is_stmt 0         @ ../led_effect.c:0:1
__arm_cp.5_0:
	.long	_stripEffect_Rainbow.State
.Lcpi_end6:
	.size	__arm_cp.5_0, .Lcpi_end6-__arm_cp.5_0
__arm_cp.5_1:
	.long	_stripEffect_Rainbow.Blue
.Lcpi_end7:
	.size	__arm_cp.5_1, .Lcpi_end7-__arm_cp.5_1
__arm_cp.5_2:
	.long	_stripEffect_Rainbow.Red
.Lcpi_end8:
	.size	__arm_cp.5_2, .Lcpi_end8-__arm_cp.5_2
__arm_cp.5_3:
	.long	_stripEffect_Rainbow.Green
.Lcpi_end9:
	.size	__arm_cp.5_3, .Lcpi_end9-__arm_cp.5_3
.Lfunc_end5:
	.size	_stripEffect_Rainbow, .Lfunc_end5-_stripEffect_Rainbow
	.cfi_endproc
	.cantunwind
	.fnend
                                        @ -- End function
	.section	.text._stripEffect_Wheel,"ax",%progbits
	.hidden	_stripEffect_Wheel      @ -- Begin function _stripEffect_Wheel
	.globl	_stripEffect_Wheel
	.p2align	1
	.type	_stripEffect_Wheel,%function
	.code	16                      @ @_stripEffect_Wheel
	.thumb_func
_stripEffect_Wheel:
.Lfunc_begin6:
	.loc	2 1109 0 is_stmt 1      @ ../led_effect.c:1109:0
	.fnstart
	.cfi_startproc
@ %bb.0:
	.save	{r4, r5, r6, r7, lr}
	push	{r4, r5, r6, r7, lr}
	.cfi_def_cfa_offset 20
	.cfi_offset lr, -4
	.cfi_offset r7, -8
	.cfi_offset r6, -12
	.cfi_offset r5, -16
	.cfi_offset r4, -20
	.pad	#48
	sub	sp, #48
	.cfi_def_cfa_offset 68
	mov	r4, r3
	mov	r5, r2
	mov	r6, r1
	mov	r7, r0
	str	r0, [sp, #24]           @ 4-byte Spill
	add	r0, sp, #40
	str	r0, [sp, #20]           @ 4-byte Spill
	ldr	r0, [sp, #24]           @ 4-byte Reload
	str	r1, [sp, #16]           @ 4-byte Spill
	ldr	r1, [sp, #20]           @ 4-byte Reload
	strb	r0, [r1]
	ldr	r0, [sp, #16]           @ 4-byte Reload
	str	r0, [sp, #36]
	str	r2, [sp, #32]
	str	r3, [sp, #28]
.Ltmp67:
	.loc	2 1110 19 prologue_end  @ ../led_effect.c:1110:19
	ldr	r2, [sp, #40]
	.loc	2 1110 17 is_stmt 0     @ ../led_effect.c:1110:17
	movs	r3, #255
	subs	r2, r3, r2
	.loc	2 1110 11               @ ../led_effect.c:1110:11
	strb	r2, [r1]
.Ltmp68:
	.loc	2 1111 5 is_stmt 1      @ ../led_effect.c:1111:5
	ldrb	r2, [r1]
.Ltmp69:
	.loc	2 1111 5 is_stmt 0      @ ../led_effect.c:1111:5
	cmp	r2, #84
	str	r6, [sp, #12]           @ 4-byte Spill
	str	r7, [sp, #8]            @ 4-byte Spill
	str	r4, [sp, #4]            @ 4-byte Spill
	str	r5, [sp]                @ 4-byte Spill
	bgt	.LBB6_2
	b	.LBB6_1
.LBB6_1:
.Ltmp70:
	.loc	2 1113 4 is_stmt 1      @ ../led_effect.c:1113:4
	ldr	r0, [sp, #32]
	.loc	2 1113 10 is_stmt 0     @ ../led_effect.c:1113:10
	movs	r1, #0
	strb	r1, [r0]
	.loc	2 1114 16 is_stmt 1     @ ../led_effect.c:1114:16
	ldr	r0, [sp, #40]
	.loc	2 1114 25 is_stmt 0     @ ../led_effect.c:1114:25
	movs	r2, #3
	mov	r3, r2
	muls	r3, r0, r3
	.loc	2 1114 14               @ ../led_effect.c:1114:14
	movs	r0, #255
	subs	r0, r0, r3
	.loc	2 1114 4                @ ../led_effect.c:1114:4
	ldr	r3, [sp, #36]
	.loc	2 1114 8                @ ../led_effect.c:1114:8
	strb	r0, [r3]
	.loc	2 1115 11 is_stmt 1     @ ../led_effect.c:1115:11
	ldr	r0, [sp, #40]
	.loc	2 1115 20 is_stmt 0     @ ../led_effect.c:1115:20
	muls	r2, r0, r2
	.loc	2 1115 4                @ ../led_effect.c:1115:4
	ldr	r0, [sp, #28]
	.loc	2 1115 9                @ ../led_effect.c:1115:9
	strb	r2, [r0]
	add	r0, sp, #44
	.loc	2 1116 3 is_stmt 1      @ ../led_effect.c:1116:3
	strb	r1, [r0]
	b	.LBB6_5
.Ltmp71:
.LBB6_2:
	.loc	2 0 3 is_stmt 0         @ ../led_effect.c:0:3
	add	r0, sp, #40
.Ltmp72:
	.loc	2 1120 5 is_stmt 1      @ ../led_effect.c:1120:5
	ldrb	r0, [r0]
.Ltmp73:
	.loc	2 1120 5 is_stmt 0      @ ../led_effect.c:1120:5
	cmp	r0, #169
	bgt	.LBB6_4
	b	.LBB6_3
.LBB6_3:
.Ltmp74:
	.loc	2 1122 12 is_stmt 1     @ ../led_effect.c:1122:12
	ldr	r0, [sp, #40]
	subs	r0, #85
	add	r1, sp, #40
	strb	r0, [r1]
	.loc	2 1124 12               @ ../led_effect.c:1124:12
	ldr	r0, [sp, #40]
	.loc	2 1124 21 is_stmt 0     @ ../led_effect.c:1124:21
	movs	r1, #3
	mov	r2, r1
	muls	r2, r0, r2
	.loc	2 1124 4                @ ../led_effect.c:1124:4
	ldr	r0, [sp, #32]
	.loc	2 1124 10               @ ../led_effect.c:1124:10
	strb	r2, [r0]
	.loc	2 1125 4 is_stmt 1      @ ../led_effect.c:1125:4
	ldr	r0, [sp, #36]
	.loc	2 1125 8 is_stmt 0      @ ../led_effect.c:1125:8
	movs	r2, #0
	strb	r2, [r0]
	.loc	2 1126 17 is_stmt 1     @ ../led_effect.c:1126:17
	ldr	r0, [sp, #40]
	.loc	2 1126 26 is_stmt 0     @ ../led_effect.c:1126:26
	muls	r1, r0, r1
	.loc	2 1126 15               @ ../led_effect.c:1126:15
	movs	r0, #255
	subs	r0, r0, r1
	.loc	2 1126 4                @ ../led_effect.c:1126:4
	ldr	r1, [sp, #28]
	.loc	2 1126 9                @ ../led_effect.c:1126:9
	strb	r0, [r1]
	add	r0, sp, #44
	.loc	2 1127 3 is_stmt 1      @ ../led_effect.c:1127:3
	strb	r2, [r0]
	b	.LBB6_5
.Ltmp75:
.LBB6_4:
	.loc	2 1132 11               @ ../led_effect.c:1132:11
	ldr	r0, [sp, #40]
	subs	r0, #170
	add	r1, sp, #40
	strb	r0, [r1]
	.loc	2 1134 17               @ ../led_effect.c:1134:17
	ldr	r0, [sp, #40]
	.loc	2 1134 26 is_stmt 0     @ ../led_effect.c:1134:26
	movs	r1, #3
	mov	r2, r1
	muls	r2, r0, r2
	.loc	2 1134 15               @ ../led_effect.c:1134:15
	movs	r0, #255
	subs	r0, r0, r2
	.loc	2 1134 3                @ ../led_effect.c:1134:3
	ldr	r2, [sp, #32]
	.loc	2 1134 9                @ ../led_effect.c:1134:9
	strb	r0, [r2]
	.loc	2 1135 9 is_stmt 1      @ ../led_effect.c:1135:9
	ldr	r0, [sp, #40]
	.loc	2 1135 18 is_stmt 0     @ ../led_effect.c:1135:18
	muls	r1, r0, r1
	.loc	2 1135 3                @ ../led_effect.c:1135:3
	ldr	r0, [sp, #36]
	.loc	2 1135 7                @ ../led_effect.c:1135:7
	strb	r1, [r0]
	.loc	2 1136 3 is_stmt 1      @ ../led_effect.c:1136:3
	ldr	r0, [sp, #28]
	.loc	2 1136 8 is_stmt 0      @ ../led_effect.c:1136:8
	movs	r1, #0
	strb	r1, [r0]
	add	r0, sp, #44
	.loc	2 1137 2 is_stmt 1      @ ../led_effect.c:1137:2
	strb	r1, [r0]
	b	.LBB6_5
.LBB6_5:
	.loc	2 0 2 is_stmt 0         @ ../led_effect.c:0:2
	add	r0, sp, #44
	.loc	2 1140 1 is_stmt 1      @ ../led_effect.c:1140:1
	ldrb	r0, [r0]
	add	sp, #48
	pop	{r4, r5, r6, r7, pc}
.Ltmp76:
.Lfunc_end6:
	.size	_stripEffect_Wheel, .Lfunc_end6-_stripEffect_Wheel
	.cfi_endproc
	.cantunwind
	.fnend
                                        @ -- End function
	.section	.text.getFromAToB,"ax",%progbits
	.hidden	getFromAToB             @ -- Begin function getFromAToB
	.globl	getFromAToB
	.p2align	1
	.type	getFromAToB,%function
	.code	16                      @ @getFromAToB
	.thumb_func
getFromAToB:
.Lfunc_begin7:
	.loc	2 1145 0                @ ../led_effect.c:1145:0
	.fnstart
	.cfi_startproc
@ %bb.0:
	.save	{r4, r5, r6, r7, lr}
	push	{r4, r5, r6, r7, lr}
	.cfi_def_cfa_offset 20
	.cfi_offset lr, -4
	.cfi_offset r7, -8
	.cfi_offset r6, -12
	.cfi_offset r5, -16
	.cfi_offset r4, -20
	.pad	#92
	sub	sp, #92
	.cfi_def_cfa_offset 112
	ldr	r4, [sp, #124]
	ldr	r5, [sp, #120]
	ldr	r6, [sp, #116]
	ldr	r7, [sp, #112]
	str	r0, [sp, #40]           @ 4-byte Spill
	mov	r0, r3
	str	r0, [sp, #36]           @ 4-byte Spill
	mov	r0, r2
	str	r0, [sp, #32]           @ 4-byte Spill
	mov	r0, r1
	str	r0, [sp, #28]           @ 4-byte Spill
	ldr	r0, [sp, #40]           @ 4-byte Reload
	str	r0, [sp, #24]           @ 4-byte Spill
	add	r0, sp, #88
	str	r0, [sp, #20]           @ 4-byte Spill
	ldr	r0, [sp, #40]           @ 4-byte Reload
	str	r1, [sp, #16]           @ 4-byte Spill
	ldr	r1, [sp, #20]           @ 4-byte Reload
	strh	r0, [r1]
	add	r1, sp, #84
	ldr	r0, [sp, #16]           @ 4-byte Reload
	strh	r0, [r1]
	add	r0, sp, #80
	strb	r2, [r0]
	add	r2, sp, #76
	strb	r3, [r2]
	add	r3, sp, #72
	strb	r7, [r3]
	add	r7, sp, #68
	strb	r6, [r7]
	add	r6, sp, #64
	strb	r5, [r6]
	add	r5, sp, #60
	strb	r4, [r5]
	add	r4, sp, #56
.Ltmp77:
	.loc	2 1146 11 prologue_end  @ ../led_effect.c:1146:11
	str	r0, [sp, #12]           @ 4-byte Spill
	movs	r0, #0
	strh	r0, [r4]
	.loc	2 1149 14               @ ../led_effect.c:1149:14
	ldrb	r7, [r7]
	.loc	2 1149 35 is_stmt 0     @ ../led_effect.c:1149:35
	str	r0, [sp, #8]            @ 4-byte Spill
	ldr	r0, [sp, #12]           @ 4-byte Reload
	ldrb	r0, [r0]
	.loc	2 1149 33               @ ../led_effect.c:1149:33
	subs	r0, r7, r0
	.loc	2 1149 57               @ ../led_effect.c:1149:57
	ldrh	r7, [r1]
	.loc	2 1149 55               @ ../led_effect.c:1149:55
	sdiv	r0, r0, r7
	.loc	2 1149 11               @ ../led_effect.c:1149:11
	str	r0, [sp, #52]
	.loc	2 1150 16 is_stmt 1     @ ../led_effect.c:1150:16
	ldrb	r0, [r6]
	.loc	2 1150 39 is_stmt 0     @ ../led_effect.c:1150:39
	ldrb	r2, [r2]
	.loc	2 1150 37               @ ../led_effect.c:1150:37
	subs	r0, r0, r2
	.loc	2 1150 63               @ ../led_effect.c:1150:63
	ldrh	r2, [r1]
	.loc	2 1150 61               @ ../led_effect.c:1150:61
	sdiv	r0, r0, r2
	.loc	2 1150 13               @ ../led_effect.c:1150:13
	str	r0, [sp, #48]
	.loc	2 1151 15 is_stmt 1     @ ../led_effect.c:1151:15
	ldrb	r0, [r5]
	.loc	2 1151 37 is_stmt 0     @ ../led_effect.c:1151:37
	ldrb	r2, [r3]
	.loc	2 1151 35               @ ../led_effect.c:1151:35
	subs	r0, r0, r2
	.loc	2 1151 60               @ ../led_effect.c:1151:60
	ldrh	r1, [r1]
	.loc	2 1151 58               @ ../led_effect.c:1151:58
	sdiv	r0, r0, r1
	.loc	2 1151 12               @ ../led_effect.c:1151:12
	str	r0, [sp, #44]
.Ltmp78:
	.loc	2 1153 9 is_stmt 1      @ ../led_effect.c:1153:9
	ldr	r0, [sp, #8]            @ 4-byte Reload
	strh	r0, [r4]
	.loc	2 1153 7 is_stmt 0      @ ../led_effect.c:1153:7
	b	.LBB7_1
.LBB7_1:                                @ =>This Inner Loop Header: Depth=1
	.loc	2 0 7                   @ ../led_effect.c:0:7
	add	r0, sp, #56
.Ltmp79:
	.loc	2 1153 14               @ ../led_effect.c:1153:14
	ldrh	r0, [r0]
	add	r1, sp, #84
	.loc	2 1153 18               @ ../led_effect.c:1153:18
	ldrh	r1, [r1]
.Ltmp80:
	.loc	2 1153 2                @ ../led_effect.c:1153:2
	cmp	r0, r1
	bge	.LBB7_4
	b	.LBB7_2
.LBB7_2:                                @   in Loop: Header=BB7_1 Depth=1
.Ltmp81:
	.loc	2 1155 20 is_stmt 1     @ ../led_effect.c:1155:20
	ldr	r0, [sp, #80]
	add	r1, sp, #56
	.loc	2 1155 27 is_stmt 0     @ ../led_effect.c:1155:27
	ldrh	r1, [r1]
	.loc	2 1155 31               @ ../led_effect.c:1155:31
	ldr	r2, [sp, #52]
	.loc	2 1155 29               @ ../led_effect.c:1155:29
	muls	r2, r1, r2
	.loc	2 1155 25               @ ../led_effect.c:1155:25
	adds	r0, r0, r2
	.loc	2 1155 41               @ ../led_effect.c:1155:41
	ldr	r2, [sp, #76]
	.loc	2 1155 54               @ ../led_effect.c:1155:54
	ldr	r3, [sp, #48]
	.loc	2 1155 52               @ ../led_effect.c:1155:52
	muls	r3, r1, r3
	.loc	2 1155 48               @ ../led_effect.c:1155:48
	adds	r2, r2, r3
	.loc	2 1155 67               @ ../led_effect.c:1155:67
	ldr	r3, [sp, #72]
	.loc	2 1155 79               @ ../led_effect.c:1155:79
	ldr	r4, [sp, #44]
	.loc	2 1155 77               @ ../led_effect.c:1155:77
	muls	r4, r1, r4
	.loc	2 1155 73               @ ../led_effect.c:1155:73
	adds	r1, r3, r4
	.loc	2 1155 3                @ ../led_effect.c:1155:3
	uxtb	r0, r0
	uxtb	r2, r2
	uxtb	r1, r1
	str	r1, [sp, #4]            @ 4-byte Spill
	mov	r1, r2
	ldr	r2, [sp, #4]            @ 4-byte Reload
	bl	setLED_ColorWipe
	add	r0, sp, #88
	.loc	2 1157 12 is_stmt 1     @ ../led_effect.c:1157:12
	ldrh	r0, [r0]
	add	r1, sp, #84
	.loc	2 1157 19 is_stmt 0     @ ../led_effect.c:1157:19
	ldrh	r1, [r1]
	.loc	2 1157 17               @ ../led_effect.c:1157:17
	udiv	r0, r0, r1
	.loc	2 1157 3                @ ../led_effect.c:1157:3
	bl	delay_ms
	.loc	2 1158 2 is_stmt 1      @ ../led_effect.c:1158:2
	b	.LBB7_3
.Ltmp82:
.LBB7_3:                                @   in Loop: Header=BB7_1 Depth=1
	.loc	2 1153 26               @ ../led_effect.c:1153:26
	ldr	r0, [sp, #56]
	adds	r0, r0, #1
	add	r1, sp, #56
	strh	r0, [r1]
	.loc	2 1153 2 is_stmt 0      @ ../led_effect.c:1153:2
	b	.LBB7_1
.Ltmp83:
.LBB7_4:
	.loc	2 1160 2 is_stmt 1      @ ../led_effect.c:1160:2
	bl	setLED_BufferClear
	.loc	2 1161 1                @ ../led_effect.c:1161:1
	add	sp, #92
	pop	{r4, r5, r6, r7, pc}
.Ltmp84:
.Lfunc_end7:
	.size	getFromAToB, .Lfunc_end7-getFromAToB
	.cfi_endproc
	.cantunwind
	.fnend
                                        @ -- End function
	.section	.text.getCircularRing,"ax",%progbits
	.hidden	getCircularRing         @ -- Begin function getCircularRing
	.globl	getCircularRing
	.p2align	1
	.type	getCircularRing,%function
	.code	16                      @ @getCircularRing
	.thumb_func
getCircularRing:
.Lfunc_begin8:
	.loc	2 1164 0                @ ../led_effect.c:1164:0
	.fnstart
	.cfi_startproc
@ %bb.0:
	.save	{r4, r5, r6, r7, lr}
	push	{r4, r5, r6, r7, lr}
	.cfi_def_cfa_offset 20
	.cfi_offset lr, -4
	.cfi_offset r7, -8
	.cfi_offset r6, -12
	.cfi_offset r5, -16
	.cfi_offset r4, -20
	.pad	#52
	sub	sp, #52
	.cfi_def_cfa_offset 72
	mov	r4, r3
	mov	r5, r2
	mov	r6, r1
	mov	r7, r0
	str	r0, [sp, #28]           @ 4-byte Spill
	add	r0, sp, #48
	str	r0, [sp, #24]           @ 4-byte Spill
	ldr	r0, [sp, #28]           @ 4-byte Reload
	str	r1, [sp, #20]           @ 4-byte Spill
	ldr	r1, [sp, #24]           @ 4-byte Reload
	strh	r0, [r1]
	add	r1, sp, #44
	ldr	r0, [sp, #20]           @ 4-byte Reload
	strb	r0, [r1]
	add	r1, sp, #40
	strb	r2, [r1]
	add	r1, sp, #36
	strb	r3, [r1]
	add	r1, sp, #32
.Ltmp85:
	.loc	2 1165 10 prologue_end  @ ../led_effect.c:1165:10
	movs	r2, #0
	strb	r2, [r1]
.Ltmp86:
	.loc	2 1167 7                @ ../led_effect.c:1167:7
	str	r5, [sp, #16]           @ 4-byte Spill
	str	r6, [sp, #12]           @ 4-byte Spill
	str	r7, [sp, #8]            @ 4-byte Spill
	str	r4, [sp, #4]            @ 4-byte Spill
	b	.LBB8_1
.LBB8_1:                                @ =>This Inner Loop Header: Depth=1
	.loc	2 0 7 is_stmt 0         @ ../led_effect.c:0:7
	add	r0, sp, #32
.Ltmp87:
	.loc	2 1167 18               @ ../led_effect.c:1167:18
	ldrb	r0, [r0]
.Ltmp88:
	.loc	2 1167 2                @ ../led_effect.c:1167:2
	cmp	r0, #23
	bgt	.LBB8_4
	b	.LBB8_2
.LBB8_2:                                @   in Loop: Header=BB8_1 Depth=1
	.loc	2 0 2                   @ ../led_effect.c:0:2
	add	r0, sp, #36
.Ltmp89:
	.loc	2 1171 3 is_stmt 1      @ ../led_effect.c:1171:3
	ldrb	r3, [r0]
	add	r0, sp, #40
	ldrb	r2, [r0]
	add	r0, sp, #44
	ldrb	r1, [r0]
	add	r0, sp, #32
	ldrb	r0, [r0]
	bl	setLED_ColorArrange
	.loc	2 1173 6                @ ../led_effect.c:1173:6
	movs	r0, #18
	bl	setLED_Display
	add	r0, sp, #48
	.loc	2 1175 3                @ ../led_effect.c:1175:3
	ldrh	r0, [r0]
	bl	delay_ms
	.loc	2 1176 2                @ ../led_effect.c:1176:2
	b	.LBB8_3
.Ltmp90:
.LBB8_3:                                @   in Loop: Header=BB8_1 Depth=1
	.loc	2 1167 40               @ ../led_effect.c:1167:40
	ldr	r0, [sp, #32]
	adds	r0, r0, #1
	add	r1, sp, #32
	strb	r0, [r1]
	.loc	2 1167 2 is_stmt 0      @ ../led_effect.c:1167:2
	b	.LBB8_1
.Ltmp91:
.LBB8_4:
	.loc	2 1178 2 is_stmt 1      @ ../led_effect.c:1178:2
	bl	setLED_BufferClear
	.loc	2 1180 1                @ ../led_effect.c:1180:1
	add	sp, #52
	pop	{r4, r5, r6, r7, pc}
.Ltmp92:
.Lfunc_end8:
	.size	getCircularRing, .Lfunc_end8-getCircularRing
	.cfi_endproc
	.cantunwind
	.fnend
                                        @ -- End function
	.section	.text.getHeartBeat,"ax",%progbits
	.hidden	getHeartBeat            @ -- Begin function getHeartBeat
	.globl	getHeartBeat
	.p2align	1
	.type	getHeartBeat,%function
	.code	16                      @ @getHeartBeat
	.thumb_func
getHeartBeat:
.Lfunc_begin9:
	.loc	2 1184 0                @ ../led_effect.c:1184:0
	.fnstart
	.cfi_startproc
@ %bb.0:
	.save	{r4, r5, r6, r7, lr}
	push	{r4, r5, r6, r7, lr}
	.cfi_def_cfa_offset 20
	.cfi_offset lr, -4
	.cfi_offset r7, -8
	.cfi_offset r6, -12
	.cfi_offset r5, -16
	.cfi_offset r4, -20
	.pad	#108
	sub	sp, #108
	.cfi_def_cfa_offset 128
	mov	r4, r3
	mov	r5, r2
	mov	r6, r1
	mov	r7, r0
	str	r0, [sp, #56]           @ 4-byte Spill
	add	r0, sp, #104
	str	r0, [sp, #52]           @ 4-byte Spill
	ldr	r0, [sp, #56]           @ 4-byte Reload
	str	r1, [sp, #48]           @ 4-byte Spill
	ldr	r1, [sp, #52]           @ 4-byte Reload
	strh	r0, [r1]
	add	r1, sp, #100
	ldr	r0, [sp, #48]           @ 4-byte Reload
	strb	r0, [r1]
	add	r0, sp, #96
	strb	r2, [r0]
	add	r2, sp, #92
	strb	r3, [r2]
	add	r3, sp, #64
	str	r0, [sp, #44]           @ 4-byte Spill
	movs	r0, #0
.Ltmp93:
	.loc	2 1188 10 prologue_end  @ ../led_effect.c:1188:10
	strb	r0, [r3]
	str	r0, [sp, #40]           @ 4-byte Spill
	add	r0, sp, #60
	.loc	2 1189 10               @ ../led_effect.c:1189:10
	str	r0, [sp, #36]           @ 4-byte Spill
	movs	r0, #35
	str	r1, [sp, #32]           @ 4-byte Spill
	ldr	r1, [sp, #36]           @ 4-byte Reload
	strb	r0, [r1]
	.loc	2 1191 11               @ ../led_effect.c:1191:11
	ldr	r0, [sp, #32]           @ 4-byte Reload
	ldrb	r1, [r0]
	.loc	2 1191 15 is_stmt 0     @ ../led_effect.c:1191:15
	movs	r0, #12
	udiv	r1, r1, r0
	str	r0, [sp, #28]           @ 4-byte Spill
	add	r0, sp, #88
	.loc	2 1191 9                @ ../led_effect.c:1191:9
	strb	r1, [r0]
	.loc	2 1192 13 is_stmt 1     @ ../led_effect.c:1192:13
	ldr	r0, [sp, #44]           @ 4-byte Reload
	ldrb	r1, [r0]
	.loc	2 1192 19 is_stmt 0     @ ../led_effect.c:1192:19
	ldr	r0, [sp, #28]           @ 4-byte Reload
	udiv	r1, r1, r0
	add	r0, sp, #84
	.loc	2 1192 11               @ ../led_effect.c:1192:11
	strb	r1, [r0]
	.loc	2 1193 12 is_stmt 1     @ ../led_effect.c:1193:12
	ldrb	r0, [r2]
	.loc	2 1193 17 is_stmt 0     @ ../led_effect.c:1193:17
	ldr	r1, [sp, #28]           @ 4-byte Reload
	udiv	r0, r0, r1
	add	r2, sp, #80
	.loc	2 1193 10               @ ../led_effect.c:1193:10
	strb	r0, [r2]
	.loc	2 1195 11 is_stmt 1     @ ../led_effect.c:1195:11
	ldr	r0, [sp, #88]
	.loc	2 1195 18 is_stmt 0     @ ../led_effect.c:1195:18
	movs	r2, #11
	mov	r1, r2
	muls	r1, r0, r1
	add	r0, sp, #76
	.loc	2 1195 9                @ ../led_effect.c:1195:9
	strb	r1, [r0]
	.loc	2 1196 13 is_stmt 1     @ ../led_effect.c:1196:13
	ldr	r0, [sp, #84]
	.loc	2 1196 22 is_stmt 0     @ ../led_effect.c:1196:22
	mov	r1, r2
	muls	r1, r0, r1
	add	r0, sp, #72
	.loc	2 1196 11               @ ../led_effect.c:1196:11
	strb	r1, [r0]
	.loc	2 1197 12 is_stmt 1     @ ../led_effect.c:1197:12
	ldr	r0, [sp, #80]
	.loc	2 1197 20 is_stmt 0     @ ../led_effect.c:1197:20
	muls	r2, r0, r2
	add	r0, sp, #68
	.loc	2 1197 10               @ ../led_effect.c:1197:10
	strb	r2, [r0]
	.loc	2 1199 2 is_stmt 1      @ ../led_effect.c:1199:2
	ldr	r0, [sp, #40]           @ 4-byte Reload
	ldr	r1, [sp, #40]           @ 4-byte Reload
	ldr	r2, [sp, #40]           @ 4-byte Reload
	str	r5, [sp, #24]           @ 4-byte Spill
	str	r6, [sp, #20]           @ 4-byte Spill
	str	r7, [sp, #16]           @ 4-byte Spill
	str	r3, [sp, #12]           @ 4-byte Spill
	str	r4, [sp, #8]            @ 4-byte Spill
	bl	setLED_ColorWipe
.Ltmp94:
	.loc	2 1202 13               @ ../led_effect.c:1202:13
	ldr	r0, [sp, #40]           @ 4-byte Reload
	ldr	r1, [sp, #12]           @ 4-byte Reload
	strb	r0, [r1]
	.loc	2 1202 7 is_stmt 0      @ ../led_effect.c:1202:7
	b	.LBB9_1
.LBB9_1:                                @ =>This Inner Loop Header: Depth=1
	.loc	2 0 7                   @ ../led_effect.c:0:7
	add	r0, sp, #64
.Ltmp95:
	.loc	2 1202 18               @ ../led_effect.c:1202:18
	ldrb	r0, [r0]
.Ltmp96:
	.loc	2 1202 2                @ ../led_effect.c:1202:2
	cmp	r0, #11
	bgt	.LBB9_4
	b	.LBB9_2
.LBB9_2:                                @   in Loop: Header=BB9_1 Depth=1
	.loc	2 0 2                   @ ../led_effect.c:0:2
	add	r0, sp, #64
.Ltmp97:
	.loc	2 1204 20 is_stmt 1     @ ../led_effect.c:1204:20
	ldrb	r0, [r0]
	.loc	2 1204 28 is_stmt 0     @ ../led_effect.c:1204:28
	ldr	r1, [sp, #88]
	.loc	2 1204 26               @ ../led_effect.c:1204:26
	muls	r1, r0, r1
	.loc	2 1204 44               @ ../led_effect.c:1204:44
	ldr	r2, [sp, #84]
	.loc	2 1204 42               @ ../led_effect.c:1204:42
	muls	r2, r0, r2
	.loc	2 1204 62               @ ../led_effect.c:1204:62
	ldr	r3, [sp, #80]
	.loc	2 1204 60               @ ../led_effect.c:1204:60
	muls	r3, r0, r3
	.loc	2 1204 3                @ ../led_effect.c:1204:3
	uxtb	r0, r1
	uxtb	r1, r2
	uxtb	r2, r3
	bl	setLED_ColorWipe
	add	r0, sp, #104
	.loc	2 1206 12 is_stmt 1     @ ../led_effect.c:1206:12
	ldrh	r0, [r0]
	add	r1, sp, #60
	.loc	2 1206 20 is_stmt 0     @ ../led_effect.c:1206:20
	ldrb	r1, [r1]
	.loc	2 1206 27               @ ../led_effect.c:1206:27
	adds	r1, #15
	.loc	2 1206 17               @ ../led_effect.c:1206:17
	udiv	r0, r0, r1
	.loc	2 1206 3                @ ../led_effect.c:1206:3
	bl	delay_ms
	.loc	2 1207 3 is_stmt 1      @ ../led_effect.c:1207:3
	bl	setLED_BufferClear
	.loc	2 1208 2                @ ../led_effect.c:1208:2
	b	.LBB9_3
.Ltmp98:
.LBB9_3:                                @   in Loop: Header=BB9_1 Depth=1
	.loc	2 1202 48               @ ../led_effect.c:1202:48
	ldr	r0, [sp, #64]
	adds	r0, r0, #1
	add	r1, sp, #64
	strb	r0, [r1]
	.loc	2 1202 2 is_stmt 0      @ ../led_effect.c:1202:2
	b	.LBB9_1
.Ltmp99:
.LBB9_4:
	.loc	2 0 2                   @ ../led_effect.c:0:2
	add	r0, sp, #64
.Ltmp100:
	.loc	2 1209 13 is_stmt 1     @ ../led_effect.c:1209:13
	movs	r1, #0
	strb	r1, [r0]
	.loc	2 1209 7 is_stmt 0      @ ../led_effect.c:1209:7
	b	.LBB9_5
.LBB9_5:                                @ =>This Inner Loop Header: Depth=1
	.loc	2 0 7                   @ ../led_effect.c:0:7
	add	r0, sp, #64
.Ltmp101:
	.loc	2 1209 18               @ ../led_effect.c:1209:18
	ldrb	r0, [r0]
.Ltmp102:
	.loc	2 1209 2                @ ../led_effect.c:1209:2
	cmp	r0, #11
	bgt	.LBB9_8
	b	.LBB9_6
.LBB9_6:                                @   in Loop: Header=BB9_5 Depth=1
.Ltmp103:
	.loc	2 1211 20 is_stmt 1     @ ../led_effect.c:1211:20
	ldr	r0, [sp, #76]
	add	r1, sp, #64
	.loc	2 1211 29 is_stmt 0     @ ../led_effect.c:1211:29
	ldrb	r1, [r1]
	.loc	2 1211 37               @ ../led_effect.c:1211:37
	ldr	r2, [sp, #88]
	.loc	2 1211 35               @ ../led_effect.c:1211:35
	muls	r2, r1, r2
	.loc	2 1211 27               @ ../led_effect.c:1211:27
	subs	r0, r0, r2
	.loc	2 1211 45               @ ../led_effect.c:1211:45
	ldr	r2, [sp, #72]
	.loc	2 1211 64               @ ../led_effect.c:1211:64
	ldr	r3, [sp, #84]
	.loc	2 1211 62               @ ../led_effect.c:1211:62
	muls	r3, r1, r3
	.loc	2 1211 54               @ ../led_effect.c:1211:54
	subs	r2, r2, r3
	.loc	2 1211 73               @ ../led_effect.c:1211:73
	ldr	r3, [sp, #68]
	.loc	2 1211 91               @ ../led_effect.c:1211:91
	ldr	r4, [sp, #80]
	.loc	2 1211 89               @ ../led_effect.c:1211:89
	muls	r4, r1, r4
	.loc	2 1211 81               @ ../led_effect.c:1211:81
	subs	r1, r3, r4
	.loc	2 1211 3                @ ../led_effect.c:1211:3
	uxtb	r0, r0
	uxtb	r2, r2
	uxtb	r1, r1
	str	r1, [sp, #4]            @ 4-byte Spill
	mov	r1, r2
	ldr	r2, [sp, #4]            @ 4-byte Reload
	bl	setLED_ColorWipe
	add	r0, sp, #104
	.loc	2 1213 12 is_stmt 1     @ ../led_effect.c:1213:12
	ldrh	r0, [r0]
	add	r1, sp, #60
	.loc	2 1213 20 is_stmt 0     @ ../led_effect.c:1213:20
	ldrb	r1, [r1]
	.loc	2 1213 27               @ ../led_effect.c:1213:27
	adds	r1, #10
	.loc	2 1213 17               @ ../led_effect.c:1213:17
	udiv	r0, r0, r1
	.loc	2 1213 3                @ ../led_effect.c:1213:3
	bl	delay_ms
	.loc	2 1214 3 is_stmt 1      @ ../led_effect.c:1214:3
	bl	setLED_BufferClear
	.loc	2 1215 2                @ ../led_effect.c:1215:2
	b	.LBB9_7
.Ltmp104:
.LBB9_7:                                @   in Loop: Header=BB9_5 Depth=1
	.loc	2 1209 48               @ ../led_effect.c:1209:48
	ldr	r0, [sp, #64]
	adds	r0, r0, #1
	add	r1, sp, #64
	strb	r0, [r1]
	.loc	2 1209 2 is_stmt 0      @ ../led_effect.c:1209:2
	b	.LBB9_5
.Ltmp105:
.LBB9_8:
	.loc	2 0 2                   @ ../led_effect.c:0:2
	add	r0, sp, #64
.Ltmp106:
	.loc	2 1218 13 is_stmt 1     @ ../led_effect.c:1218:13
	movs	r1, #0
	strb	r1, [r0]
	.loc	2 1218 7 is_stmt 0      @ ../led_effect.c:1218:7
	b	.LBB9_9
.LBB9_9:                                @ =>This Inner Loop Header: Depth=1
	.loc	2 0 7                   @ ../led_effect.c:0:7
	add	r0, sp, #64
.Ltmp107:
	.loc	2 1218 18               @ ../led_effect.c:1218:18
	ldrb	r0, [r0]
.Ltmp108:
	.loc	2 1218 2                @ ../led_effect.c:1218:2
	cmp	r0, #11
	bgt	.LBB9_12
	b	.LBB9_10
.LBB9_10:                               @   in Loop: Header=BB9_9 Depth=1
	.loc	2 0 2                   @ ../led_effect.c:0:2
	add	r0, sp, #64
.Ltmp109:
	.loc	2 1220 20 is_stmt 1     @ ../led_effect.c:1220:20
	ldrb	r0, [r0]
	.loc	2 1220 28 is_stmt 0     @ ../led_effect.c:1220:28
	ldr	r1, [sp, #88]
	.loc	2 1220 26               @ ../led_effect.c:1220:26
	muls	r1, r0, r1
	.loc	2 1220 44               @ ../led_effect.c:1220:44
	ldr	r2, [sp, #84]
	.loc	2 1220 42               @ ../led_effect.c:1220:42
	muls	r2, r0, r2
	.loc	2 1220 62               @ ../led_effect.c:1220:62
	ldr	r3, [sp, #80]
	.loc	2 1220 60               @ ../led_effect.c:1220:60
	muls	r3, r0, r3
	.loc	2 1220 3                @ ../led_effect.c:1220:3
	uxtb	r0, r1
	uxtb	r1, r2
	uxtb	r2, r3
	bl	setLED_ColorWipe
	add	r0, sp, #104
	.loc	2 1222 12 is_stmt 1     @ ../led_effect.c:1222:12
	ldrh	r0, [r0]
	add	r1, sp, #60
	.loc	2 1222 20 is_stmt 0     @ ../led_effect.c:1222:20
	ldrb	r1, [r1]
	.loc	2 1222 27               @ ../led_effect.c:1222:27
	adds	r1, r1, #5
	.loc	2 1222 17               @ ../led_effect.c:1222:17
	udiv	r0, r0, r1
	.loc	2 1222 3                @ ../led_effect.c:1222:3
	bl	delay_ms
	.loc	2 1223 3 is_stmt 1      @ ../led_effect.c:1223:3
	bl	setLED_BufferClear
	.loc	2 1224 2                @ ../led_effect.c:1224:2
	b	.LBB9_11
.Ltmp110:
.LBB9_11:                               @   in Loop: Header=BB9_9 Depth=1
	.loc	2 1218 48               @ ../led_effect.c:1218:48
	ldr	r0, [sp, #64]
	adds	r0, r0, #1
	add	r1, sp, #64
	strb	r0, [r1]
	.loc	2 1218 2 is_stmt 0      @ ../led_effect.c:1218:2
	b	.LBB9_9
.Ltmp111:
.LBB9_12:
	.loc	2 0 2                   @ ../led_effect.c:0:2
	add	r0, sp, #64
.Ltmp112:
	.loc	2 1225 13 is_stmt 1     @ ../led_effect.c:1225:13
	movs	r1, #0
	strb	r1, [r0]
	.loc	2 1225 7 is_stmt 0      @ ../led_effect.c:1225:7
	b	.LBB9_13
.LBB9_13:                               @ =>This Inner Loop Header: Depth=1
	.loc	2 0 7                   @ ../led_effect.c:0:7
	add	r0, sp, #64
.Ltmp113:
	.loc	2 1225 18               @ ../led_effect.c:1225:18
	ldrb	r0, [r0]
.Ltmp114:
	.loc	2 1225 2                @ ../led_effect.c:1225:2
	cmp	r0, #11
	bgt	.LBB9_16
	b	.LBB9_14
.LBB9_14:                               @   in Loop: Header=BB9_13 Depth=1
.Ltmp115:
	.loc	2 1227 20 is_stmt 1     @ ../led_effect.c:1227:20
	ldr	r0, [sp, #76]
	add	r1, sp, #64
	.loc	2 1227 29 is_stmt 0     @ ../led_effect.c:1227:29
	ldrb	r1, [r1]
	.loc	2 1227 37               @ ../led_effect.c:1227:37
	ldr	r2, [sp, #88]
	.loc	2 1227 35               @ ../led_effect.c:1227:35
	muls	r2, r1, r2
	.loc	2 1227 27               @ ../led_effect.c:1227:27
	subs	r0, r0, r2
	.loc	2 1227 45               @ ../led_effect.c:1227:45
	ldr	r2, [sp, #72]
	.loc	2 1227 64               @ ../led_effect.c:1227:64
	ldr	r3, [sp, #84]
	.loc	2 1227 62               @ ../led_effect.c:1227:62
	muls	r3, r1, r3
	.loc	2 1227 54               @ ../led_effect.c:1227:54
	subs	r2, r2, r3
	.loc	2 1227 73               @ ../led_effect.c:1227:73
	ldr	r3, [sp, #68]
	.loc	2 1227 91               @ ../led_effect.c:1227:91
	ldr	r4, [sp, #80]
	.loc	2 1227 89               @ ../led_effect.c:1227:89
	muls	r4, r1, r4
	.loc	2 1227 81               @ ../led_effect.c:1227:81
	subs	r1, r3, r4
	.loc	2 1227 3                @ ../led_effect.c:1227:3
	uxtb	r0, r0
	uxtb	r2, r2
	uxtb	r1, r1
	str	r1, [sp]                @ 4-byte Spill
	mov	r1, r2
	ldr	r2, [sp]                @ 4-byte Reload
	bl	setLED_ColorWipe
	add	r0, sp, #104
	.loc	2 1229 12 is_stmt 1     @ ../led_effect.c:1229:12
	ldrh	r0, [r0]
	add	r1, sp, #60
	.loc	2 1229 19 is_stmt 0     @ ../led_effect.c:1229:19
	ldrb	r1, [r1]
	.loc	2 1229 17               @ ../led_effect.c:1229:17
	udiv	r0, r0, r1
	.loc	2 1229 3                @ ../led_effect.c:1229:3
	bl	delay_ms
	.loc	2 1230 3 is_stmt 1      @ ../led_effect.c:1230:3
	bl	setLED_BufferClear
	.loc	2 1231 2                @ ../led_effect.c:1231:2
	b	.LBB9_15
.Ltmp116:
.LBB9_15:                               @   in Loop: Header=BB9_13 Depth=1
	.loc	2 1225 48               @ ../led_effect.c:1225:48
	ldr	r0, [sp, #64]
	adds	r0, r0, #1
	add	r1, sp, #64
	strb	r0, [r1]
	.loc	2 1225 2 is_stmt 0      @ ../led_effect.c:1225:2
	b	.LBB9_13
.Ltmp117:
.LBB9_16:
	.loc	2 1235 1 is_stmt 1      @ ../led_effect.c:1235:1
	add	sp, #108
	pop	{r4, r5, r6, r7, pc}
.Ltmp118:
.Lfunc_end9:
	.size	getHeartBeat, .Lfunc_end9-getHeartBeat
	.cfi_endproc
	.cantunwind
	.fnend
                                        @ -- End function
	.section	.text.getAllColors,"ax",%progbits
	.hidden	getAllColors            @ -- Begin function getAllColors
	.globl	getAllColors
	.p2align	2
	.type	getAllColors,%function
	.code	16                      @ @getAllColors
	.thumb_func
getAllColors:
.Lfunc_begin10:
	.loc	2 1239 0                @ ../led_effect.c:1239:0
	.fnstart
	.cfi_startproc
@ %bb.0:
	.save	{r7, lr}
	push	{r7, lr}
	.cfi_def_cfa_offset 8
	.cfi_offset lr, -4
	.cfi_offset r7, -8
	.pad	#16
	sub	sp, #16
	.cfi_def_cfa_offset 24
	mov	r1, r0
	add	r2, sp, #12
	strh	r0, [r2]
	add	r0, sp, #8
	movs	r2, #0
.Ltmp119:
	.loc	2 1240 11 prologue_end  @ ../led_effect.c:1240:11
	strh	r2, [r0]
	add	r3, sp, #4
	.loc	2 1241 10               @ ../led_effect.c:1241:10
	strb	r2, [r3]
.Ltmp120:
	.loc	2 1243 13               @ ../led_effect.c:1243:13
	strh	r2, [r0]
	.loc	2 1243 7 is_stmt 0      @ ../led_effect.c:1243:7
	str	r1, [sp]                @ 4-byte Spill
	b	.LBB10_1
.LBB10_1:                               @ =>This Loop Header: Depth=1
                                        @     Child Loop BB10_3 Depth 2
	.loc	2 0 7                   @ ../led_effect.c:0:7
	add	r0, sp, #8
.Ltmp121:
	.loc	2 1243 17               @ ../led_effect.c:1243:17
	ldrh	r0, [r0]
.Ltmp122:
	.loc	2 1243 2                @ ../led_effect.c:1243:2
	ldr	r1, __arm_cp.10_0
	cmp	r0, r1
	bgt	.LBB10_8
	b	.LBB10_2
.LBB10_2:                               @   in Loop: Header=BB10_1 Depth=1
	.loc	2 0 2                   @ ../led_effect.c:0:2
	add	r0, sp, #4
.Ltmp123:
	.loc	2 1246 12 is_stmt 1     @ ../led_effect.c:1246:12
	movs	r1, #0
	strb	r1, [r0]
	.loc	2 1246 8 is_stmt 0      @ ../led_effect.c:1246:8
	b	.LBB10_3
.LBB10_3:                               @   Parent Loop BB10_1 Depth=1
                                        @ =>  This Inner Loop Header: Depth=2
	.loc	2 0 8                   @ ../led_effect.c:0:8
	add	r0, sp, #4
.Ltmp124:
	.loc	2 1246 17               @ ../led_effect.c:1246:17
	ldrb	r0, [r0]
.Ltmp125:
	.loc	2 1246 3                @ ../led_effect.c:1246:3
	cmp	r0, #23
	bgt	.LBB10_6
	b	.LBB10_4
.LBB10_4:                               @   in Loop: Header=BB10_3 Depth=2
	.loc	2 0 3                   @ ../led_effect.c:0:3
	add	r0, sp, #8
.Ltmp126:
	.loc	2 1248 28 is_stmt 1     @ ../led_effect.c:1248:28
	ldrh	r0, [r0]
	movs	r1, #3
	muls	r1, r0, r1
	ldr	r0, __arm_cp.10_1
	adds	r2, r0, r1
	.loc	2 1248 4 is_stmt 0      @ ../led_effect.c:1248:4
	ldrb	r1, [r0, r1]
	ldrb	r3, [r2, #2]
	ldrb	r2, [r2, #1]
	add	r0, sp, #4
	ldrb	r0, [r0]
	bl	setLED_ColorArrange
	.loc	2 1249 3 is_stmt 1      @ ../led_effect.c:1249:3
	b	.LBB10_5
.Ltmp127:
.LBB10_5:                               @   in Loop: Header=BB10_3 Depth=2
	.loc	2 1246 35               @ ../led_effect.c:1246:35
	ldr	r0, [sp, #4]
	adds	r0, r0, #1
	add	r1, sp, #4
	strb	r0, [r1]
	.loc	2 1246 3 is_stmt 0      @ ../led_effect.c:1246:3
	b	.LBB10_3
.Ltmp128:
.LBB10_6:                               @   in Loop: Header=BB10_1 Depth=1
	.loc	2 1262 3 is_stmt 1      @ ../led_effect.c:1262:3
	movs	r0, #18
	bl	setLED_Display
	add	r0, sp, #12
	.loc	2 1264 3                @ ../led_effect.c:1264:3
	ldrh	r0, [r0]
	bl	delay_ms
	.loc	2 1266 3                @ ../led_effect.c:1266:3
	bl	setLED_BufferClear
	.loc	2 1267 2                @ ../led_effect.c:1267:2
	b	.LBB10_7
.Ltmp129:
.LBB10_7:                               @   in Loop: Header=BB10_1 Depth=1
	.loc	2 1243 45               @ ../led_effect.c:1243:45
	ldr	r0, [sp, #8]
	adds	r0, r0, #1
	add	r1, sp, #8
	strh	r0, [r1]
	.loc	2 1243 2 is_stmt 0      @ ../led_effect.c:1243:2
	b	.LBB10_1
.Ltmp130:
.LBB10_8:
	.loc	2 1268 1 is_stmt 1      @ ../led_effect.c:1268:1
	add	sp, #16
	pop	{r7, pc}
.Ltmp131:
	.p2align	2
@ %bb.9:
	.loc	2 0 1 is_stmt 0         @ ../led_effect.c:0:1
__arm_cp.10_0:
	.long	765                     @ 0x2fd
.Lcpi_end10:
	.size	__arm_cp.10_0, .Lcpi_end10-__arm_cp.10_0
__arm_cp.10_1:
	.long	colorsFull
.Lcpi_end11:
	.size	__arm_cp.10_1, .Lcpi_end11-__arm_cp.10_1
.Lfunc_end10:
	.size	getAllColors, .Lfunc_end10-getAllColors
	.cfi_endproc
	.cantunwind
	.fnend
                                        @ -- End function
	.section	.text.getColorWheel,"ax",%progbits
	.hidden	getColorWheel           @ -- Begin function getColorWheel
	.globl	getColorWheel
	.p2align	2
	.type	getColorWheel,%function
	.code	16                      @ @getColorWheel
	.thumb_func
getColorWheel:
.Lfunc_begin11:
	.loc	2 1271 0 is_stmt 1      @ ../led_effect.c:1271:0
	.fnstart
	.cfi_startproc
@ %bb.0:
	.save	{r4, r5, r7, lr}
	push	{r4, r5, r7, lr}
	.cfi_def_cfa_offset 16
	.cfi_offset lr, -4
	.cfi_offset r7, -8
	.cfi_offset r5, -12
	.cfi_offset r4, -16
	.pad	#40
	sub	sp, #40
	.cfi_def_cfa_offset 56
	mov	r1, r0
	add	r2, sp, #36
	strh	r0, [r2]
	add	r0, sp, #32
	movs	r2, #0
.Ltmp132:
	.loc	2 1272 11 prologue_end  @ ../led_effect.c:1272:11
	strh	r2, [r0]
	add	r0, sp, #28
	.loc	2 1273 10               @ ../led_effect.c:1273:10
	strb	r2, [r0]
	add	r3, sp, #24
	.loc	2 1273 19 is_stmt 0     @ ../led_effect.c:1273:19
	strb	r2, [r3]
	.loc	2 1276 2 is_stmt 1      @ ../led_effect.c:1276:2
	str	r1, [sp, #20]           @ 4-byte Spill
	str	r2, [sp, #16]           @ 4-byte Spill
	str	r0, [sp, #12]           @ 4-byte Spill
	bl	setLED_BufferClear
.Ltmp133:
	.loc	2 1278 11               @ ../led_effect.c:1278:11
	ldr	r0, [sp, #16]           @ 4-byte Reload
	ldr	r1, [sp, #12]           @ 4-byte Reload
	strb	r0, [r1]
	.loc	2 1278 7 is_stmt 0      @ ../led_effect.c:1278:7
	b	.LBB11_1
.LBB11_1:                               @ =>This Inner Loop Header: Depth=1
	.loc	2 0 7                   @ ../led_effect.c:0:7
	add	r0, sp, #28
.Ltmp134:
	.loc	2 1278 16               @ ../led_effect.c:1278:16
	ldrb	r0, [r0]
.Ltmp135:
	.loc	2 1278 2                @ ../led_effect.c:1278:2
	cmp	r0, #23
	bgt	.LBB11_4
	b	.LBB11_2
.LBB11_2:                               @   in Loop: Header=BB11_1 Depth=1
	.loc	2 0 2                   @ ../led_effect.c:0:2
	add	r0, sp, #32
.Ltmp136:
	.loc	2 1280 17 is_stmt 1     @ ../led_effect.c:1280:17
	ldrh	r1, [r0]
	add	r2, sp, #28
	.loc	2 1280 25 is_stmt 0     @ ../led_effect.c:1280:25
	ldrb	r3, [r2]
	.loc	2 1280 29               @ ../led_effect.c:1280:29
	movs	r4, #31
	muls	r4, r3, r4
	.loc	2 1280 23               @ ../led_effect.c:1280:23
	adds	r1, r1, r4
	.loc	2 1280 59               @ ../led_effect.c:1280:59
	ldr	r3, __arm_cp.11_0
	udiv	r4, r1, r3
	mov	r5, r3
	muls	r5, r4, r5
	subs	r1, r1, r5
	add	r4, sp, #24
	.loc	2 1280 14               @ ../led_effect.c:1280:14
	strb	r1, [r4]
	.loc	2 1282 28 is_stmt 1     @ ../led_effect.c:1282:28
	ldrb	r1, [r4]
	movs	r4, #3
	muls	r4, r1, r4
	ldr	r1, __arm_cp.11_1
	adds	r5, r1, r4
	.loc	2 1282 3 is_stmt 0      @ ../led_effect.c:1282:3
	ldrb	r1, [r1, r4]
	ldrb	r4, [r5, #2]
	ldrb	r5, [r5, #1]
	ldrb	r2, [r2]
	str	r0, [sp, #8]            @ 4-byte Spill
	mov	r0, r2
	mov	r2, r5
	str	r3, [sp, #4]            @ 4-byte Spill
	mov	r3, r4
	bl	setLED_ColorArrange
	.loc	2 1284 3 is_stmt 1      @ ../led_effect.c:1284:3
	movs	r0, #18
	bl	setLED_Display
	add	r0, sp, #36
	.loc	2 1286 3                @ ../led_effect.c:1286:3
	ldrh	r0, [r0]
	bl	delay_ms
	.loc	2 1288 9                @ ../led_effect.c:1288:9
	ldr	r0, [sp, #32]
	adds	r0, #31
	ldr	r1, [sp, #8]            @ 4-byte Reload
	strh	r0, [r1]
	.loc	2 1289 9                @ ../led_effect.c:1289:9
	ldrh	r0, [r1]
	ldr	r2, [sp, #4]            @ 4-byte Reload
	udiv	r3, r0, r2
	muls	r2, r3, r2
	subs	r0, r0, r2
	strh	r0, [r1]
	.loc	2 1290 2                @ ../led_effect.c:1290:2
	b	.LBB11_3
.Ltmp137:
.LBB11_3:                               @   in Loop: Header=BB11_1 Depth=1
	.loc	2 1278 34               @ ../led_effect.c:1278:34
	ldr	r0, [sp, #28]
	adds	r0, r0, #1
	add	r1, sp, #28
	strb	r0, [r1]
	.loc	2 1278 2 is_stmt 0      @ ../led_effect.c:1278:2
	b	.LBB11_1
.Ltmp138:
.LBB11_4:
	.loc	2 1291 1 is_stmt 1      @ ../led_effect.c:1291:1
	add	sp, #40
	pop	{r4, r5, r7, pc}
.Ltmp139:
	.p2align	2
@ %bb.5:
	.loc	2 0 1 is_stmt 0         @ ../led_effect.c:0:1
__arm_cp.11_0:
	.long	766                     @ 0x2fe
.Lcpi_end12:
	.size	__arm_cp.11_0, .Lcpi_end12-__arm_cp.11_0
__arm_cp.11_1:
	.long	colorsFull
.Lcpi_end13:
	.size	__arm_cp.11_1, .Lcpi_end13-__arm_cp.11_1
.Lfunc_end11:
	.size	getColorWheel, .Lfunc_end11-getColorWheel
	.cfi_endproc
	.cantunwind
	.fnend
                                        @ -- End function
	.section	.text.getPatternMove,"ax",%progbits
	.hidden	getPatternMove          @ -- Begin function getPatternMove
	.globl	getPatternMove
	.p2align	1
	.type	getPatternMove,%function
	.code	16                      @ @getPatternMove
	.thumb_func
getPatternMove:
.Lfunc_begin12:
	.loc	2 1295 0 is_stmt 1      @ ../led_effect.c:1295:0
	.fnstart
	.cfi_startproc
@ %bb.0:
	.save	{r4, r5, r6, r7, lr}
	push	{r4, r5, r6, r7, lr}
	.cfi_def_cfa_offset 20
	.cfi_offset lr, -4
	.cfi_offset r7, -8
	.cfi_offset r6, -12
	.cfi_offset r5, -16
	.cfi_offset r4, -20
	.pad	#68
	sub	sp, #68
	.cfi_def_cfa_offset 88
	ldr	r4, [sp, #88]
	mov	r5, r3
	mov	r6, r2
	mov	r7, r1
	str	r0, [sp, #32]           @ 4-byte Spill
	str	r0, [sp, #28]           @ 4-byte Spill
	add	r0, sp, #64
	str	r0, [sp, #24]           @ 4-byte Spill
	ldr	r0, [sp, #32]           @ 4-byte Reload
	str	r1, [sp, #20]           @ 4-byte Spill
	ldr	r1, [sp, #24]           @ 4-byte Reload
	strh	r0, [r1]
	add	r1, sp, #60
	ldr	r0, [sp, #20]           @ 4-byte Reload
	strh	r0, [r1]
	add	r0, sp, #56
	strb	r2, [r0]
	add	r0, sp, #52
	strb	r3, [r0]
	add	r0, sp, #48
	strb	r4, [r0]
	add	r0, sp, #44
.Ltmp140:
	.loc	2 1296 10 prologue_end  @ ../led_effect.c:1296:10
	movs	r2, #0
	strb	r2, [r0]
	.loc	2 1300 24               @ ../led_effect.c:1300:24
	ldrh	r1, [r1]
	.loc	2 1300 22 is_stmt 0     @ ../led_effect.c:1300:22
	movs	r3, #24
	udiv	r1, r3, r1
	add	r3, sp, #40
	.loc	2 1300 12               @ ../led_effect.c:1300:12
	strh	r1, [r3]
	.loc	2 1303 3 is_stmt 1      @ ../led_effect.c:1303:3
	str	r5, [sp, #16]           @ 4-byte Spill
	str	r2, [sp, #12]           @ 4-byte Spill
	str	r7, [sp, #8]            @ 4-byte Spill
	str	r6, [sp, #4]            @ 4-byte Spill
	str	r0, [sp]                @ 4-byte Spill
	bl	setLED_BufferClear
.Ltmp141:
	.loc	2 1305 13               @ ../led_effect.c:1305:13
	ldr	r0, [sp, #12]           @ 4-byte Reload
	ldr	r1, [sp]                @ 4-byte Reload
	strb	r0, [r1]
	.loc	2 1305 7 is_stmt 0      @ ../led_effect.c:1305:7
	b	.LBB12_1
.LBB12_1:                               @ =>This Loop Header: Depth=1
                                        @     Child Loop BB12_3 Depth 2
	.loc	2 0 7                   @ ../led_effect.c:0:7
	add	r0, sp, #44
.Ltmp142:
	.loc	2 1305 18               @ ../led_effect.c:1305:18
	ldrb	r0, [r0]
.Ltmp143:
	.loc	2 1305 2                @ ../led_effect.c:1305:2
	cmp	r0, #23
	bgt	.LBB12_8
	b	.LBB12_2
.LBB12_2:                               @   in Loop: Header=BB12_1 Depth=1
.Ltmp144:
	.loc	2 1308 3 is_stmt 1      @ ../led_effect.c:1308:3
	bl	setLED_BufferClear
	add	r0, sp, #36
.Ltmp145:
	.loc	2 1310 10               @ ../led_effect.c:1310:10
	movs	r1, #0
	strh	r1, [r0]
	.loc	2 1310 8 is_stmt 0      @ ../led_effect.c:1310:8
	b	.LBB12_3
.LBB12_3:                               @   Parent Loop BB12_1 Depth=1
                                        @ =>  This Inner Loop Header: Depth=2
	.loc	2 0 8                   @ ../led_effect.c:0:8
	add	r0, sp, #36
.Ltmp146:
	.loc	2 1310 15               @ ../led_effect.c:1310:15
	ldrh	r0, [r0]
	add	r1, sp, #60
	.loc	2 1310 19               @ ../led_effect.c:1310:19
	ldrh	r1, [r1]
.Ltmp147:
	.loc	2 1310 3                @ ../led_effect.c:1310:3
	cmp	r0, r1
	bge	.LBB12_6
	b	.LBB12_4
.LBB12_4:                               @   in Loop: Header=BB12_3 Depth=2
.Ltmp148:
	.loc	2 1312 24 is_stmt 1     @ ../led_effect.c:1312:24
	ldr	r0, [sp, #44]
	.loc	2 1312 32 is_stmt 0     @ ../led_effect.c:1312:32
	ldr	r1, [sp, #36]
	.loc	2 1312 36               @ ../led_effect.c:1312:36
	ldr	r2, [sp, #40]
	.loc	2 1312 34               @ ../led_effect.c:1312:34
	muls	r2, r1, r2
	.loc	2 1312 30               @ ../led_effect.c:1312:30
	adds	r0, r0, r2
	.loc	2 1312 4                @ ../led_effect.c:1312:4
	uxtb	r0, r0
	add	r1, sp, #48
	ldrb	r3, [r1]
	add	r1, sp, #52
	ldrb	r2, [r1]
	add	r1, sp, #56
	ldrb	r1, [r1]
	bl	setLED_ColorArrange
	.loc	2 1313 3 is_stmt 1      @ ../led_effect.c:1313:3
	b	.LBB12_5
.Ltmp149:
.LBB12_5:                               @   in Loop: Header=BB12_3 Depth=2
	.loc	2 1310 27               @ ../led_effect.c:1310:27
	ldr	r0, [sp, #36]
	adds	r0, r0, #1
	add	r1, sp, #36
	strh	r0, [r1]
	.loc	2 1310 3 is_stmt 0      @ ../led_effect.c:1310:3
	b	.LBB12_3
.Ltmp150:
.LBB12_6:                               @   in Loop: Header=BB12_1 Depth=1
	.loc	2 1315 3 is_stmt 1      @ ../led_effect.c:1315:3
	movs	r0, #18
	bl	setLED_Display
	add	r0, sp, #64
	.loc	2 1317 3                @ ../led_effect.c:1317:3
	ldrh	r0, [r0]
	bl	delay_ms
	.loc	2 1320 2                @ ../led_effect.c:1320:2
	b	.LBB12_7
.Ltmp151:
.LBB12_7:                               @   in Loop: Header=BB12_1 Depth=1
	.loc	2 1305 40               @ ../led_effect.c:1305:40
	ldr	r0, [sp, #44]
	adds	r0, r0, #1
	add	r1, sp, #44
	strb	r0, [r1]
	.loc	2 1305 2 is_stmt 0      @ ../led_effect.c:1305:2
	b	.LBB12_1
.Ltmp152:
.LBB12_8:
	.loc	2 1321 1 is_stmt 1      @ ../led_effect.c:1321:1
	add	sp, #68
	pop	{r4, r5, r6, r7, pc}
.Ltmp153:
.Lfunc_end12:
	.size	getPatternMove, .Lfunc_end12-getPatternMove
	.cfi_endproc
	.cantunwind
	.fnend
                                        @ -- End function
	.section	.text.getFullEmpty,"ax",%progbits
	.hidden	getFullEmpty            @ -- Begin function getFullEmpty
	.globl	getFullEmpty
	.p2align	1
	.type	getFullEmpty,%function
	.code	16                      @ @getFullEmpty
	.thumb_func
getFullEmpty:
.Lfunc_begin13:
	.loc	2 1324 0                @ ../led_effect.c:1324:0
	.fnstart
	.cfi_startproc
@ %bb.0:
	.save	{r4, r5, r6, r7, lr}
	push	{r4, r5, r6, r7, lr}
	.cfi_def_cfa_offset 20
	.cfi_offset lr, -4
	.cfi_offset r7, -8
	.cfi_offset r6, -12
	.cfi_offset r5, -16
	.cfi_offset r4, -20
	.pad	#52
	sub	sp, #52
	.cfi_def_cfa_offset 72
	mov	r4, r3
	mov	r5, r2
	mov	r6, r1
	mov	r7, r0
	str	r0, [sp, #28]           @ 4-byte Spill
	add	r0, sp, #48
	str	r0, [sp, #24]           @ 4-byte Spill
	ldr	r0, [sp, #28]           @ 4-byte Reload
	str	r1, [sp, #20]           @ 4-byte Spill
	ldr	r1, [sp, #24]           @ 4-byte Reload
	strh	r0, [r1]
	add	r1, sp, #44
	ldr	r0, [sp, #20]           @ 4-byte Reload
	strb	r0, [r1]
	add	r1, sp, #40
	strb	r2, [r1]
	add	r1, sp, #36
	strb	r3, [r1]
	add	r1, sp, #32
.Ltmp154:
	.loc	2 1325 10 prologue_end  @ ../led_effect.c:1325:10
	movs	r2, #0
	strb	r2, [r1]
.Ltmp155:
	.loc	2 1329 7                @ ../led_effect.c:1329:7
	str	r5, [sp, #16]           @ 4-byte Spill
	str	r6, [sp, #12]           @ 4-byte Spill
	str	r7, [sp, #8]            @ 4-byte Spill
	str	r4, [sp, #4]            @ 4-byte Spill
	b	.LBB13_1
.LBB13_1:                               @ =>This Inner Loop Header: Depth=1
	.loc	2 0 7 is_stmt 0         @ ../led_effect.c:0:7
	add	r0, sp, #32
.Ltmp156:
	.loc	2 1329 18               @ ../led_effect.c:1329:18
	ldrb	r0, [r0]
.Ltmp157:
	.loc	2 1329 2                @ ../led_effect.c:1329:2
	cmp	r0, #23
	bgt	.LBB13_4
	b	.LBB13_2
.LBB13_2:                               @   in Loop: Header=BB13_1 Depth=1
	.loc	2 0 2                   @ ../led_effect.c:0:2
	add	r0, sp, #36
.Ltmp158:
	.loc	2 1331 3 is_stmt 1      @ ../led_effect.c:1331:3
	ldrb	r3, [r0]
	add	r0, sp, #40
	ldrb	r2, [r0]
	add	r0, sp, #44
	ldrb	r1, [r0]
	add	r0, sp, #32
	ldrb	r0, [r0]
	bl	setLED_ColorArrange
	.loc	2 1333 3                @ ../led_effect.c:1333:3
	movs	r0, #18
	bl	setLED_Display
	add	r0, sp, #48
	.loc	2 1335 3                @ ../led_effect.c:1335:3
	ldrh	r0, [r0]
	bl	delay_ms
	.loc	2 1336 2                @ ../led_effect.c:1336:2
	b	.LBB13_3
.Ltmp159:
.LBB13_3:                               @   in Loop: Header=BB13_1 Depth=1
	.loc	2 1329 40               @ ../led_effect.c:1329:40
	ldr	r0, [sp, #32]
	adds	r0, r0, #1
	add	r1, sp, #32
	strb	r0, [r1]
	.loc	2 1329 2 is_stmt 0      @ ../led_effect.c:1329:2
	b	.LBB13_1
.Ltmp160:
.LBB13_4:
	.loc	2 0 2                   @ ../led_effect.c:0:2
	add	r0, sp, #32
.Ltmp161:
	.loc	2 1338 13 is_stmt 1     @ ../led_effect.c:1338:13
	movs	r1, #0
	strb	r1, [r0]
	.loc	2 1338 7 is_stmt 0      @ ../led_effect.c:1338:7
	b	.LBB13_5
.LBB13_5:                               @ =>This Inner Loop Header: Depth=1
	.loc	2 0 7                   @ ../led_effect.c:0:7
	add	r0, sp, #32
.Ltmp162:
	.loc	2 1338 18               @ ../led_effect.c:1338:18
	ldrb	r0, [r0]
.Ltmp163:
	.loc	2 1338 2                @ ../led_effect.c:1338:2
	cmp	r0, #23
	bgt	.LBB13_8
	b	.LBB13_6
.LBB13_6:                               @   in Loop: Header=BB13_5 Depth=1
	.loc	2 0 2                   @ ../led_effect.c:0:2
	add	r0, sp, #32
.Ltmp164:
	.loc	2 1340 3 is_stmt 1      @ ../led_effect.c:1340:3
	ldrb	r0, [r0]
	movs	r1, #0
	str	r1, [sp]                @ 4-byte Spill
	ldr	r2, [sp]                @ 4-byte Reload
	ldr	r3, [sp]                @ 4-byte Reload
	bl	setLED_ColorArrange
	.loc	2 1342 3                @ ../led_effect.c:1342:3
	movs	r0, #18
	bl	setLED_Display
	add	r0, sp, #48
	.loc	2 1344 3                @ ../led_effect.c:1344:3
	ldrh	r0, [r0]
	bl	delay_ms
	.loc	2 1345 2                @ ../led_effect.c:1345:2
	b	.LBB13_7
.Ltmp165:
.LBB13_7:                               @   in Loop: Header=BB13_5 Depth=1
	.loc	2 1338 40               @ ../led_effect.c:1338:40
	ldr	r0, [sp, #32]
	adds	r0, r0, #1
	add	r1, sp, #32
	strb	r0, [r1]
	.loc	2 1338 2 is_stmt 0      @ ../led_effect.c:1338:2
	b	.LBB13_5
.Ltmp166:
.LBB13_8:
	.loc	2 1347 2 is_stmt 1      @ ../led_effect.c:1347:2
	bl	setLED_BufferClear
	.loc	2 1348 1                @ ../led_effect.c:1348:1
	add	sp, #52
	pop	{r4, r5, r6, r7, pc}
.Ltmp167:
.Lfunc_end13:
	.size	getFullEmpty, .Lfunc_end13-getFullEmpty
	.cfi_endproc
	.cantunwind
	.fnend
                                        @ -- End function
	.section	.text.getAlternateColors,"ax",%progbits
	.hidden	getAlternateColors      @ -- Begin function getAlternateColors
	.globl	getAlternateColors
	.p2align	1
	.type	getAlternateColors,%function
	.code	16                      @ @getAlternateColors
	.thumb_func
getAlternateColors:
.Lfunc_begin14:
	.loc	2 1353 0                @ ../led_effect.c:1353:0
	.fnstart
	.cfi_startproc
@ %bb.0:
	.save	{r4, r5, r6, r7, lr}
	push	{r4, r5, r6, r7, lr}
	.cfi_def_cfa_offset 20
	.cfi_offset lr, -4
	.cfi_offset r7, -8
	.cfi_offset r6, -12
	.cfi_offset r5, -16
	.cfi_offset r4, -20
	.pad	#92
	sub	sp, #92
	.cfi_def_cfa_offset 112
	ldr	r4, [sp, #124]
	ldr	r5, [sp, #120]
	ldr	r6, [sp, #116]
	ldr	r7, [sp, #112]
	str	r0, [sp, #40]           @ 4-byte Spill
	mov	r0, r3
	str	r0, [sp, #36]           @ 4-byte Spill
	mov	r0, r2
	str	r0, [sp, #32]           @ 4-byte Spill
	mov	r0, r1
	str	r0, [sp, #28]           @ 4-byte Spill
	ldr	r0, [sp, #40]           @ 4-byte Reload
	str	r0, [sp, #24]           @ 4-byte Spill
	add	r0, sp, #88
	str	r0, [sp, #20]           @ 4-byte Spill
	ldr	r0, [sp, #40]           @ 4-byte Reload
	str	r1, [sp, #16]           @ 4-byte Spill
	ldr	r1, [sp, #20]           @ 4-byte Reload
	strh	r0, [r1]
	add	r1, sp, #84
	ldr	r0, [sp, #16]           @ 4-byte Reload
	strh	r0, [r1]
	add	r0, sp, #80
	strb	r2, [r0]
	add	r2, sp, #76
	strb	r3, [r2]
	add	r3, sp, #72
	strb	r7, [r3]
	add	r7, sp, #68
	strb	r6, [r7]
	add	r6, sp, #64
	strb	r5, [r6]
	add	r5, sp, #60
	strb	r4, [r5]
	add	r4, sp, #56
.Ltmp168:
	.loc	2 1354 11 prologue_end  @ ../led_effect.c:1354:11
	str	r0, [sp, #12]           @ 4-byte Spill
	movs	r0, #0
	strh	r0, [r4]
	.loc	2 1357 14               @ ../led_effect.c:1357:14
	ldrb	r7, [r7]
	.loc	2 1357 35 is_stmt 0     @ ../led_effect.c:1357:35
	str	r0, [sp, #8]            @ 4-byte Spill
	ldr	r0, [sp, #12]           @ 4-byte Reload
	ldrb	r0, [r0]
	.loc	2 1357 33               @ ../led_effect.c:1357:33
	subs	r0, r7, r0
	.loc	2 1357 57               @ ../led_effect.c:1357:57
	ldrh	r7, [r1]
	.loc	2 1357 55               @ ../led_effect.c:1357:55
	sdiv	r0, r0, r7
	.loc	2 1357 11               @ ../led_effect.c:1357:11
	str	r0, [sp, #52]
	.loc	2 1358 16 is_stmt 1     @ ../led_effect.c:1358:16
	ldrb	r0, [r6]
	.loc	2 1358 39 is_stmt 0     @ ../led_effect.c:1358:39
	ldrb	r2, [r2]
	.loc	2 1358 37               @ ../led_effect.c:1358:37
	subs	r0, r0, r2
	.loc	2 1358 63               @ ../led_effect.c:1358:63
	ldrh	r2, [r1]
	.loc	2 1358 61               @ ../led_effect.c:1358:61
	sdiv	r0, r0, r2
	.loc	2 1358 13               @ ../led_effect.c:1358:13
	str	r0, [sp, #48]
	.loc	2 1359 15 is_stmt 1     @ ../led_effect.c:1359:15
	ldrb	r0, [r5]
	.loc	2 1359 37 is_stmt 0     @ ../led_effect.c:1359:37
	ldrb	r2, [r3]
	.loc	2 1359 35               @ ../led_effect.c:1359:35
	subs	r0, r0, r2
	.loc	2 1359 60               @ ../led_effect.c:1359:60
	ldrh	r1, [r1]
	.loc	2 1359 58               @ ../led_effect.c:1359:58
	sdiv	r0, r0, r1
	.loc	2 1359 12               @ ../led_effect.c:1359:12
	str	r0, [sp, #44]
.Ltmp169:
	.loc	2 1361 9 is_stmt 1      @ ../led_effect.c:1361:9
	ldr	r0, [sp, #8]            @ 4-byte Reload
	strh	r0, [r4]
	.loc	2 1361 7 is_stmt 0      @ ../led_effect.c:1361:7
	b	.LBB14_1
.LBB14_1:                               @ =>This Inner Loop Header: Depth=1
	.loc	2 0 7                   @ ../led_effect.c:0:7
	add	r0, sp, #56
.Ltmp170:
	.loc	2 1361 14               @ ../led_effect.c:1361:14
	ldrh	r0, [r0]
	add	r1, sp, #84
	.loc	2 1361 18               @ ../led_effect.c:1361:18
	ldrh	r1, [r1]
.Ltmp171:
	.loc	2 1361 2                @ ../led_effect.c:1361:2
	cmp	r0, r1
	bge	.LBB14_4
	b	.LBB14_2
.LBB14_2:                               @   in Loop: Header=BB14_1 Depth=1
.Ltmp172:
	.loc	2 1363 20 is_stmt 1     @ ../led_effect.c:1363:20
	ldr	r0, [sp, #80]
	add	r1, sp, #56
	.loc	2 1363 27 is_stmt 0     @ ../led_effect.c:1363:27
	ldrh	r1, [r1]
	.loc	2 1363 31               @ ../led_effect.c:1363:31
	ldr	r2, [sp, #52]
	.loc	2 1363 29               @ ../led_effect.c:1363:29
	muls	r2, r1, r2
	.loc	2 1363 25               @ ../led_effect.c:1363:25
	adds	r0, r0, r2
	.loc	2 1363 41               @ ../led_effect.c:1363:41
	ldr	r2, [sp, #76]
	.loc	2 1363 54               @ ../led_effect.c:1363:54
	ldr	r3, [sp, #48]
	.loc	2 1363 52               @ ../led_effect.c:1363:52
	muls	r3, r1, r3
	.loc	2 1363 48               @ ../led_effect.c:1363:48
	adds	r2, r2, r3
	.loc	2 1363 67               @ ../led_effect.c:1363:67
	ldr	r3, [sp, #72]
	.loc	2 1363 79               @ ../led_effect.c:1363:79
	ldr	r4, [sp, #44]
	.loc	2 1363 77               @ ../led_effect.c:1363:77
	muls	r4, r1, r4
	.loc	2 1363 73               @ ../led_effect.c:1363:73
	adds	r1, r3, r4
	.loc	2 1363 3                @ ../led_effect.c:1363:3
	uxtb	r0, r0
	uxtb	r2, r2
	uxtb	r1, r1
	str	r1, [sp, #4]            @ 4-byte Spill
	mov	r1, r2
	ldr	r2, [sp, #4]            @ 4-byte Reload
	bl	setLED_ColorWipe
	add	r0, sp, #88
	.loc	2 1365 12 is_stmt 1     @ ../led_effect.c:1365:12
	ldrh	r0, [r0]
	add	r1, sp, #84
	.loc	2 1365 19 is_stmt 0     @ ../led_effect.c:1365:19
	ldrh	r1, [r1]
	.loc	2 1365 17               @ ../led_effect.c:1365:17
	udiv	r0, r0, r1
	.loc	2 1365 3                @ ../led_effect.c:1365:3
	bl	delay_ms
	.loc	2 1367 3 is_stmt 1      @ ../led_effect.c:1367:3
	bl	setLED_BufferClear
	.loc	2 1368 2                @ ../led_effect.c:1368:2
	b	.LBB14_3
.Ltmp173:
.LBB14_3:                               @   in Loop: Header=BB14_1 Depth=1
	.loc	2 1361 26               @ ../led_effect.c:1361:26
	ldr	r0, [sp, #56]
	adds	r0, r0, #1
	add	r1, sp, #56
	strh	r0, [r1]
	.loc	2 1361 2 is_stmt 0      @ ../led_effect.c:1361:2
	b	.LBB14_1
.Ltmp174:
.LBB14_4:
	.loc	2 1369 11 is_stmt 1     @ ../led_effect.c:1369:11
	ldr	r0, [sp, #84]
	.loc	2 1369 17 is_stmt 0     @ ../led_effect.c:1369:17
	subs	r0, r0, #1
	add	r1, sp, #56
	.loc	2 1369 9                @ ../led_effect.c:1369:9
	strh	r0, [r1]
	.loc	2 1369 7                @ ../led_effect.c:1369:7
	b	.LBB14_5
.LBB14_5:                               @ =>This Inner Loop Header: Depth=1
	.loc	2 0 7                   @ ../led_effect.c:0:7
	add	r0, sp, #56
.Ltmp175:
	.loc	2 1369 22               @ ../led_effect.c:1369:22
	ldrh	r0, [r0]
.Ltmp176:
	.loc	2 1369 2                @ ../led_effect.c:1369:2
	cmp	r0, #1
	blt	.LBB14_8
	b	.LBB14_6
.LBB14_6:                               @   in Loop: Header=BB14_5 Depth=1
.Ltmp177:
	.loc	2 1371 20 is_stmt 1     @ ../led_effect.c:1371:20
	ldr	r0, [sp, #80]
	add	r1, sp, #56
	.loc	2 1371 27 is_stmt 0     @ ../led_effect.c:1371:27
	ldrh	r1, [r1]
	.loc	2 1371 31               @ ../led_effect.c:1371:31
	ldr	r2, [sp, #52]
	.loc	2 1371 29               @ ../led_effect.c:1371:29
	muls	r2, r1, r2
	.loc	2 1371 25               @ ../led_effect.c:1371:25
	adds	r0, r0, r2
	.loc	2 1371 41               @ ../led_effect.c:1371:41
	ldr	r2, [sp, #76]
	.loc	2 1371 54               @ ../led_effect.c:1371:54
	ldr	r3, [sp, #48]
	.loc	2 1371 52               @ ../led_effect.c:1371:52
	muls	r3, r1, r3
	.loc	2 1371 48               @ ../led_effect.c:1371:48
	adds	r2, r2, r3
	.loc	2 1371 67               @ ../led_effect.c:1371:67
	ldr	r3, [sp, #72]
	.loc	2 1371 79               @ ../led_effect.c:1371:79
	ldr	r4, [sp, #44]
	.loc	2 1371 77               @ ../led_effect.c:1371:77
	muls	r4, r1, r4
	.loc	2 1371 73               @ ../led_effect.c:1371:73
	adds	r1, r3, r4
	.loc	2 1371 3                @ ../led_effect.c:1371:3
	uxtb	r0, r0
	uxtb	r2, r2
	uxtb	r1, r1
	str	r1, [sp]                @ 4-byte Spill
	mov	r1, r2
	ldr	r2, [sp]                @ 4-byte Reload
	bl	setLED_ColorWipe
	add	r0, sp, #88
	.loc	2 1373 12 is_stmt 1     @ ../led_effect.c:1373:12
	ldrh	r0, [r0]
	add	r1, sp, #84
	.loc	2 1373 19 is_stmt 0     @ ../led_effect.c:1373:19
	ldrh	r1, [r1]
	.loc	2 1373 17               @ ../led_effect.c:1373:17
	udiv	r0, r0, r1
	.loc	2 1373 3                @ ../led_effect.c:1373:3
	bl	delay_ms
	.loc	2 1375 3 is_stmt 1      @ ../led_effect.c:1375:3
	bl	setLED_BufferClear
	.loc	2 1376 2                @ ../led_effect.c:1376:2
	b	.LBB14_7
.Ltmp178:
.LBB14_7:                               @   in Loop: Header=BB14_5 Depth=1
	.loc	2 1369 30               @ ../led_effect.c:1369:30
	ldr	r0, [sp, #56]
	subs	r0, r0, #1
	add	r1, sp, #56
	strh	r0, [r1]
	.loc	2 1369 2 is_stmt 0      @ ../led_effect.c:1369:2
	b	.LBB14_5
.Ltmp179:
.LBB14_8:
	.loc	2 1377 1 is_stmt 1      @ ../led_effect.c:1377:1
	add	sp, #92
	pop	{r4, r5, r6, r7, pc}
.Ltmp180:
.Lfunc_end14:
	.size	getAlternateColors, .Lfunc_end14-getAlternateColors
	.cfi_endproc
	.cantunwind
	.fnend
                                        @ -- End function
	.section	.text.getRGBSequence,"ax",%progbits
	.hidden	getRGBSequence          @ -- Begin function getRGBSequence
	.globl	getRGBSequence
	.p2align	2
	.type	getRGBSequence,%function
	.code	16                      @ @getRGBSequence
	.thumb_func
getRGBSequence:
.Lfunc_begin15:
	.loc	2 1381 0                @ ../led_effect.c:1381:0
	.fnstart
	.cfi_startproc
@ %bb.0:
	.save	{r4, r5, r6, r7, lr}
	push	{r4, r5, r6, r7, lr}
	.cfi_def_cfa_offset 20
	.cfi_offset lr, -4
	.cfi_offset r7, -8
	.cfi_offset r6, -12
	.cfi_offset r5, -16
	.cfi_offset r4, -20
	.pad	#20
	sub	sp, #20
	.cfi_def_cfa_offset 40
	mov	r1, r0
	add	r2, sp, #16
	strh	r0, [r2]
	add	r0, sp, #12
	movs	r2, #0
.Ltmp181:
	.loc	2 1385 13 prologue_end  @ ../led_effect.c:1385:13
	strb	r2, [r0]
.Ltmp182:
	.loc	2 1386 9                @ ../led_effect.c:1386:9
	ldr	r0, __arm_cp.15_0
	ldrb	r0, [r0]
.Ltmp183:
	.loc	2 1386 9 is_stmt 0      @ ../led_effect.c:1386:9
	cmp	r0, #0
	str	r1, [sp, #8]            @ 4-byte Spill
	beq	.LBB15_4
	b	.LBB15_1
.LBB15_1:
.Ltmp184:
	.loc	2 1388 18 is_stmt 1     @ ../led_effect.c:1388:18
	ldr	r0, __arm_cp.15_1
	ldrb	r1, [r0]
	adds	r1, r1, #1
	strb	r1, [r0]
.Ltmp185:
	.loc	2 1389 13               @ ../led_effect.c:1389:13
	ldrb	r0, [r0]
.Ltmp186:
	.loc	2 1389 13 is_stmt 0     @ ../led_effect.c:1389:13
	cmp	r0, #255
	bne	.LBB15_3
	b	.LBB15_2
.LBB15_2:
.Ltmp187:
	.loc	2 1390 18 is_stmt 1     @ ../led_effect.c:1390:18
	ldr	r0, __arm_cp.15_0
	movs	r1, #0
	strb	r1, [r0]
	.loc	2 1390 13 is_stmt 0     @ ../led_effect.c:1390:13
	b	.LBB15_3
.Ltmp188:
.LBB15_3:
	.loc	2 1391 5 is_stmt 1      @ ../led_effect.c:1391:5
	b	.LBB15_7
.Ltmp189:
.LBB15_4:
	.loc	2 1394 18               @ ../led_effect.c:1394:18
	ldr	r0, __arm_cp.15_1
	ldrb	r1, [r0]
	subs	r1, r1, #1
	strb	r1, [r0]
.Ltmp190:
	.loc	2 1395 13               @ ../led_effect.c:1395:13
	ldrb	r0, [r0]
.Ltmp191:
	.loc	2 1395 13 is_stmt 0     @ ../led_effect.c:1395:13
	cmp	r0, #0
	bne	.LBB15_6
	b	.LBB15_5
.LBB15_5:
.Ltmp192:
	.loc	2 1396 18 is_stmt 1     @ ../led_effect.c:1396:18
	ldr	r0, __arm_cp.15_0
	movs	r1, #1
	strb	r1, [r0]
	.loc	2 1396 13 is_stmt 0     @ ../led_effect.c:1396:13
	b	.LBB15_6
.Ltmp193:
.LBB15_6:
	.loc	2 0 13                  @ ../led_effect.c:0:13
	b	.LBB15_7
.LBB15_7:
	add	r0, sp, #12
.Ltmp194:
	.loc	2 1399 12 is_stmt 1     @ ../led_effect.c:1399:12
	movs	r1, #0
	strb	r1, [r0]
	.loc	2 1399 10 is_stmt 0     @ ../led_effect.c:1399:10
	b	.LBB15_8
.LBB15_8:                               @ =>This Inner Loop Header: Depth=1
	.loc	2 0 10                  @ ../led_effect.c:0:10
	add	r0, sp, #12
.Ltmp195:
	.loc	2 1399 17               @ ../led_effect.c:1399:17
	ldrb	r0, [r0]
.Ltmp196:
	.loc	2 1399 5                @ ../led_effect.c:1399:5
	cmp	r0, #23
	bgt	.LBB15_11
	b	.LBB15_9
.LBB15_9:                               @   in Loop: Header=BB15_8 Depth=1
.Ltmp197:
	.loc	2 1401 32 is_stmt 1     @ ../led_effect.c:1401:32
	ldr	r0, __arm_cp.15_1
	ldrb	r0, [r0]
	add	r1, sp, #12
	.loc	2 1401 44 is_stmt 0     @ ../led_effect.c:1401:44
	ldrb	r1, [r1]
	.loc	2 1401 45               @ ../led_effect.c:1401:45
	movs	r2, #3
	udiv	r3, r1, r2
	mov	r4, r2
	muls	r4, r3, r4
	subs	r3, r1, r4
	movs	r4, #2
	.loc	2 1401 48               @ ../led_effect.c:1401:48
	mov	r5, r3
	ands	r5, r4
	subs	r3, r3, r5
	.loc	2 1401 41               @ ../led_effect.c:1401:41
	muls	r3, r0, r3
	.loc	2 1401 66               @ ../led_effect.c:1401:66
	adds	r5, r1, #1
	.loc	2 1401 69               @ ../led_effect.c:1401:69
	udiv	r6, r5, r2
	mov	r7, r2
	muls	r7, r6, r7
	subs	r5, r5, r7
	.loc	2 1401 72               @ ../led_effect.c:1401:72
	mov	r6, r5
	ands	r6, r4
	subs	r5, r5, r6
	.loc	2 1401 61               @ ../led_effect.c:1401:61
	muls	r5, r0, r5
	.loc	2 1401 90               @ ../led_effect.c:1401:90
	adds	r6, r1, #2
	.loc	2 1401 93               @ ../led_effect.c:1401:93
	udiv	r7, r6, r2
	muls	r2, r7, r2
	subs	r2, r6, r2
	.loc	2 1401 96               @ ../led_effect.c:1401:96
	mov	r6, r2
	ands	r6, r4
	subs	r2, r2, r6
	.loc	2 1401 85               @ ../led_effect.c:1401:85
	muls	r2, r0, r2
	.loc	2 1401 9                @ ../led_effect.c:1401:9
	uxtb	r0, r3
	uxtb	r3, r5
	uxtb	r2, r2
	str	r0, [sp, #4]            @ 4-byte Spill
	mov	r0, r1
	ldr	r1, [sp, #4]            @ 4-byte Reload
	str	r2, [sp]                @ 4-byte Spill
	mov	r2, r3
	ldr	r3, [sp]                @ 4-byte Reload
	bl	setLED_ColorArrange
	.loc	2 1403 6 is_stmt 1      @ ../led_effect.c:1403:6
	movs	r0, #18
	bl	setLED_Display
	add	r0, sp, #16
	.loc	2 1405 6                @ ../led_effect.c:1405:6
	ldrh	r0, [r0]
	bl	delay_ms
	.loc	2 1407 5                @ ../led_effect.c:1407:5
	b	.LBB15_10
.Ltmp198:
.LBB15_10:                              @   in Loop: Header=BB15_8 Depth=1
	.loc	2 1399 31               @ ../led_effect.c:1399:31
	ldr	r0, [sp, #12]
	adds	r0, r0, #1
	add	r1, sp, #12
	strb	r0, [r1]
	.loc	2 1399 5 is_stmt 0      @ ../led_effect.c:1399:5
	b	.LBB15_8
.Ltmp199:
.LBB15_11:
	.loc	2 1409 2 is_stmt 1      @ ../led_effect.c:1409:2
	bl	setLED_BufferClear
	.loc	2 1410 1                @ ../led_effect.c:1410:1
	add	sp, #20
	pop	{r4, r5, r6, r7, pc}
.Ltmp200:
	.p2align	2
@ %bb.12:
	.loc	2 0 1 is_stmt 0         @ ../led_effect.c:0:1
__arm_cp.15_0:
	.long	getRGBSequence.sign
.Lcpi_end14:
	.size	__arm_cp.15_0, .Lcpi_end14-__arm_cp.15_0
__arm_cp.15_1:
	.long	getRGBSequence.intensity
.Lcpi_end15:
	.size	__arm_cp.15_1, .Lcpi_end15-__arm_cp.15_1
.Lfunc_end15:
	.size	getRGBSequence, .Lfunc_end15-getRGBSequence
	.cfi_endproc
	.cantunwind
	.fnend
                                        @ -- End function
	.section	.text.getTheaterChaseRainbow,"ax",%progbits
	.hidden	getTheaterChaseRainbow  @ -- Begin function getTheaterChaseRainbow
	.globl	getTheaterChaseRainbow
	.p2align	1
	.type	getTheaterChaseRainbow,%function
	.code	16                      @ @getTheaterChaseRainbow
	.thumb_func
getTheaterChaseRainbow:
.Lfunc_begin16:
	.loc	2 1413 0 is_stmt 1      @ ../led_effect.c:1413:0
	.fnstart
	.cfi_startproc
@ %bb.0:
	.save	{r4, r5, r6, lr}
	push	{r4, r5, r6, lr}
	.cfi_def_cfa_offset 16
	.cfi_offset lr, -4
	.cfi_offset r6, -8
	.cfi_offset r5, -12
	.cfi_offset r4, -16
	.pad	#56
	sub	sp, #56
	.cfi_def_cfa_offset 72
	mov	r1, r0
	add	r2, sp, #52
	strh	r0, [r2]
	add	r0, sp, #48
	movs	r2, #0
.Ltmp201:
	.loc	2 1414 11 prologue_end  @ ../led_effect.c:1414:11
	strh	r2, [r0]
	add	r3, sp, #44
	.loc	2 1415 10               @ ../led_effect.c:1415:10
	strb	r2, [r3]
	add	r3, sp, #40
	.loc	2 1416 11               @ ../led_effect.c:1416:11
	strh	r2, [r3]
	add	r3, sp, #28
	.loc	2 1417 23               @ ../led_effect.c:1417:23
	strb	r2, [r3]
.Ltmp202:
	.loc	2 1419 8                @ ../led_effect.c:1419:8
	strh	r2, [r0]
	.loc	2 1419 7 is_stmt 0      @ ../led_effect.c:1419:7
	str	r1, [sp, #24]           @ 4-byte Spill
	b	.LBB16_1
.LBB16_1:                               @ =>This Loop Header: Depth=1
                                        @     Child Loop BB16_3 Depth 2
                                        @       Child Loop BB16_5 Depth 3
                                        @       Child Loop BB16_9 Depth 3
	.loc	2 0 7                   @ ../led_effect.c:0:7
	add	r0, sp, #48
.Ltmp203:
	.loc	2 1419 12               @ ../led_effect.c:1419:12
	ldrh	r0, [r0]
.Ltmp204:
	.loc	2 1419 2                @ ../led_effect.c:1419:2
	cmp	r0, #255
	bgt	.LBB16_16
	b	.LBB16_2
.LBB16_2:                               @   in Loop: Header=BB16_1 Depth=1
	.loc	2 0 2                   @ ../led_effect.c:0:2
	add	r0, sp, #44
.Ltmp205:
	.loc	2 1421 9 is_stmt 1      @ ../led_effect.c:1421:9
	movs	r1, #0
	strb	r1, [r0]
	.loc	2 1421 8 is_stmt 0      @ ../led_effect.c:1421:8
	b	.LBB16_3
.LBB16_3:                               @   Parent Loop BB16_1 Depth=1
                                        @ =>  This Loop Header: Depth=2
                                        @       Child Loop BB16_5 Depth 3
                                        @       Child Loop BB16_9 Depth 3
	.loc	2 0 8                   @ ../led_effect.c:0:8
	add	r0, sp, #44
.Ltmp206:
	.loc	2 1421 13               @ ../led_effect.c:1421:13
	ldrb	r0, [r0]
.Ltmp207:
	.loc	2 1421 3                @ ../led_effect.c:1421:3
	cmp	r0, #2
	bgt	.LBB16_14
	b	.LBB16_4
.LBB16_4:                               @   in Loop: Header=BB16_3 Depth=2
	.loc	2 0 3                   @ ../led_effect.c:0:3
	add	r0, sp, #40
.Ltmp208:
	.loc	2 1423 10 is_stmt 1     @ ../led_effect.c:1423:10
	movs	r1, #0
	strh	r1, [r0]
	.loc	2 1423 9 is_stmt 0      @ ../led_effect.c:1423:9
	b	.LBB16_5
.LBB16_5:                               @   Parent Loop BB16_1 Depth=1
                                        @     Parent Loop BB16_3 Depth=2
                                        @ =>    This Inner Loop Header: Depth=3
	.loc	2 0 9                   @ ../led_effect.c:0:9
	add	r0, sp, #40
.Ltmp209:
	.loc	2 1423 14               @ ../led_effect.c:1423:14
	ldrh	r0, [r0]
.Ltmp210:
	.loc	2 1423 4                @ ../led_effect.c:1423:4
	cmp	r0, #23
	bgt	.LBB16_8
	b	.LBB16_6
.LBB16_6:                               @   in Loop: Header=BB16_5 Depth=3
	.loc	2 0 4                   @ ../led_effect.c:0:4
	add	r0, sp, #40
.Ltmp211:
	.loc	2 1425 27 is_stmt 1     @ ../led_effect.c:1425:27
	ldrh	r0, [r0]
	add	r1, sp, #48
	.loc	2 1425 29 is_stmt 0     @ ../led_effect.c:1425:29
	ldrh	r1, [r1]
	.loc	2 1425 28               @ ../led_effect.c:1425:28
	adds	r0, r0, r1
	movs	r1, #255
	.loc	2 1425 32               @ ../led_effect.c:1425:32
	udiv	r2, r0, r1
	muls	r1, r2, r1
	subs	r0, r0, r1
	add	r1, sp, #36
	add	r2, sp, #32
	add	r3, sp, #28
	.loc	2 1425 5                @ ../led_effect.c:1425:5
	str	r1, [sp, #20]           @ 4-byte Spill
	str	r2, [sp, #16]           @ 4-byte Spill
	str	r3, [sp, #12]           @ 4-byte Spill
	bl	_stripEffect_Wheel
	.loc	2 1426 25 is_stmt 1     @ ../led_effect.c:1426:25
	ldr	r1, [sp, #40]
	.loc	2 1426 27 is_stmt 0     @ ../led_effect.c:1426:27
	ldr	r2, [sp, #44]
	.loc	2 1426 26               @ ../led_effect.c:1426:26
	adds	r1, r1, r2
	.loc	2 1426 5                @ ../led_effect.c:1426:5
	uxtb	r1, r1
	ldr	r2, [sp, #12]           @ 4-byte Reload
	ldrb	r3, [r2]
	ldr	r4, [sp, #16]           @ 4-byte Reload
	ldrb	r2, [r4]
	ldr	r5, [sp, #20]           @ 4-byte Reload
	ldrb	r6, [r5]
	str	r0, [sp, #8]            @ 4-byte Spill
	mov	r0, r1
	mov	r1, r6
	bl	setLED_ColorArrange
	.loc	2 1432 4 is_stmt 1      @ ../led_effect.c:1432:4
	b	.LBB16_7
.Ltmp212:
.LBB16_7:                               @   in Loop: Header=BB16_5 Depth=3
	.loc	2 1423 30               @ ../led_effect.c:1423:30
	ldr	r0, [sp, #40]
	.loc	2 1423 31 is_stmt 0     @ ../led_effect.c:1423:31
	adds	r0, r0, #3
	add	r1, sp, #40
	.loc	2 1423 29               @ ../led_effect.c:1423:29
	strh	r0, [r1]
	.loc	2 1423 4                @ ../led_effect.c:1423:4
	b	.LBB16_5
.Ltmp213:
.LBB16_8:                               @   in Loop: Header=BB16_3 Depth=2
	.loc	2 1433 4 is_stmt 1      @ ../led_effect.c:1433:4
	movs	r0, #18
	bl	setLED_Display
	add	r0, sp, #52
	.loc	2 1435 4                @ ../led_effect.c:1435:4
	ldrh	r0, [r0]
	bl	delay_ms
	add	r0, sp, #40
.Ltmp214:
	.loc	2 1437 10               @ ../led_effect.c:1437:10
	movs	r1, #0
	strh	r1, [r0]
	.loc	2 1437 9 is_stmt 0      @ ../led_effect.c:1437:9
	b	.LBB16_9
.LBB16_9:                               @   Parent Loop BB16_1 Depth=1
                                        @     Parent Loop BB16_3 Depth=2
                                        @ =>    This Inner Loop Header: Depth=3
	.loc	2 0 9                   @ ../led_effect.c:0:9
	add	r0, sp, #40
.Ltmp215:
	.loc	2 1437 14               @ ../led_effect.c:1437:14
	ldrh	r0, [r0]
.Ltmp216:
	.loc	2 1437 4                @ ../led_effect.c:1437:4
	cmp	r0, #23
	bgt	.LBB16_12
	b	.LBB16_10
.LBB16_10:                              @   in Loop: Header=BB16_9 Depth=3
.Ltmp217:
	.loc	2 1439 25 is_stmt 1     @ ../led_effect.c:1439:25
	ldr	r0, [sp, #40]
	.loc	2 1439 27 is_stmt 0     @ ../led_effect.c:1439:27
	ldr	r1, [sp, #44]
	.loc	2 1439 26               @ ../led_effect.c:1439:26
	adds	r0, r0, r1
	.loc	2 1439 5                @ ../led_effect.c:1439:5
	uxtb	r0, r0
	movs	r1, #0
	str	r1, [sp, #4]            @ 4-byte Spill
	ldr	r2, [sp, #4]            @ 4-byte Reload
	ldr	r3, [sp, #4]            @ 4-byte Reload
	bl	setLED_ColorArrange
	.loc	2 1440 4 is_stmt 1      @ ../led_effect.c:1440:4
	b	.LBB16_11
.Ltmp218:
.LBB16_11:                              @   in Loop: Header=BB16_9 Depth=3
	.loc	2 1437 30               @ ../led_effect.c:1437:30
	ldr	r0, [sp, #40]
	.loc	2 1437 31 is_stmt 0     @ ../led_effect.c:1437:31
	adds	r0, r0, #3
	add	r1, sp, #40
	.loc	2 1437 29               @ ../led_effect.c:1437:29
	strh	r0, [r1]
	.loc	2 1437 4                @ ../led_effect.c:1437:4
	b	.LBB16_9
.Ltmp219:
.LBB16_12:                              @   in Loop: Header=BB16_3 Depth=2
	.loc	2 1442 4 is_stmt 1      @ ../led_effect.c:1442:4
	movs	r0, #18
	bl	setLED_Display
	add	r0, sp, #52
	.loc	2 1444 4                @ ../led_effect.c:1444:4
	ldrh	r0, [r0]
	bl	delay_ms
	.loc	2 1446 4                @ ../led_effect.c:1446:4
	bl	setLED_BufferClear
	.loc	2 1448 3                @ ../led_effect.c:1448:3
	b	.LBB16_13
.Ltmp220:
.LBB16_13:                              @   in Loop: Header=BB16_3 Depth=2
	.loc	2 1421 21               @ ../led_effect.c:1421:21
	ldr	r0, [sp, #44]
	adds	r0, r0, #1
	add	r1, sp, #44
	strb	r0, [r1]
	.loc	2 1421 3 is_stmt 0      @ ../led_effect.c:1421:3
	b	.LBB16_3
.Ltmp221:
.LBB16_14:                              @   in Loop: Header=BB16_1 Depth=1
	.loc	2 1449 2 is_stmt 1      @ ../led_effect.c:1449:2
	b	.LBB16_15
.Ltmp222:
.LBB16_15:                              @   in Loop: Header=BB16_1 Depth=1
	.loc	2 1419 22               @ ../led_effect.c:1419:22
	ldr	r0, [sp, #48]
	adds	r0, r0, #1
	add	r1, sp, #48
	strh	r0, [r1]
	.loc	2 1419 2 is_stmt 0      @ ../led_effect.c:1419:2
	b	.LBB16_1
.Ltmp223:
.LBB16_16:
	.loc	2 1450 1 is_stmt 1      @ ../led_effect.c:1450:1
	add	sp, #56
	pop	{r4, r5, r6, pc}
.Ltmp224:
.Lfunc_end16:
	.size	getTheaterChaseRainbow, .Lfunc_end16-getTheaterChaseRainbow
	.cfi_endproc
	.cantunwind
	.fnend
                                        @ -- End function
	.section	.text.getTheaterChase,"ax",%progbits
	.hidden	getTheaterChase         @ -- Begin function getTheaterChase
	.globl	getTheaterChase
	.p2align	1
	.type	getTheaterChase,%function
	.code	16                      @ @getTheaterChase
	.thumb_func
getTheaterChase:
.Lfunc_begin17:
	.loc	2 1453 0                @ ../led_effect.c:1453:0
	.fnstart
	.cfi_startproc
@ %bb.0:
	.save	{r4, r5, r6, r7, lr}
	push	{r4, r5, r6, r7, lr}
	.cfi_def_cfa_offset 20
	.cfi_offset lr, -4
	.cfi_offset r7, -8
	.cfi_offset r6, -12
	.cfi_offset r5, -16
	.cfi_offset r4, -20
	.pad	#60
	sub	sp, #60
	.cfi_def_cfa_offset 80
	mov	r4, r3
	mov	r5, r2
	mov	r6, r1
	mov	r7, r0
	str	r0, [sp, #28]           @ 4-byte Spill
	add	r0, sp, #56
	str	r0, [sp, #24]           @ 4-byte Spill
	ldr	r0, [sp, #28]           @ 4-byte Reload
	str	r1, [sp, #20]           @ 4-byte Spill
	ldr	r1, [sp, #24]           @ 4-byte Reload
	strh	r0, [r1]
	add	r1, sp, #52
	ldr	r0, [sp, #20]           @ 4-byte Reload
	strb	r0, [r1]
	add	r1, sp, #48
	strb	r2, [r1]
	add	r1, sp, #44
	strb	r3, [r1]
	add	r1, sp, #40
.Ltmp225:
	.loc	2 1454 11 prologue_end  @ ../led_effect.c:1454:11
	movs	r2, #0
	strh	r2, [r1]
	add	r3, sp, #36
	.loc	2 1455 11               @ ../led_effect.c:1455:11
	strh	r2, [r3]
	add	r3, sp, #32
	.loc	2 1456 11               @ ../led_effect.c:1456:11
	strh	r2, [r3]
.Ltmp226:
	.loc	2 1458 8                @ ../led_effect.c:1458:8
	strh	r2, [r1]
	.loc	2 1458 7 is_stmt 0      @ ../led_effect.c:1458:7
	str	r5, [sp, #16]           @ 4-byte Spill
	str	r6, [sp, #12]           @ 4-byte Spill
	str	r7, [sp, #8]            @ 4-byte Spill
	str	r4, [sp, #4]            @ 4-byte Spill
	b	.LBB17_1
.LBB17_1:                               @ =>This Loop Header: Depth=1
                                        @     Child Loop BB17_3 Depth 2
                                        @       Child Loop BB17_5 Depth 3
                                        @       Child Loop BB17_9 Depth 3
	.loc	2 0 7                   @ ../led_effect.c:0:7
	add	r0, sp, #40
.Ltmp227:
	.loc	2 1458 12               @ ../led_effect.c:1458:12
	ldrh	r0, [r0]
.Ltmp228:
	.loc	2 1458 2                @ ../led_effect.c:1458:2
	cmp	r0, #9
	bgt	.LBB17_16
	b	.LBB17_2
.LBB17_2:                               @   in Loop: Header=BB17_1 Depth=1
.Ltmp229:
	.loc	2 1461 3 is_stmt 1      @ ../led_effect.c:1461:3
	bl	setLED_BufferClear
	add	r0, sp, #36
.Ltmp230:
	.loc	2 1463 9                @ ../led_effect.c:1463:9
	movs	r1, #0
	strh	r1, [r0]
	.loc	2 1463 8 is_stmt 0      @ ../led_effect.c:1463:8
	b	.LBB17_3
.LBB17_3:                               @   Parent Loop BB17_1 Depth=1
                                        @ =>  This Loop Header: Depth=2
                                        @       Child Loop BB17_5 Depth 3
                                        @       Child Loop BB17_9 Depth 3
	.loc	2 0 8                   @ ../led_effect.c:0:8
	add	r0, sp, #36
.Ltmp231:
	.loc	2 1463 13               @ ../led_effect.c:1463:13
	ldrh	r0, [r0]
.Ltmp232:
	.loc	2 1463 3                @ ../led_effect.c:1463:3
	cmp	r0, #2
	bgt	.LBB17_14
	b	.LBB17_4
.LBB17_4:                               @   in Loop: Header=BB17_3 Depth=2
	.loc	2 0 3                   @ ../led_effect.c:0:3
	add	r0, sp, #32
.Ltmp233:
	.loc	2 1465 10 is_stmt 1     @ ../led_effect.c:1465:10
	movs	r1, #0
	strh	r1, [r0]
	.loc	2 1465 9 is_stmt 0      @ ../led_effect.c:1465:9
	b	.LBB17_5
.LBB17_5:                               @   Parent Loop BB17_1 Depth=1
                                        @     Parent Loop BB17_3 Depth=2
                                        @ =>    This Inner Loop Header: Depth=3
	.loc	2 0 9                   @ ../led_effect.c:0:9
	add	r0, sp, #32
.Ltmp234:
	.loc	2 1465 14               @ ../led_effect.c:1465:14
	ldrh	r0, [r0]
.Ltmp235:
	.loc	2 1465 4                @ ../led_effect.c:1465:4
	cmp	r0, #23
	bgt	.LBB17_8
	b	.LBB17_6
.LBB17_6:                               @   in Loop: Header=BB17_5 Depth=3
.Ltmp236:
	.loc	2 1467 25 is_stmt 1     @ ../led_effect.c:1467:25
	ldr	r0, [sp, #32]
	.loc	2 1467 27 is_stmt 0     @ ../led_effect.c:1467:27
	ldr	r1, [sp, #36]
	.loc	2 1467 26               @ ../led_effect.c:1467:26
	adds	r0, r0, r1
	.loc	2 1467 5                @ ../led_effect.c:1467:5
	uxtb	r0, r0
	add	r1, sp, #44
	ldrb	r3, [r1]
	add	r1, sp, #48
	ldrb	r2, [r1]
	add	r1, sp, #52
	ldrb	r1, [r1]
	bl	setLED_ColorArrange
	.loc	2 1468 4 is_stmt 1      @ ../led_effect.c:1468:4
	b	.LBB17_7
.Ltmp237:
.LBB17_7:                               @   in Loop: Header=BB17_5 Depth=3
	.loc	2 1465 29               @ ../led_effect.c:1465:29
	ldr	r0, [sp, #32]
	.loc	2 1465 30 is_stmt 0     @ ../led_effect.c:1465:30
	adds	r0, r0, #3
	add	r1, sp, #32
	.loc	2 1465 28               @ ../led_effect.c:1465:28
	strh	r0, [r1]
	.loc	2 1465 4                @ ../led_effect.c:1465:4
	b	.LBB17_5
.Ltmp238:
.LBB17_8:                               @   in Loop: Header=BB17_3 Depth=2
	.loc	2 1469 4 is_stmt 1      @ ../led_effect.c:1469:4
	movs	r0, #18
	bl	setLED_Display
	add	r0, sp, #56
	.loc	2 1471 4                @ ../led_effect.c:1471:4
	ldrh	r0, [r0]
	bl	delay_ms
	add	r0, sp, #32
.Ltmp239:
	.loc	2 1473 10               @ ../led_effect.c:1473:10
	movs	r1, #0
	strh	r1, [r0]
	.loc	2 1473 9 is_stmt 0      @ ../led_effect.c:1473:9
	b	.LBB17_9
.LBB17_9:                               @   Parent Loop BB17_1 Depth=1
                                        @     Parent Loop BB17_3 Depth=2
                                        @ =>    This Inner Loop Header: Depth=3
	.loc	2 0 9                   @ ../led_effect.c:0:9
	add	r0, sp, #32
.Ltmp240:
	.loc	2 1473 14               @ ../led_effect.c:1473:14
	ldrh	r0, [r0]
.Ltmp241:
	.loc	2 1473 4                @ ../led_effect.c:1473:4
	cmp	r0, #23
	bgt	.LBB17_12
	b	.LBB17_10
.LBB17_10:                              @   in Loop: Header=BB17_9 Depth=3
.Ltmp242:
	.loc	2 1475 25 is_stmt 1     @ ../led_effect.c:1475:25
	ldr	r0, [sp, #32]
	.loc	2 1475 27 is_stmt 0     @ ../led_effect.c:1475:27
	ldr	r1, [sp, #36]
	.loc	2 1475 26               @ ../led_effect.c:1475:26
	adds	r0, r0, r1
	.loc	2 1475 5                @ ../led_effect.c:1475:5
	uxtb	r0, r0
	movs	r1, #0
	str	r1, [sp]                @ 4-byte Spill
	ldr	r2, [sp]                @ 4-byte Reload
	ldr	r3, [sp]                @ 4-byte Reload
	bl	setLED_ColorArrange
	.loc	2 1476 4 is_stmt 1      @ ../led_effect.c:1476:4
	b	.LBB17_11
.Ltmp243:
.LBB17_11:                              @   in Loop: Header=BB17_9 Depth=3
	.loc	2 1473 29               @ ../led_effect.c:1473:29
	ldr	r0, [sp, #32]
	.loc	2 1473 30 is_stmt 0     @ ../led_effect.c:1473:30
	adds	r0, r0, #3
	add	r1, sp, #32
	.loc	2 1473 28               @ ../led_effect.c:1473:28
	strh	r0, [r1]
	.loc	2 1473 4                @ ../led_effect.c:1473:4
	b	.LBB17_9
.Ltmp244:
.LBB17_12:                              @   in Loop: Header=BB17_3 Depth=2
	.loc	2 1478 4 is_stmt 1      @ ../led_effect.c:1478:4
	movs	r0, #18
	bl	setLED_Display
	add	r0, sp, #56
	.loc	2 1480 4                @ ../led_effect.c:1480:4
	ldrh	r0, [r0]
	bl	delay_ms
	.loc	2 1483 4                @ ../led_effect.c:1483:4
	bl	setLED_BufferClear
	.loc	2 1485 3                @ ../led_effect.c:1485:3
	b	.LBB17_13
.Ltmp245:
.LBB17_13:                              @   in Loop: Header=BB17_3 Depth=2
	.loc	2 1463 21               @ ../led_effect.c:1463:21
	ldr	r0, [sp, #36]
	adds	r0, r0, #1
	add	r1, sp, #36
	strh	r0, [r1]
	.loc	2 1463 3 is_stmt 0      @ ../led_effect.c:1463:3
	b	.LBB17_3
.Ltmp246:
.LBB17_14:                              @   in Loop: Header=BB17_1 Depth=1
	.loc	2 1487 2 is_stmt 1      @ ../led_effect.c:1487:2
	b	.LBB17_15
.Ltmp247:
.LBB17_15:                              @   in Loop: Header=BB17_1 Depth=1
	.loc	2 1458 19               @ ../led_effect.c:1458:19
	ldr	r0, [sp, #40]
	adds	r0, r0, #1
	add	r1, sp, #40
	strh	r0, [r1]
	.loc	2 1458 2 is_stmt 0      @ ../led_effect.c:1458:2
	b	.LBB17_1
.Ltmp248:
.LBB17_16:
	.loc	2 1488 1 is_stmt 1      @ ../led_effect.c:1488:1
	add	sp, #60
	pop	{r4, r5, r6, r7, pc}
.Ltmp249:
.Lfunc_end17:
	.size	getTheaterChase, .Lfunc_end17-getTheaterChase
	.cfi_endproc
	.cantunwind
	.fnend
                                        @ -- End function
	.section	.text.getRainbowCycle,"ax",%progbits
	.hidden	getRainbowCycle         @ -- Begin function getRainbowCycle
	.globl	getRainbowCycle
	.p2align	1
	.type	getRainbowCycle,%function
	.code	16                      @ @getRainbowCycle
	.thumb_func
getRainbowCycle:
.Lfunc_begin18:
	.loc	2 1492 0                @ ../led_effect.c:1492:0
	.fnstart
	.cfi_startproc
@ %bb.0:
	.save	{r4, r5, r6, lr}
	push	{r4, r5, r6, lr}
	.cfi_def_cfa_offset 16
	.cfi_offset lr, -4
	.cfi_offset r6, -8
	.cfi_offset r5, -12
	.cfi_offset r4, -16
	.pad	#56
	sub	sp, #56
	.cfi_def_cfa_offset 72
	mov	r2, r1
	mov	r3, r0
	add	r4, sp, #52
	strb	r0, [r4]
	add	r0, sp, #48
	strh	r1, [r0]
	add	r0, sp, #44
	movs	r1, #0
.Ltmp250:
	.loc	2 1493 11 prologue_end  @ ../led_effect.c:1493:11
	strh	r1, [r0]
	add	r0, sp, #40
	.loc	2 1493 18 is_stmt 0     @ ../led_effect.c:1493:18
	strh	r1, [r0]
	add	r4, sp, #28
	.loc	2 1494 23 is_stmt 1     @ ../led_effect.c:1494:23
	strb	r1, [r4]
.Ltmp251:
	.loc	2 1496 7                @ ../led_effect.c:1496:7
	strh	r1, [r0]
	.loc	2 1496 6 is_stmt 0      @ ../led_effect.c:1496:6
	str	r2, [sp, #24]           @ 4-byte Spill
	str	r3, [sp, #20]           @ 4-byte Spill
	b	.LBB18_1
.LBB18_1:                               @ =>This Loop Header: Depth=1
                                        @     Child Loop BB18_3 Depth 2
	.loc	2 0 6                   @ ../led_effect.c:0:6
	add	r0, sp, #40
.Ltmp252:
	.loc	2 1496 11               @ ../led_effect.c:1496:11
	ldrh	r0, [r0]
	add	r1, sp, #52
	.loc	2 1496 17               @ ../led_effect.c:1496:17
	ldrb	r1, [r1]
	.loc	2 1496 16               @ ../led_effect.c:1496:16
	lsls	r1, r1, #8
.Ltmp253:
	.loc	2 1496 2                @ ../led_effect.c:1496:2
	cmp	r0, r1
	bge	.LBB18_8
	b	.LBB18_2
.LBB18_2:                               @   in Loop: Header=BB18_1 Depth=1
	.loc	2 0 2                   @ ../led_effect.c:0:2
	add	r0, sp, #44
.Ltmp254:
	.loc	2 1499 8 is_stmt 1      @ ../led_effect.c:1499:8
	movs	r1, #0
	strh	r1, [r0]
	.loc	2 1499 7 is_stmt 0      @ ../led_effect.c:1499:7
	b	.LBB18_3
.LBB18_3:                               @   Parent Loop BB18_1 Depth=1
                                        @ =>  This Inner Loop Header: Depth=2
	.loc	2 0 7                   @ ../led_effect.c:0:7
	add	r0, sp, #44
.Ltmp255:
	.loc	2 1499 12               @ ../led_effect.c:1499:12
	ldrh	r0, [r0]
.Ltmp256:
	.loc	2 1499 3                @ ../led_effect.c:1499:3
	cmp	r0, #23
	bgt	.LBB18_6
	b	.LBB18_4
.LBB18_4:                               @   in Loop: Header=BB18_3 Depth=2
	.loc	2 0 3                   @ ../led_effect.c:0:3
	add	r0, sp, #44
.Ltmp257:
	.loc	2 1501 26 is_stmt 1     @ ../led_effect.c:1501:26
	ldrh	r1, [r0]
	.loc	2 1501 28 is_stmt 0     @ ../led_effect.c:1501:28
	lsls	r1, r1, #8
	.loc	2 1501 34               @ ../led_effect.c:1501:34
	movs	r2, #24
	udiv	r1, r1, r2
	.loc	2 1501 47               @ ../led_effect.c:1501:47
	ldr	r2, [sp, #40]
	.loc	2 1501 45               @ ../led_effect.c:1501:45
	adds	r1, r1, r2
	.loc	2 1501 50               @ ../led_effect.c:1501:50
	uxtb	r1, r1
	add	r2, sp, #36
	add	r3, sp, #32
	add	r4, sp, #28
	.loc	2 1501 4                @ ../led_effect.c:1501:4
	str	r0, [sp, #16]           @ 4-byte Spill
	mov	r0, r1
	mov	r1, r2
	str	r2, [sp, #12]           @ 4-byte Spill
	mov	r2, r3
	str	r3, [sp, #8]            @ 4-byte Spill
	mov	r3, r4
	str	r4, [sp, #4]            @ 4-byte Spill
	bl	_stripEffect_Wheel
	.loc	2 1502 4 is_stmt 1      @ ../led_effect.c:1502:4
	ldr	r1, [sp, #4]            @ 4-byte Reload
	ldrb	r3, [r1]
	ldr	r2, [sp, #8]            @ 4-byte Reload
	ldrb	r2, [r2]
	ldr	r4, [sp, #12]           @ 4-byte Reload
	ldrb	r1, [r4]
	ldr	r5, [sp, #16]           @ 4-byte Reload
	ldrb	r6, [r5]
	str	r0, [sp]                @ 4-byte Spill
	mov	r0, r6
	bl	setLED_ColorArrange
	.loc	2 1508 3                @ ../led_effect.c:1508:3
	b	.LBB18_5
.Ltmp258:
.LBB18_5:                               @   in Loop: Header=BB18_3 Depth=2
	.loc	2 1499 25               @ ../led_effect.c:1499:25
	ldr	r0, [sp, #44]
	adds	r0, r0, #1
	add	r1, sp, #44
	strh	r0, [r1]
	.loc	2 1499 3 is_stmt 0      @ ../led_effect.c:1499:3
	b	.LBB18_3
.Ltmp259:
.LBB18_6:                               @   in Loop: Header=BB18_1 Depth=1
	.loc	2 1510 3 is_stmt 1      @ ../led_effect.c:1510:3
	movs	r0, #18
	bl	setLED_Display
	add	r0, sp, #48
	.loc	2 1512 3                @ ../led_effect.c:1512:3
	ldrh	r0, [r0]
	bl	delay_ms
	.loc	2 1514 3                @ ../led_effect.c:1514:3
	bl	setLED_BufferClear
	.loc	2 1515 2                @ ../led_effect.c:1515:2
	b	.LBB18_7
.Ltmp260:
.LBB18_7:                               @   in Loop: Header=BB18_1 Depth=1
	.loc	2 1496 25               @ ../led_effect.c:1496:25
	ldr	r0, [sp, #40]
	adds	r0, r0, #1
	add	r1, sp, #40
	strh	r0, [r1]
	.loc	2 1496 2 is_stmt 0      @ ../led_effect.c:1496:2
	b	.LBB18_1
.Ltmp261:
.LBB18_8:
	.loc	2 1516 1 is_stmt 1      @ ../led_effect.c:1516:1
	add	sp, #56
	pop	{r4, r5, r6, pc}
.Ltmp262:
.Lfunc_end18:
	.size	getRainbowCycle, .Lfunc_end18-getRainbowCycle
	.cfi_endproc
	.cantunwind
	.fnend
                                        @ -- End function
	.section	.text.getRainbow,"ax",%progbits
	.hidden	getRainbow              @ -- Begin function getRainbow
	.globl	getRainbow
	.p2align	1
	.type	getRainbow,%function
	.code	16                      @ @getRainbow
	.thumb_func
getRainbow:
.Lfunc_begin19:
	.loc	2 1519 0                @ ../led_effect.c:1519:0
	.fnstart
	.cfi_startproc
@ %bb.0:
	.save	{r4, r5, r7, lr}
	push	{r4, r5, r7, lr}
	.cfi_def_cfa_offset 16
	.cfi_offset lr, -4
	.cfi_offset r7, -8
	.cfi_offset r5, -12
	.cfi_offset r4, -16
	.pad	#40
	sub	sp, #40
	.cfi_def_cfa_offset 56
	mov	r1, r0
	add	r2, sp, #36
	strh	r0, [r2]
	add	r0, sp, #32
.Ltmp263:
	.loc	2 1520 10 prologue_end  @ ../led_effect.c:1520:10
	movs	r2, #0
	strb	r2, [r0]
	add	r3, sp, #20
	.loc	2 1521 23               @ ../led_effect.c:1521:23
	strb	r2, [r3]
.Ltmp264:
	.loc	2 1523 8                @ ../led_effect.c:1523:8
	strb	r2, [r0]
	.loc	2 1523 7 is_stmt 0      @ ../led_effect.c:1523:7
	str	r1, [sp, #16]           @ 4-byte Spill
	b	.LBB19_1
.LBB19_1:                               @ =>This Inner Loop Header: Depth=1
	.loc	2 0 7                   @ ../led_effect.c:0:7
	add	r0, sp, #32
.Ltmp265:
	.loc	2 1523 11               @ ../led_effect.c:1523:11
	ldrb	r0, [r0]
.Ltmp266:
	.loc	2 1523 2                @ ../led_effect.c:1523:2
	cmp	r0, #23
	bgt	.LBB19_4
	b	.LBB19_2
.LBB19_2:                               @   in Loop: Header=BB19_1 Depth=1
	.loc	2 0 2                   @ ../led_effect.c:0:2
	add	r0, sp, #28
	add	r1, sp, #24
	add	r2, sp, #20
.Ltmp267:
	.loc	2 1525 3 is_stmt 1      @ ../led_effect.c:1525:3
	str	r0, [sp, #12]           @ 4-byte Spill
	str	r1, [sp, #8]            @ 4-byte Spill
	str	r2, [sp, #4]            @ 4-byte Spill
	bl	_stripEffect_Rainbow
	.loc	2 1526 3                @ ../led_effect.c:1526:3
	ldr	r0, [sp, #4]            @ 4-byte Reload
	ldrb	r3, [r0]
	ldr	r1, [sp, #8]            @ 4-byte Reload
	ldrb	r2, [r1]
	ldr	r4, [sp, #12]           @ 4-byte Reload
	ldrb	r1, [r4]
	add	r5, sp, #32
	ldrb	r0, [r5]
	bl	setLED_ColorArrange
	.loc	2 1527 2                @ ../led_effect.c:1527:2
	b	.LBB19_3
.Ltmp268:
.LBB19_3:                               @   in Loop: Header=BB19_1 Depth=1
	.loc	2 1523 22               @ ../led_effect.c:1523:22
	ldr	r0, [sp, #32]
	adds	r0, r0, #1
	add	r1, sp, #32
	strb	r0, [r1]
	.loc	2 1523 2 is_stmt 0      @ ../led_effect.c:1523:2
	b	.LBB19_1
.Ltmp269:
.LBB19_4:
	.loc	2 1530 2 is_stmt 1      @ ../led_effect.c:1530:2
	movs	r0, #18
	bl	setLED_Display
	add	r0, sp, #36
	.loc	2 1532 2                @ ../led_effect.c:1532:2
	ldrh	r0, [r0]
	bl	delay_ms
	.loc	2 1534 2                @ ../led_effect.c:1534:2
	bl	setLED_BufferClear
	.loc	2 1535 1                @ ../led_effect.c:1535:1
	add	sp, #40
	pop	{r4, r5, r7, pc}
.Ltmp270:
.Lfunc_end19:
	.size	getRainbow, .Lfunc_end19-getRainbow
	.cfi_endproc
	.cantunwind
	.fnend
                                        @ -- End function
	.section	.text.getBreathing,"ax",%progbits
	.hidden	getBreathing            @ -- Begin function getBreathing
	.globl	getBreathing
	.p2align	2
	.type	getBreathing,%function
	.code	16                      @ @getBreathing
	.thumb_func
getBreathing:
.Lfunc_begin20:
	.loc	2 1538 0                @ ../led_effect.c:1538:0
	.fnstart
	.cfi_startproc
@ %bb.0:
	.save	{r4, r5, r6, lr}
	push	{r4, r5, r6, lr}
	.cfi_def_cfa_offset 16
	.cfi_offset lr, -4
	.cfi_offset r6, -8
	.cfi_offset r5, -12
	.cfi_offset r4, -16
	.pad	#24
	sub	sp, #24
	.cfi_def_cfa_offset 40
	mov	r1, r0
	add	r2, sp, #20
	strh	r0, [r2]
	add	r0, sp, #16
	movs	r2, #0
.Ltmp271:
	.loc	2 1540 11 prologue_end  @ ../led_effect.c:1540:11
	strh	r2, [r0]
	add	r0, sp, #4
	.loc	2 1543 20               @ ../led_effect.c:1543:20
	strb	r2, [r0]
	.loc	2 1545 19               @ ../led_effect.c:1545:19
	ldr	r2, __arm_cp.20_0
	.loc	2 1545 8 is_stmt 0      @ ../led_effect.c:1545:8
	ldrh	r3, [r2]
	movs	r4, #3
	mov	r5, r4
	muls	r5, r3, r5
	ldr	r3, __arm_cp.20_1
	ldrb	r5, [r3, r5]
	add	r6, sp, #12
	.loc	2 1545 6                @ ../led_effect.c:1545:6
	strb	r5, [r6]
	.loc	2 1546 10 is_stmt 1     @ ../led_effect.c:1546:10
	ldrh	r5, [r2]
	mov	r6, r4
	muls	r6, r5, r6
	adds	r5, r3, r6
	ldrb	r5, [r5, #1]
	add	r6, sp, #8
	.loc	2 1546 8 is_stmt 0      @ ../led_effect.c:1546:8
	strb	r5, [r6]
	.loc	2 1547 9 is_stmt 1      @ ../led_effect.c:1547:9
	ldrh	r2, [r2]
	muls	r4, r2, r4
	adds	r2, r3, r4
	ldrb	r2, [r2, #2]
	.loc	2 1547 7 is_stmt 0      @ ../led_effect.c:1547:7
	strb	r2, [r0]
.Ltmp272:
	.loc	2 1549 6 is_stmt 1      @ ../led_effect.c:1549:6
	ldr	r0, __arm_cp.20_2
	ldrb	r0, [r0]
.Ltmp273:
	.loc	2 1549 6 is_stmt 0      @ ../led_effect.c:1549:6
	cmp	r0, #0
	str	r1, [sp]                @ 4-byte Spill
	beq	.LBB20_4
	b	.LBB20_1
.LBB20_1:
.Ltmp274:
	.loc	2 1551 13 is_stmt 1     @ ../led_effect.c:1551:13
	ldr	r0, __arm_cp.20_0
	ldrh	r1, [r0]
	adds	r2, r1, #1
	strh	r2, [r0]
.Ltmp275:
	.loc	2 1551 7 is_stmt 0      @ ../led_effect.c:1551:7
	ldr	r0, __arm_cp.20_3
	cmp	r1, r0
	bne	.LBB20_3
	b	.LBB20_2
.LBB20_2:
.Ltmp276:
	.loc	2 1553 10 is_stmt 1     @ ../led_effect.c:1553:10
	ldr	r0, __arm_cp.20_0
	ldr	r1, __arm_cp.20_3
	strh	r1, [r0]
	.loc	2 1554 9                @ ../led_effect.c:1554:9
	ldr	r0, __arm_cp.20_2
	movs	r1, #0
	strb	r1, [r0]
	.loc	2 1555 3                @ ../led_effect.c:1555:3
	b	.LBB20_3
.Ltmp277:
.LBB20_3:
	.loc	2 1556 2                @ ../led_effect.c:1556:2
	b	.LBB20_7
.Ltmp278:
.LBB20_4:
	.loc	2 1559 13               @ ../led_effect.c:1559:13
	ldr	r0, __arm_cp.20_0
	ldrh	r1, [r0]
	subs	r2, r1, #1
	strh	r2, [r0]
.Ltmp279:
	.loc	2 1559 7 is_stmt 0      @ ../led_effect.c:1559:7
	cmp	r1, #0
	bne	.LBB20_6
	b	.LBB20_5
.LBB20_5:
.Ltmp280:
	.loc	2 1561 10 is_stmt 1     @ ../led_effect.c:1561:10
	ldr	r0, __arm_cp.20_0
	movs	r1, #0
	strh	r1, [r0]
	.loc	2 1562 9                @ ../led_effect.c:1562:9
	ldr	r0, __arm_cp.20_2
	movs	r1, #1
	strb	r1, [r0]
	.loc	2 1563 3                @ ../led_effect.c:1563:3
	b	.LBB20_6
.Ltmp281:
.LBB20_6:
	.loc	2 0 3 is_stmt 0         @ ../led_effect.c:0:3
	b	.LBB20_7
.LBB20_7:
	.loc	2 1566 2 is_stmt 1      @ ../led_effect.c:1566:2
	bl	setLED_BufferClear
	add	r0, sp, #4
	.loc	2 1567 2                @ ../led_effect.c:1567:2
	ldrb	r2, [r0]
	add	r0, sp, #8
	ldrb	r1, [r0]
	add	r0, sp, #12
	ldrb	r0, [r0]
	bl	setLED_ColorWipe
	add	r0, sp, #20
	.loc	2 1568 2                @ ../led_effect.c:1568:2
	ldrh	r0, [r0]
	bl	delay_ms
	.loc	2 1569 1                @ ../led_effect.c:1569:1
	add	sp, #24
	pop	{r4, r5, r6, pc}
.Ltmp282:
	.p2align	2
@ %bb.8:
	.loc	2 0 1 is_stmt 0         @ ../led_effect.c:0:1
__arm_cp.20_0:
	.long	getBreathing.index
.Lcpi_end16:
	.size	__arm_cp.20_0, .Lcpi_end16-__arm_cp.20_0
__arm_cp.20_1:
	.long	colorsFull
.Lcpi_end17:
	.size	__arm_cp.20_1, .Lcpi_end17-__arm_cp.20_1
__arm_cp.20_2:
	.long	getBreathing.flag
.Lcpi_end18:
	.size	__arm_cp.20_2, .Lcpi_end18-__arm_cp.20_2
__arm_cp.20_3:
	.long	765                     @ 0x2fd
.Lcpi_end19:
	.size	__arm_cp.20_3, .Lcpi_end19-__arm_cp.20_3
.Lfunc_end20:
	.size	getBreathing, .Lfunc_end20-getBreathing
	.cfi_endproc
	.cantunwind
	.fnend
                                        @ -- End function
	.section	.text.getSimpleTest2,"ax",%progbits
	.hidden	getSimpleTest2          @ -- Begin function getSimpleTest2
	.globl	getSimpleTest2
	.p2align	1
	.type	getSimpleTest2,%function
	.code	16                      @ @getSimpleTest2
	.thumb_func
getSimpleTest2:
.Lfunc_begin21:
	.loc	2 1572 0 is_stmt 1      @ ../led_effect.c:1572:0
	.fnstart
	.cfi_startproc
@ %bb.0:
	.loc	2 1574 1 prologue_end   @ ../led_effect.c:1574:1
	bx	lr
.Ltmp283:
.Lfunc_end21:
	.size	getSimpleTest2, .Lfunc_end21-getSimpleTest2
	.cfi_endproc
	.cantunwind
	.fnend
                                        @ -- End function
	.section	.text.getSimpleTest,"ax",%progbits
	.hidden	getSimpleTest           @ -- Begin function getSimpleTest
	.globl	getSimpleTest
	.p2align	2
	.type	getSimpleTest,%function
	.code	16                      @ @getSimpleTest
	.thumb_func
getSimpleTest:
.Lfunc_begin22:
	.loc	2 1577 0                @ ../led_effect.c:1577:0
	.fnstart
	.cfi_startproc
@ %bb.0:
	.save	{r7, lr}
	push	{r7, lr}
	.cfi_def_cfa_offset 8
	.cfi_offset lr, -4
	.cfi_offset r7, -8
	.pad	#24
	sub	sp, #24
	.cfi_def_cfa_offset 32
.Ltmp284:
	.loc	2 1583 2 prologue_end   @ ../led_effect.c:1583:2
	bl	setLED_BufferClear
	.loc	2 1585 9                @ ../led_effect.c:1585:9
	ldr	r0, __arm_cp.22_0
	ldrb	r0, [r0]
	.loc	2 1585 2 is_stmt 0      @ ../led_effect.c:1585:2
	cmp	r0, #1
	str	r0, [sp, #20]           @ 4-byte Spill
	beq	.LBB22_3
	b	.LBB22_1
.LBB22_1:
	ldr	r0, [sp, #20]           @ 4-byte Reload
	cmp	r0, #2
	beq	.LBB22_6
	b	.LBB22_2
.LBB22_2:
	ldr	r0, [sp, #20]           @ 4-byte Reload
	cmp	r0, #3
	beq	.LBB22_9
	b	.LBB22_12
.LBB22_3:
.Ltmp285:
	.loc	2 1588 24 is_stmt 1     @ ../led_effect.c:1588:24
	ldr	r0, __arm_cp.22_1
	.loc	2 1588 4 is_stmt 0      @ ../led_effect.c:1588:4
	ldrb	r1, [r0]
	movs	r2, #255
	movs	r3, #0
	str	r0, [sp, #16]           @ 4-byte Spill
	mov	r0, r1
	mov	r1, r2
	mov	r2, r3
	bl	setLED_ColorArrange
.Ltmp286:
	.loc	2 1589 8 is_stmt 1      @ ../led_effect.c:1589:8
	ldr	r0, [sp, #16]           @ 4-byte Reload
	ldrb	r1, [r0]
.Ltmp287:
	.loc	2 1589 8 is_stmt 0      @ ../led_effect.c:1589:8
	cmp	r1, #23
	bne	.LBB22_5
	b	.LBB22_4
.LBB22_4:
.Ltmp288:
	.loc	2 1591 11 is_stmt 1     @ ../led_effect.c:1591:11
	ldr	r0, __arm_cp.22_0
	movs	r1, #2
	strb	r1, [r0]
	.loc	2 1592 4                @ ../led_effect.c:1592:4
	b	.LBB22_5
.Ltmp289:
.LBB22_5:
	.loc	2 1594 4                @ ../led_effect.c:1594:4
	b	.LBB22_12
.LBB22_6:
	.loc	2 1596 24               @ ../led_effect.c:1596:24
	ldr	r0, __arm_cp.22_1
	.loc	2 1596 4 is_stmt 0      @ ../led_effect.c:1596:4
	ldrb	r1, [r0]
	movs	r2, #255
	movs	r3, #0
	str	r0, [sp, #12]           @ 4-byte Spill
	mov	r0, r1
	mov	r1, r3
	bl	setLED_ColorArrange
.Ltmp290:
	.loc	2 1597 8 is_stmt 1      @ ../led_effect.c:1597:8
	ldr	r0, [sp, #12]           @ 4-byte Reload
	ldrb	r1, [r0]
.Ltmp291:
	.loc	2 1597 8 is_stmt 0      @ ../led_effect.c:1597:8
	cmp	r1, #23
	bne	.LBB22_8
	b	.LBB22_7
.LBB22_7:
.Ltmp292:
	.loc	2 1599 11 is_stmt 1     @ ../led_effect.c:1599:11
	ldr	r0, __arm_cp.22_0
	movs	r1, #3
	strb	r1, [r0]
	.loc	2 1600 4                @ ../led_effect.c:1600:4
	b	.LBB22_8
.Ltmp293:
.LBB22_8:
	.loc	2 1601 4                @ ../led_effect.c:1601:4
	b	.LBB22_12
.LBB22_9:
	.loc	2 1603 24               @ ../led_effect.c:1603:24
	ldr	r0, __arm_cp.22_1
	.loc	2 1603 4 is_stmt 0      @ ../led_effect.c:1603:4
	ldrb	r1, [r0]
	movs	r2, #0
	movs	r3, #255
	str	r0, [sp, #8]            @ 4-byte Spill
	mov	r0, r1
	mov	r1, r2
	bl	setLED_ColorArrange
.Ltmp294:
	.loc	2 1604 8 is_stmt 1      @ ../led_effect.c:1604:8
	ldr	r0, [sp, #8]            @ 4-byte Reload
	ldrb	r1, [r0]
.Ltmp295:
	.loc	2 1604 8 is_stmt 0      @ ../led_effect.c:1604:8
	cmp	r1, #23
	bne	.LBB22_11
	b	.LBB22_10
.LBB22_10:
.Ltmp296:
	.loc	2 1606 11 is_stmt 1     @ ../led_effect.c:1606:11
	ldr	r0, __arm_cp.22_0
	movs	r1, #1
	strb	r1, [r0]
	.loc	2 1607 4                @ ../led_effect.c:1607:4
	b	.LBB22_11
.Ltmp297:
.LBB22_11:
	.loc	2 1608 4                @ ../led_effect.c:1608:4
	b	.LBB22_12
.Ltmp298:
.LBB22_12:
	.loc	2 1613 2                @ ../led_effect.c:1613:2
	movs	r0, #18
	bl	setLED_Display
.Ltmp299:
	.loc	2 1619 9                @ ../led_effect.c:1619:9
	ldr	r0, __arm_cp.22_1
	ldrb	r1, [r0]
	adds	r2, r1, #1
	strb	r2, [r0]
.Ltmp300:
	.loc	2 1619 6 is_stmt 0      @ ../led_effect.c:1619:6
	cmp	r1, #23
	bne	.LBB22_14
	b	.LBB22_13
.LBB22_13:
.Ltmp301:
	.loc	2 1621 7 is_stmt 1      @ ../led_effect.c:1621:7
	ldr	r0, __arm_cp.22_1
	movs	r1, #0
	strb	r1, [r0]
	.loc	2 1622 2                @ ../led_effect.c:1622:2
	b	.LBB22_14
.Ltmp302:
.LBB22_14:
	.loc	2 1624 46               @ ../led_effect.c:1624:46
	ldr	r0, __arm_cp.22_1
	ldrb	r2, [r0]
	.loc	2 1624 5 is_stmt 0      @ ../led_effect.c:1624:5
	ldr	r0, __arm_cp.22_2
	ldr	r1, __arm_cp.22_3
	bl	printf
	.loc	2 1625 1 is_stmt 1      @ ../led_effect.c:1625:1
	str	r0, [sp, #4]            @ 4-byte Spill
	add	sp, #24
	pop	{r7, pc}
.Ltmp303:
	.p2align	2
@ %bb.15:
	.loc	2 0 1 is_stmt 0         @ ../led_effect.c:0:1
__arm_cp.22_0:
	.long	getSimpleTest.state
.Lcpi_end20:
	.size	__arm_cp.22_0, .Lcpi_end20-__arm_cp.22_0
__arm_cp.22_1:
	.long	getSimpleTest.cnt
.Lcpi_end21:
	.size	__arm_cp.22_1, .Lcpi_end21-__arm_cp.22_1
__arm_cp.22_2:
	.long	.L.str
.Lcpi_end22:
	.size	__arm_cp.22_2, .Lcpi_end22-__arm_cp.22_2
__arm_cp.22_3:
	.long	.L__FUNCTION__.getSimpleTest
.Lcpi_end23:
	.size	__arm_cp.22_3, .Lcpi_end23-__arm_cp.22_3
.Lfunc_end22:
	.size	getSimpleTest, .Lfunc_end22-getSimpleTest
	.cfi_endproc
	.cantunwind
	.fnend
                                        @ -- End function
	.section	.text.StateMachine,"ax",%progbits
	.hidden	StateMachine            @ -- Begin function StateMachine
	.globl	StateMachine
	.p2align	2
	.type	StateMachine,%function
	.code	16                      @ @StateMachine
	.thumb_func
StateMachine:
.Lfunc_begin23:
	.loc	2 1628 0 is_stmt 1      @ ../led_effect.c:1628:0
	.fnstart
	.cfi_startproc
@ %bb.0:
	.save	{r7, lr}
	push	{r7, lr}
	.cfi_def_cfa_offset 8
	.cfi_offset lr, -4
	.cfi_offset r7, -8
	.pad	#48
	sub	sp, #48
	.cfi_def_cfa_offset 56
.Ltmp304:
	.loc	2 1636 9 prologue_end   @ ../led_effect.c:1636:9
	ldr	r0, __arm_cp.23_0
	ldrb	r0, [r0]
	.loc	2 1636 2 is_stmt 0      @ ../led_effect.c:1636:2
	subs	r0, r0, #1
	cmp	r0, #51
	str	r0, [sp, #44]           @ 4-byte Spill
	bls	.LBB23_1
	b	.LBB23_16
.LBB23_1:
	.loc	2 0 2                   @ ../led_effect.c:0:2
	ldr	r0, [sp, #44]           @ 4-byte Reload
	lsls	r1, r0, #2
	adr	r2, .LJTI23_0
	adds	r1, r2, r1
	mov	pc, r1
@ %bb.2:
	.p2align	2
.LJTI23_0:
	b.w	.LBB23_3
	b.w	.LBB23_4
	b.w	.LBB23_5
	b.w	.LBB23_6
	b.w	.LBB23_7
	b.w	.LBB23_8
	b.w	.LBB23_9
	b.w	.LBB23_10
	b.w	.LBB23_11
	b.w	.LBB23_16
	b.w	.LBB23_16
	b.w	.LBB23_16
	b.w	.LBB23_16
	b.w	.LBB23_16
	b.w	.LBB23_16
	b.w	.LBB23_16
	b.w	.LBB23_16
	b.w	.LBB23_16
	b.w	.LBB23_16
	b.w	.LBB23_16
	b.w	.LBB23_16
	b.w	.LBB23_16
	b.w	.LBB23_16
	b.w	.LBB23_16
	b.w	.LBB23_16
	b.w	.LBB23_16
	b.w	.LBB23_16
	b.w	.LBB23_16
	b.w	.LBB23_16
	b.w	.LBB23_16
	b.w	.LBB23_16
	b.w	.LBB23_16
	b.w	.LBB23_16
	b.w	.LBB23_16
	b.w	.LBB23_16
	b.w	.LBB23_16
	b.w	.LBB23_16
	b.w	.LBB23_16
	b.w	.LBB23_16
	b.w	.LBB23_16
	b.w	.LBB23_16
	b.w	.LBB23_16
	b.w	.LBB23_16
	b.w	.LBB23_16
	b.w	.LBB23_16
	b.w	.LBB23_16
	b.w	.LBB23_16
	b.w	.LBB23_16
	b.w	.LBB23_12
	b.w	.LBB23_13
	b.w	.LBB23_14
	b.w	.LBB23_15
.LBB23_3:
.Ltmp305:
	.loc	2 1639 4 is_stmt 1      @ ../led_effect.c:1639:4
	movs	r0, #30
	bl	getRainbow
	.loc	2 1640 4                @ ../led_effect.c:1640:4
	movs	r0, #5
	bl	delay_ms
	.loc	2 1641 4                @ ../led_effect.c:1641:4
	b	.LBB23_16
.LBB23_4:
	.loc	2 1644 4                @ ../led_effect.c:1644:4
	movs	r0, #10
	str	r0, [sp, #40]           @ 4-byte Spill
	ldr	r1, [sp, #40]           @ 4-byte Reload
	bl	getRainbowCycle
	.loc	2 1645 4                @ ../led_effect.c:1645:4
	movs	r0, #120
	bl	delay_ms
	.loc	2 1646 4                @ ../led_effect.c:1646:4
	b	.LBB23_16
.LBB23_5:
	.loc	2 1649 34               @ ../led_effect.c:1649:34
	ldr	r0, __arm_cp.23_1
	.loc	2 1649 23 is_stmt 0     @ ../led_effect.c:1649:23
	ldrh	r0, [r0]
	movs	r1, #3
	muls	r1, r0, r1
	ldr	r0, __arm_cp.23_2
	adds	r2, r0, r1
	.loc	2 1649 4                @ ../led_effect.c:1649:4
	ldrb	r1, [r0, r1]
	ldrb	r3, [r2, #2]
	ldrb	r2, [r2, #1]
	movs	r0, #60
	bl	getTheaterChase
	.loc	2 1652 4 is_stmt 1      @ ../led_effect.c:1652:4
	movs	r0, #10
	bl	delay_ms
	.loc	2 1654 4                @ ../led_effect.c:1654:4
	bl	setLED_ColorIdxChange
	.loc	2 1655 4                @ ../led_effect.c:1655:4
	b	.LBB23_16
.LBB23_6:
	.loc	2 1658 4                @ ../led_effect.c:1658:4
	movs	r0, #30
	bl	getTheaterChaseRainbow
	.loc	2 1659 4                @ ../led_effect.c:1659:4
	movs	r0, #10
	bl	delay_ms
	.loc	2 1660 4                @ ../led_effect.c:1660:4
	b	.LBB23_16
.LBB23_7:
	.loc	2 1663 4                @ ../led_effect.c:1663:4
	movs	r0, #30
	bl	getRGBSequence
	.loc	2 1665 4                @ ../led_effect.c:1665:4
	b	.LBB23_16
.LBB23_8:
	.loc	2 1668 44               @ ../led_effect.c:1668:44
	ldr	r0, __arm_cp.23_1
	.loc	2 1668 33 is_stmt 0     @ ../led_effect.c:1668:33
	ldrh	r0, [r0]
	movs	r1, #3
	muls	r1, r0, r1
	ldr	r0, __arm_cp.23_2
	adds	r2, r0, r1
	.loc	2 1668 4                @ ../led_effect.c:1668:4
	ldrb	r0, [r0, r1]
	ldrb	r1, [r2, #1]
	ldrb	r2, [r2, #2]
	mov	r3, sp
	str	r2, [r3, #12]
	str	r1, [r3, #8]
	str	r0, [r3, #4]
	str	r2, [r3]
	movs	r2, #32
	str	r0, [sp, #36]           @ 4-byte Spill
	mov	r0, r2
	str	r1, [sp, #32]           @ 4-byte Spill
	mov	r1, r2
	ldr	r2, [sp, #36]           @ 4-byte Reload
	ldr	r3, [sp, #32]           @ 4-byte Reload
	bl	getAlternateColors
	.loc	2 1670 4 is_stmt 1      @ ../led_effect.c:1670:4
	bl	setLED_ColorIdxChange
	.loc	2 1671 4                @ ../led_effect.c:1671:4
	b	.LBB23_16
.LBB23_9:
	.loc	2 1674 32               @ ../led_effect.c:1674:32
	ldr	r0, __arm_cp.23_1
	.loc	2 1674 21 is_stmt 0     @ ../led_effect.c:1674:21
	ldrh	r0, [r0]
	movs	r1, #3
	muls	r1, r0, r1
	ldr	r0, __arm_cp.23_2
	adds	r2, r0, r1
	.loc	2 1674 4                @ ../led_effect.c:1674:4
	ldrb	r1, [r0, r1]
	ldrb	r3, [r2, #2]
	ldrb	r2, [r2, #1]
	movs	r0, #30
	bl	getFullEmpty
	.loc	2 1676 4 is_stmt 1      @ ../led_effect.c:1676:4
	bl	setLED_ColorIdxChange
	.loc	2 1677 4                @ ../led_effect.c:1677:4
	b	.LBB23_16
.LBB23_10:
	.loc	2 1680 38               @ ../led_effect.c:1680:38
	ldr	r0, __arm_cp.23_1
	.loc	2 1680 27 is_stmt 0     @ ../led_effect.c:1680:27
	ldrh	r0, [r0]
	movs	r1, #3
	muls	r1, r0, r1
	ldr	r0, __arm_cp.23_2
	adds	r2, r0, r1
	.loc	2 1680 4                @ ../led_effect.c:1680:4
	ldrb	r0, [r0, r1]
	ldrb	r3, [r2, #1]
	ldrb	r1, [r2, #2]
	mov	r2, sp
	str	r1, [r2]
	movs	r1, #60
	movs	r2, #10
	str	r0, [sp, #28]           @ 4-byte Spill
	mov	r0, r1
	mov	r1, r2
	ldr	r2, [sp, #28]           @ 4-byte Reload
	bl	getPatternMove
	.loc	2 1682 4 is_stmt 1      @ ../led_effect.c:1682:4
	bl	setLED_ColorIdxChange
	.loc	2 1683 4                @ ../led_effect.c:1683:4
	b	.LBB23_16
.LBB23_11:
	.loc	2 1687 4                @ ../led_effect.c:1687:4
	movs	r0, #30
	bl	getColorWheel
	.loc	2 1689 4                @ ../led_effect.c:1689:4
	movs	r0, #10
	bl	delay_ms
	.loc	2 1690 4                @ ../led_effect.c:1690:4
	b	.LBB23_16
.LBB23_12:
	.loc	2 1693 4                @ ../led_effect.c:1693:4
	movs	r0, #10
	bl	getAllColors
	.loc	2 1694 4                @ ../led_effect.c:1694:4
	b	.LBB23_16
.LBB23_13:
	.loc	2 1698 33               @ ../led_effect.c:1698:33
	ldr	r0, __arm_cp.23_1
	.loc	2 1698 22 is_stmt 0     @ ../led_effect.c:1698:22
	ldrh	r0, [r0]
	movs	r1, #3
	muls	r1, r0, r1
	ldr	r0, __arm_cp.23_2
	adds	r2, r0, r1
	.loc	2 1698 4                @ ../led_effect.c:1698:4
	ldrb	r1, [r0, r1]
	ldrb	r3, [r2, #2]
	ldrb	r2, [r2, #1]
	movw	r0, #900
	bl	getHeartBeat
	.loc	2 1700 4 is_stmt 1      @ ../led_effect.c:1700:4
	bl	setLED_ColorIdxChange
	.loc	2 1701 4                @ ../led_effect.c:1701:4
	b	.LBB23_16
.LBB23_14:
	.loc	2 1704 35               @ ../led_effect.c:1704:35
	ldr	r0, __arm_cp.23_1
	.loc	2 1704 24 is_stmt 0     @ ../led_effect.c:1704:24
	ldrh	r0, [r0]
	movs	r1, #3
	muls	r1, r0, r1
	ldr	r0, __arm_cp.23_2
	adds	r2, r0, r1
	.loc	2 1704 4                @ ../led_effect.c:1704:4
	ldrb	r1, [r0, r1]
	ldrb	r3, [r2, #2]
	ldrb	r2, [r2, #1]
	movs	r0, #30
	bl	getCircularRing
	.loc	2 1706 4 is_stmt 1      @ ../led_effect.c:1706:4
	bl	setLED_ColorIdxChange
	.loc	2 1707 4                @ ../led_effect.c:1707:4
	b	.LBB23_16
.LBB23_15:
	.loc	2 1710 38               @ ../led_effect.c:1710:38
	ldr	r0, __arm_cp.23_1
	.loc	2 1710 27 is_stmt 0     @ ../led_effect.c:1710:27
	ldrh	r0, [r0]
	movs	r1, #3
	muls	r1, r0, r1
	ldr	r0, __arm_cp.23_2
	adds	r2, r0, r1
	.loc	2 1710 4                @ ../led_effect.c:1710:4
	ldrb	r0, [r0, r1]
	ldrb	r1, [r2, #1]
	ldrb	r2, [r2, #2]
	mov	r3, sp
	str	r2, [r3, #12]
	str	r1, [r3, #8]
	str	r0, [r3, #4]
	str	r2, [r3]
	movs	r2, #160
	movs	r3, #16
	str	r0, [sp, #24]           @ 4-byte Spill
	mov	r0, r2
	str	r1, [sp, #20]           @ 4-byte Spill
	mov	r1, r3
	ldr	r2, [sp, #24]           @ 4-byte Reload
	ldr	r3, [sp, #20]           @ 4-byte Reload
	bl	getFromAToB
	.loc	2 1712 4 is_stmt 1      @ ../led_effect.c:1712:4
	bl	setLED_ColorIdxChange
	.loc	2 1713 4                @ ../led_effect.c:1713:4
	b	.LBB23_16
.Ltmp306:
.LBB23_16:
	.loc	2 1719 1                @ ../led_effect.c:1719:1
	add	sp, #48
	pop	{r7, pc}
.Ltmp307:
	.p2align	2
@ %bb.17:
	.loc	2 0 1 is_stmt 0         @ ../led_effect.c:0:1
__arm_cp.23_0:
	.long	DemoState
.Lcpi_end24:
	.size	__arm_cp.23_0, .Lcpi_end24-__arm_cp.23_0
__arm_cp.23_1:
	.long	Coloridx
.Lcpi_end25:
	.size	__arm_cp.23_1, .Lcpi_end25-__arm_cp.23_1
__arm_cp.23_2:
	.long	colorsFull
.Lcpi_end26:
	.size	__arm_cp.23_2, .Lcpi_end26-__arm_cp.23_2
.Lfunc_end23:
	.size	StateMachine, .Lfunc_end23-StateMachine
	.cfi_endproc
	.cantunwind
	.fnend
                                        @ -- End function
	.section	.text.led_effect,"ax",%progbits
	.hidden	led_effect              @ -- Begin function led_effect
	.globl	led_effect
	.p2align	1
	.type	led_effect,%function
	.code	16                      @ @led_effect
	.thumb_func
led_effect:
.Lfunc_begin24:
	.loc	2 1722 0 is_stmt 1      @ ../led_effect.c:1722:0
	.fnstart
	.cfi_startproc
@ %bb.0:
	.save	{r7, lr}
	push	{r7, lr}
	.cfi_def_cfa_offset 8
	.cfi_offset lr, -4
	.cfi_offset r7, -8
.Ltmp308:
	.loc	2 1728 2 prologue_end   @ ../led_effect.c:1728:2
	bl	StateMachine
	.loc	2 1734 1                @ ../led_effect.c:1734:1
	pop	{r7, pc}
.Ltmp309:
.Lfunc_end24:
	.size	led_effect, .Lfunc_end24-led_effect
	.cfi_endproc
	.cantunwind
	.fnend
                                        @ -- End function
	.hidden	LLSIRGBBuffer           @ @LLSIRGBBuffer
	.type	LLSIRGBBuffer,%object
	.section	.rodata.LLSIRGBBuffer,"a",%progbits
	.globl	LLSIRGBBuffer
	.p2align	2
LLSIRGBBuffer:
	.long	255                     @ 0xff
	.long	0                       @ 0x0
	.long	0                       @ 0x0
	.long	0                       @ 0x0
	.long	0                       @ 0x0
	.long	4278190080              @ 0xff000000
	.long	0                       @ 0x0
	.long	0                       @ 0x0
	.long	0                       @ 0x0
	.long	0                       @ 0x0
	.long	0                       @ 0x0
	.long	16711680                @ 0xff0000
	.long	0                       @ 0x0
	.long	0                       @ 0x0
	.long	0                       @ 0x0
	.long	0                       @ 0x0
	.long	0                       @ 0x0
	.long	65280                   @ 0xff00
	.long	0                       @ 0x0
	.long	0                       @ 0x0
	.long	0                       @ 0x0
	.long	0                       @ 0x0
	.long	0                       @ 0x0
	.long	255                     @ 0xff
	.long	0                       @ 0x0
	.long	0                       @ 0x0
	.long	0                       @ 0x0
	.long	0                       @ 0x0
	.long	4278190080              @ 0xff000000
	.long	0                       @ 0x0
	.long	65280                   @ 0xff00
	.long	0                       @ 0x0
	.long	0                       @ 0x0
	.long	0                       @ 0x0
	.long	0                       @ 0x0
	.long	0                       @ 0x0
	.long	255                     @ 0xff
	.long	0                       @ 0x0
	.long	0                       @ 0x0
	.long	0                       @ 0x0
	.long	0                       @ 0x0
	.long	4278190080              @ 0xff000000
	.long	0                       @ 0x0
	.long	0                       @ 0x0
	.long	0                       @ 0x0
	.long	0                       @ 0x0
	.long	0                       @ 0x0
	.long	16711680                @ 0xff0000
	.long	0                       @ 0x0
	.long	0                       @ 0x0
	.long	0                       @ 0x0
	.long	0                       @ 0x0
	.long	0                       @ 0x0
	.long	65280                   @ 0xff00
	.long	0                       @ 0x0
	.long	0                       @ 0x0
	.long	0                       @ 0x0
	.long	0                       @ 0x0
	.long	0                       @ 0x0
	.long	255                     @ 0xff
	.long	16711680                @ 0xff0000
	.long	0                       @ 0x0
	.long	0                       @ 0x0
	.long	0                       @ 0x0
	.long	0                       @ 0x0
	.long	0                       @ 0x0
	.long	65280                   @ 0xff00
	.long	0                       @ 0x0
	.long	0                       @ 0x0
	.long	0                       @ 0x0
	.long	0                       @ 0x0
	.long	0                       @ 0x0
	.long	255                     @ 0xff
	.long	0                       @ 0x0
	.long	0                       @ 0x0
	.long	0                       @ 0x0
	.long	0                       @ 0x0
	.long	4278190080              @ 0xff000000
	.long	0                       @ 0x0
	.long	0                       @ 0x0
	.long	0                       @ 0x0
	.long	0                       @ 0x0
	.long	0                       @ 0x0
	.long	16711680                @ 0xff0000
	.long	0                       @ 0x0
	.long	0                       @ 0x0
	.long	0                       @ 0x0
	.long	0                       @ 0x0
	.long	0                       @ 0x0
	.long	65280                   @ 0xff00
	.size	LLSIRGBBuffer, 360

	.hidden	LLSIDataBuffer          @ @LLSIDataBuffer
	.type	LLSIDataBuffer,%object
	.section	.bss.LLSIDataBuffer,"aw",%nobits
	.globl	LLSIDataBuffer
	.p2align	2
LLSIDataBuffer:
	.zero	72
	.size	LLSIDataBuffer, 72

	.hidden	DemoState               @ @DemoState
	.type	DemoState,%object
	.section	.data.DemoState,"aw",%progbits
	.globl	DemoState
DemoState:
	.byte	1                       @ 0x1
	.size	DemoState, 1

	.hidden	Coloridx                @ @Coloridx
	.type	Coloridx,%object
	.section	.bss.Coloridx,"aw",%nobits
	.globl	Coloridx
	.p2align	1
Coloridx:
	.short	0                       @ 0x0
	.size	Coloridx, 2

	.hidden	colorsFull              @ @colorsFull
	.type	colorsFull,%object
	.section	.rodata.colorsFull,"a",%progbits
	.globl	colorsFull
colorsFull:
	.asciz	"\377\000"
	.asciz	"\376\001"
	.asciz	"\375\002"
	.asciz	"\374\003"
	.asciz	"\373\004"
	.asciz	"\372\005"
	.asciz	"\371\006"
	.asciz	"\370\007"
	.asciz	"\367\b"
	.asciz	"\366\t"
	.asciz	"\365\n"
	.asciz	"\364\013"
	.asciz	"\363\f"
	.asciz	"\362\r"
	.asciz	"\361\016"
	.asciz	"\360\017"
	.asciz	"\357\020"
	.asciz	"\356\021"
	.asciz	"\355\022"
	.asciz	"\354\023"
	.asciz	"\353\024"
	.asciz	"\352\025"
	.asciz	"\351\026"
	.asciz	"\350\027"
	.asciz	"\347\030"
	.asciz	"\346\031"
	.asciz	"\345\032"
	.asciz	"\344\033"
	.asciz	"\343\034"
	.asciz	"\342\035"
	.asciz	"\341\036"
	.asciz	"\340\037"
	.asciz	"\337 "
	.asciz	"\336!"
	.asciz	"\335\""
	.asciz	"\334#"
	.asciz	"\333$"
	.asciz	"\332%"
	.asciz	"\331&"
	.asciz	"\330'"
	.asciz	"\327("
	.asciz	"\326)"
	.asciz	"\325*"
	.asciz	"\324+"
	.asciz	"\323,"
	.asciz	"\322-"
	.asciz	"\321."
	.asciz	"\320/"
	.asciz	"\3170"
	.asciz	"\3161"
	.asciz	"\3152"
	.asciz	"\3143"
	.asciz	"\3134"
	.asciz	"\3125"
	.asciz	"\3116"
	.asciz	"\3107"
	.asciz	"\3078"
	.asciz	"\3069"
	.asciz	"\305:"
	.asciz	"\304;"
	.asciz	"\303<"
	.asciz	"\302="
	.asciz	"\301>"
	.asciz	"\300?"
	.asciz	"\277@"
	.asciz	"\276A"
	.asciz	"\275B"
	.asciz	"\274C"
	.asciz	"\273D"
	.asciz	"\272E"
	.asciz	"\271F"
	.asciz	"\270G"
	.asciz	"\267H"
	.asciz	"\266I"
	.asciz	"\265J"
	.asciz	"\264K"
	.asciz	"\263L"
	.asciz	"\262M"
	.asciz	"\261N"
	.asciz	"\260O"
	.asciz	"\257P"
	.asciz	"\256Q"
	.asciz	"\255R"
	.asciz	"\254S"
	.asciz	"\253T"
	.asciz	"\252U"
	.asciz	"\251V"
	.asciz	"\250W"
	.asciz	"\247X"
	.asciz	"\246Y"
	.asciz	"\245Z"
	.asciz	"\244["
	.asciz	"\243\\"
	.asciz	"\242]"
	.asciz	"\241^"
	.asciz	"\240_"
	.asciz	"\237`"
	.asciz	"\236a"
	.asciz	"\235b"
	.asciz	"\234c"
	.asciz	"\233d"
	.asciz	"\232e"
	.asciz	"\231f"
	.asciz	"\230g"
	.asciz	"\227h"
	.asciz	"\226i"
	.asciz	"\225j"
	.asciz	"\224k"
	.asciz	"\223l"
	.asciz	"\222m"
	.asciz	"\221n"
	.asciz	"\220o"
	.asciz	"\217p"
	.asciz	"\216q"
	.asciz	"\215r"
	.asciz	"\214s"
	.asciz	"\213t"
	.asciz	"\212u"
	.asciz	"\211v"
	.asciz	"\210w"
	.asciz	"\207x"
	.asciz	"\206y"
	.asciz	"\205z"
	.asciz	"\204{"
	.asciz	"\203|"
	.asciz	"\202}"
	.asciz	"\201~"
	.asciz	"\200\177"
	.asciz	"\177\200"
	.asciz	"~\201"
	.asciz	"}\202"
	.asciz	"|\203"
	.asciz	"{\204"
	.asciz	"z\205"
	.asciz	"y\206"
	.asciz	"x\207"
	.asciz	"w\210"
	.asciz	"v\211"
	.asciz	"u\212"
	.asciz	"t\213"
	.asciz	"s\214"
	.asciz	"r\215"
	.asciz	"q\216"
	.asciz	"p\217"
	.asciz	"o\220"
	.asciz	"n\221"
	.asciz	"m\222"
	.asciz	"l\223"
	.asciz	"k\224"
	.asciz	"j\225"
	.asciz	"i\226"
	.asciz	"h\227"
	.asciz	"g\230"
	.asciz	"f\231"
	.asciz	"e\232"
	.asciz	"d\233"
	.asciz	"c\234"
	.asciz	"b\235"
	.asciz	"a\236"
	.asciz	"`\237"
	.asciz	"_\240"
	.asciz	"^\241"
	.asciz	"]\242"
	.asciz	"\\\243"
	.asciz	"[\244"
	.asciz	"Z\245"
	.asciz	"Y\246"
	.asciz	"X\247"
	.asciz	"W\250"
	.asciz	"V\251"
	.asciz	"U\252"
	.asciz	"T\253"
	.asciz	"S\254"
	.asciz	"R\255"
	.asciz	"Q\256"
	.asciz	"P\257"
	.asciz	"O\260"
	.asciz	"N\261"
	.asciz	"M\262"
	.asciz	"L\263"
	.asciz	"K\264"
	.asciz	"J\265"
	.asciz	"I\266"
	.asciz	"H\267"
	.asciz	"G\270"
	.asciz	"F\271"
	.asciz	"E\272"
	.asciz	"D\273"
	.asciz	"C\274"
	.asciz	"B\275"
	.asciz	"A\276"
	.asciz	"@\277"
	.asciz	"?\300"
	.asciz	">\301"
	.asciz	"=\302"
	.asciz	"<\303"
	.asciz	";\304"
	.asciz	":\305"
	.asciz	"9\306"
	.asciz	"8\307"
	.asciz	"7\310"
	.asciz	"6\311"
	.asciz	"5\312"
	.asciz	"4\313"
	.asciz	"3\314"
	.asciz	"2\315"
	.asciz	"1\316"
	.asciz	"0\317"
	.asciz	"/\320"
	.asciz	".\321"
	.asciz	"-\322"
	.asciz	",\323"
	.asciz	"+\324"
	.asciz	"*\325"
	.asciz	")\326"
	.asciz	"(\327"
	.asciz	"'\330"
	.asciz	"&\331"
	.asciz	"%\332"
	.asciz	"$\333"
	.asciz	"#\334"
	.asciz	"\"\335"
	.asciz	"!\336"
	.asciz	" \337"
	.asciz	"\037\340"
	.asciz	"\036\341"
	.asciz	"\035\342"
	.asciz	"\034\343"
	.asciz	"\033\344"
	.asciz	"\032\345"
	.asciz	"\031\346"
	.asciz	"\030\347"
	.asciz	"\027\350"
	.asciz	"\026\351"
	.asciz	"\025\352"
	.asciz	"\024\353"
	.asciz	"\023\354"
	.asciz	"\022\355"
	.asciz	"\021\356"
	.asciz	"\020\357"
	.asciz	"\017\360"
	.asciz	"\016\361"
	.asciz	"\r\362"
	.asciz	"\f\363"
	.asciz	"\013\364"
	.asciz	"\n\365"
	.asciz	"\t\366"
	.asciz	"\b\367"
	.asciz	"\007\370"
	.asciz	"\006\371"
	.asciz	"\005\372"
	.asciz	"\004\373"
	.asciz	"\003\374"
	.asciz	"\002\375"
	.asciz	"\001\376"
	.asciz	"\000\377"
	.ascii	"\000\376\001"
	.ascii	"\000\375\002"
	.ascii	"\000\374\003"
	.ascii	"\000\373\004"
	.ascii	"\000\372\005"
	.ascii	"\000\371\006"
	.ascii	"\000\370\007"
	.ascii	"\000\367\b"
	.ascii	"\000\366\t"
	.ascii	"\000\365\n"
	.ascii	"\000\364\013"
	.ascii	"\000\363\f"
	.ascii	"\000\362\r"
	.ascii	"\000\361\016"
	.ascii	"\000\360\017"
	.ascii	"\000\357\020"
	.ascii	"\000\356\021"
	.ascii	"\000\355\022"
	.ascii	"\000\354\023"
	.ascii	"\000\353\024"
	.ascii	"\000\352\025"
	.ascii	"\000\351\026"
	.ascii	"\000\350\027"
	.ascii	"\000\347\030"
	.ascii	"\000\346\031"
	.ascii	"\000\345\032"
	.ascii	"\000\344\033"
	.ascii	"\000\343\034"
	.ascii	"\000\342\035"
	.ascii	"\000\341\036"
	.ascii	"\000\340\037"
	.ascii	"\000\337 "
	.ascii	"\000\336!"
	.ascii	"\000\335\""
	.ascii	"\000\334#"
	.ascii	"\000\333$"
	.ascii	"\000\332%"
	.ascii	"\000\331&"
	.ascii	"\000\330'"
	.ascii	"\000\327("
	.ascii	"\000\326)"
	.ascii	"\000\325*"
	.ascii	"\000\324+"
	.ascii	"\000\323,"
	.ascii	"\000\322-"
	.ascii	"\000\321."
	.ascii	"\000\320/"
	.ascii	"\000\3170"
	.ascii	"\000\3161"
	.ascii	"\000\3152"
	.ascii	"\000\3143"
	.ascii	"\000\3134"
	.ascii	"\000\3125"
	.ascii	"\000\3116"
	.ascii	"\000\3107"
	.ascii	"\000\3078"
	.ascii	"\000\3069"
	.ascii	"\000\305:"
	.ascii	"\000\304;"
	.ascii	"\000\303<"
	.ascii	"\000\302="
	.ascii	"\000\301>"
	.ascii	"\000\300?"
	.ascii	"\000\277@"
	.ascii	"\000\276A"
	.ascii	"\000\275B"
	.ascii	"\000\274C"
	.ascii	"\000\273D"
	.ascii	"\000\272E"
	.ascii	"\000\271F"
	.ascii	"\000\270G"
	.ascii	"\000\267H"
	.ascii	"\000\266I"
	.ascii	"\000\265J"
	.ascii	"\000\264K"
	.ascii	"\000\263L"
	.ascii	"\000\262M"
	.ascii	"\000\261N"
	.ascii	"\000\260O"
	.ascii	"\000\257P"
	.ascii	"\000\256Q"
	.ascii	"\000\255R"
	.ascii	"\000\254S"
	.ascii	"\000\253T"
	.ascii	"\000\252U"
	.ascii	"\000\251V"
	.ascii	"\000\250W"
	.ascii	"\000\247X"
	.ascii	"\000\246Y"
	.ascii	"\000\245Z"
	.ascii	"\000\244["
	.ascii	"\000\243\\"
	.ascii	"\000\242]"
	.ascii	"\000\241^"
	.ascii	"\000\240_"
	.ascii	"\000\237`"
	.ascii	"\000\236a"
	.ascii	"\000\235b"
	.ascii	"\000\234c"
	.ascii	"\000\233d"
	.ascii	"\000\232e"
	.ascii	"\000\231f"
	.ascii	"\000\230g"
	.ascii	"\000\227h"
	.ascii	"\000\226i"
	.ascii	"\000\225j"
	.ascii	"\000\224k"
	.ascii	"\000\223l"
	.ascii	"\000\222m"
	.ascii	"\000\221n"
	.ascii	"\000\220o"
	.ascii	"\000\217p"
	.ascii	"\000\216q"
	.ascii	"\000\215r"
	.ascii	"\000\214s"
	.ascii	"\000\213t"
	.ascii	"\000\212u"
	.ascii	"\000\211v"
	.ascii	"\000\210w"
	.ascii	"\000\207x"
	.ascii	"\000\206y"
	.ascii	"\000\205z"
	.ascii	"\000\204{"
	.ascii	"\000\203|"
	.ascii	"\000\202}"
	.ascii	"\000\201~"
	.ascii	"\000\200\177"
	.ascii	"\000\177\200"
	.ascii	"\000~\201"
	.ascii	"\000}\202"
	.ascii	"\000|\203"
	.ascii	"\000{\204"
	.ascii	"\000z\205"
	.ascii	"\000y\206"
	.ascii	"\000x\207"
	.ascii	"\000w\210"
	.ascii	"\000v\211"
	.ascii	"\000u\212"
	.ascii	"\000t\213"
	.ascii	"\000s\214"
	.ascii	"\000r\215"
	.ascii	"\000q\216"
	.ascii	"\000p\217"
	.ascii	"\000o\220"
	.ascii	"\000n\221"
	.ascii	"\000m\222"
	.ascii	"\000l\223"
	.ascii	"\000k\224"
	.ascii	"\000j\225"
	.ascii	"\000i\226"
	.ascii	"\000h\227"
	.ascii	"\000g\230"
	.ascii	"\000f\231"
	.ascii	"\000e\232"
	.ascii	"\000d\233"
	.ascii	"\000c\234"
	.ascii	"\000b\235"
	.ascii	"\000a\236"
	.ascii	"\000`\237"
	.ascii	"\000_\240"
	.ascii	"\000^\241"
	.ascii	"\000]\242"
	.ascii	"\000\\\243"
	.ascii	"\000[\244"
	.ascii	"\000Z\245"
	.ascii	"\000Y\246"
	.ascii	"\000X\247"
	.ascii	"\000W\250"
	.ascii	"\000V\251"
	.ascii	"\000U\252"
	.ascii	"\000T\253"
	.ascii	"\000S\254"
	.ascii	"\000R\255"
	.ascii	"\000Q\256"
	.ascii	"\000P\257"
	.ascii	"\000O\260"
	.ascii	"\000N\261"
	.ascii	"\000M\262"
	.ascii	"\000L\263"
	.ascii	"\000K\264"
	.ascii	"\000J\265"
	.ascii	"\000I\266"
	.ascii	"\000H\267"
	.ascii	"\000G\270"
	.ascii	"\000F\271"
	.ascii	"\000E\272"
	.ascii	"\000D\273"
	.ascii	"\000C\274"
	.ascii	"\000B\275"
	.ascii	"\000A\276"
	.ascii	"\000@\277"
	.ascii	"\000?\300"
	.ascii	"\000>\301"
	.ascii	"\000=\302"
	.ascii	"\000<\303"
	.ascii	"\000;\304"
	.ascii	"\000:\305"
	.ascii	"\0009\306"
	.ascii	"\0008\307"
	.ascii	"\0007\310"
	.ascii	"\0006\311"
	.ascii	"\0005\312"
	.ascii	"\0004\313"
	.ascii	"\0003\314"
	.ascii	"\0002\315"
	.ascii	"\0001\316"
	.ascii	"\0000\317"
	.ascii	"\000/\320"
	.ascii	"\000.\321"
	.ascii	"\000-\322"
	.ascii	"\000,\323"
	.ascii	"\000+\324"
	.ascii	"\000*\325"
	.ascii	"\000)\326"
	.ascii	"\000(\327"
	.ascii	"\000'\330"
	.ascii	"\000&\331"
	.ascii	"\000%\332"
	.ascii	"\000$\333"
	.ascii	"\000#\334"
	.ascii	"\000\"\335"
	.ascii	"\000!\336"
	.ascii	"\000 \337"
	.ascii	"\000\037\340"
	.ascii	"\000\036\341"
	.ascii	"\000\035\342"
	.ascii	"\000\034\343"
	.ascii	"\000\033\344"
	.ascii	"\000\032\345"
	.ascii	"\000\031\346"
	.ascii	"\000\030\347"
	.ascii	"\000\027\350"
	.ascii	"\000\026\351"
	.ascii	"\000\025\352"
	.ascii	"\000\024\353"
	.ascii	"\000\023\354"
	.ascii	"\000\022\355"
	.ascii	"\000\021\356"
	.ascii	"\000\020\357"
	.ascii	"\000\017\360"
	.ascii	"\000\016\361"
	.ascii	"\000\r\362"
	.ascii	"\000\f\363"
	.ascii	"\000\013\364"
	.ascii	"\000\n\365"
	.ascii	"\000\t\366"
	.ascii	"\000\b\367"
	.ascii	"\000\007\370"
	.ascii	"\000\006\371"
	.ascii	"\000\005\372"
	.ascii	"\000\004\373"
	.ascii	"\000\003\374"
	.ascii	"\000\002\375"
	.ascii	"\000\001\376"
	.ascii	"\000\000\377"
	.ascii	"\001\000\376"
	.ascii	"\002\000\375"
	.ascii	"\003\000\374"
	.ascii	"\004\000\373"
	.ascii	"\005\000\372"
	.ascii	"\006\000\371"
	.ascii	"\007\000\370"
	.ascii	"\b\000\367"
	.ascii	"\t\000\366"
	.ascii	"\n\000\365"
	.ascii	"\013\000\364"
	.ascii	"\f\000\363"
	.ascii	"\r\000\362"
	.ascii	"\016\000\361"
	.ascii	"\017\000\360"
	.ascii	"\020\000\357"
	.ascii	"\021\000\356"
	.ascii	"\022\000\355"
	.ascii	"\023\000\354"
	.ascii	"\024\000\353"
	.ascii	"\025\000\352"
	.ascii	"\026\000\351"
	.ascii	"\027\000\350"
	.ascii	"\030\000\347"
	.ascii	"\031\000\346"
	.ascii	"\032\000\345"
	.ascii	"\033\000\344"
	.ascii	"\034\000\343"
	.ascii	"\035\000\342"
	.ascii	"\036\000\341"
	.ascii	"\037\000\340"
	.ascii	" \000\337"
	.ascii	"!\000\336"
	.ascii	"\"\000\335"
	.ascii	"#\000\334"
	.ascii	"$\000\333"
	.ascii	"%\000\332"
	.ascii	"&\000\331"
	.ascii	"'\000\330"
	.ascii	"(\000\327"
	.ascii	")\000\326"
	.ascii	"*\000\325"
	.ascii	"+\000\324"
	.ascii	",\000\323"
	.ascii	"-\000\322"
	.ascii	".\000\321"
	.ascii	"/\000\320"
	.ascii	"0\000\317"
	.ascii	"1\000\316"
	.ascii	"2\000\315"
	.ascii	"3\000\314"
	.ascii	"4\000\313"
	.ascii	"5\000\312"
	.ascii	"6\000\311"
	.ascii	"7\000\310"
	.ascii	"8\000\307"
	.ascii	"9\000\306"
	.ascii	":\000\305"
	.ascii	";\000\304"
	.ascii	"<\000\303"
	.ascii	"=\000\302"
	.ascii	">\000\301"
	.ascii	"?\000\300"
	.ascii	"@\000\277"
	.ascii	"A\000\276"
	.ascii	"B\000\275"
	.ascii	"C\000\274"
	.ascii	"D\000\273"
	.ascii	"E\000\272"
	.ascii	"F\000\271"
	.ascii	"G\000\270"
	.ascii	"H\000\267"
	.ascii	"I\000\266"
	.ascii	"J\000\265"
	.ascii	"K\000\264"
	.ascii	"L\000\263"
	.ascii	"M\000\262"
	.ascii	"N\000\261"
	.ascii	"O\000\260"
	.ascii	"P\000\257"
	.ascii	"Q\000\256"
	.ascii	"R\000\255"
	.ascii	"S\000\254"
	.ascii	"T\000\253"
	.ascii	"U\000\252"
	.ascii	"V\000\251"
	.ascii	"W\000\250"
	.ascii	"X\000\247"
	.ascii	"Y\000\246"
	.ascii	"Z\000\245"
	.ascii	"[\000\244"
	.ascii	"\\\000\243"
	.ascii	"]\000\242"
	.ascii	"^\000\241"
	.ascii	"_\000\240"
	.ascii	"`\000\237"
	.ascii	"a\000\236"
	.ascii	"b\000\235"
	.ascii	"c\000\234"
	.ascii	"d\000\233"
	.ascii	"e\000\232"
	.ascii	"f\000\231"
	.ascii	"g\000\230"
	.ascii	"h\000\227"
	.ascii	"i\000\226"
	.ascii	"j\000\225"
	.ascii	"k\000\224"
	.ascii	"l\000\223"
	.ascii	"m\000\222"
	.ascii	"n\000\221"
	.ascii	"o\000\220"
	.ascii	"p\000\217"
	.ascii	"q\000\216"
	.ascii	"r\000\215"
	.ascii	"s\000\214"
	.ascii	"t\000\213"
	.ascii	"u\000\212"
	.ascii	"v\000\211"
	.ascii	"w\000\210"
	.ascii	"x\000\207"
	.ascii	"y\000\206"
	.ascii	"z\000\205"
	.ascii	"{\000\204"
	.ascii	"|\000\203"
	.ascii	"}\000\202"
	.ascii	"~\000\201"
	.ascii	"\177\000\200"
	.ascii	"\200\000\177"
	.ascii	"\201\000~"
	.ascii	"\202\000}"
	.ascii	"\203\000|"
	.ascii	"\204\000{"
	.ascii	"\205\000z"
	.ascii	"\206\000y"
	.ascii	"\207\000x"
	.ascii	"\210\000w"
	.ascii	"\211\000v"
	.ascii	"\212\000u"
	.ascii	"\213\000t"
	.ascii	"\214\000s"
	.ascii	"\215\000r"
	.ascii	"\216\000q"
	.ascii	"\217\000p"
	.ascii	"\220\000o"
	.ascii	"\221\000n"
	.ascii	"\222\000m"
	.ascii	"\223\000l"
	.ascii	"\224\000k"
	.ascii	"\225\000j"
	.ascii	"\226\000i"
	.ascii	"\227\000h"
	.ascii	"\230\000g"
	.ascii	"\231\000f"
	.ascii	"\232\000e"
	.ascii	"\233\000d"
	.ascii	"\234\000c"
	.ascii	"\235\000b"
	.ascii	"\236\000a"
	.ascii	"\237\000`"
	.ascii	"\240\000_"
	.ascii	"\241\000^"
	.ascii	"\242\000]"
	.ascii	"\243\000\\"
	.ascii	"\244\000["
	.ascii	"\245\000Z"
	.ascii	"\246\000Y"
	.ascii	"\247\000X"
	.ascii	"\250\000W"
	.ascii	"\251\000V"
	.ascii	"\252\000U"
	.ascii	"\253\000T"
	.ascii	"\254\000S"
	.ascii	"\255\000R"
	.ascii	"\256\000Q"
	.ascii	"\257\000P"
	.ascii	"\260\000O"
	.ascii	"\261\000N"
	.ascii	"\262\000M"
	.ascii	"\263\000L"
	.ascii	"\264\000K"
	.ascii	"\265\000J"
	.ascii	"\266\000I"
	.ascii	"\267\000H"
	.ascii	"\270\000G"
	.ascii	"\271\000F"
	.ascii	"\272\000E"
	.ascii	"\273\000D"
	.ascii	"\274\000C"
	.ascii	"\275\000B"
	.ascii	"\276\000A"
	.ascii	"\277\000@"
	.ascii	"\300\000?"
	.ascii	"\301\000>"
	.ascii	"\302\000="
	.ascii	"\303\000<"
	.ascii	"\304\000;"
	.ascii	"\305\000:"
	.ascii	"\306\0009"
	.ascii	"\307\0008"
	.ascii	"\310\0007"
	.ascii	"\311\0006"
	.ascii	"\312\0005"
	.ascii	"\313\0004"
	.ascii	"\314\0003"
	.ascii	"\315\0002"
	.ascii	"\316\0001"
	.ascii	"\317\0000"
	.ascii	"\320\000/"
	.ascii	"\321\000."
	.ascii	"\322\000-"
	.ascii	"\323\000,"
	.ascii	"\324\000+"
	.ascii	"\325\000*"
	.ascii	"\326\000)"
	.ascii	"\327\000("
	.ascii	"\330\000'"
	.ascii	"\331\000&"
	.ascii	"\332\000%"
	.ascii	"\333\000$"
	.ascii	"\334\000#"
	.ascii	"\335\000\""
	.ascii	"\336\000!"
	.ascii	"\337\000 "
	.ascii	"\340\000\037"
	.ascii	"\341\000\036"
	.ascii	"\342\000\035"
	.ascii	"\343\000\034"
	.ascii	"\344\000\033"
	.ascii	"\345\000\032"
	.ascii	"\346\000\031"
	.ascii	"\347\000\030"
	.ascii	"\350\000\027"
	.ascii	"\351\000\026"
	.ascii	"\352\000\025"
	.ascii	"\353\000\024"
	.ascii	"\354\000\023"
	.ascii	"\355\000\022"
	.ascii	"\356\000\021"
	.ascii	"\357\000\020"
	.ascii	"\360\000\017"
	.ascii	"\361\000\016"
	.ascii	"\362\000\r"
	.ascii	"\363\000\f"
	.ascii	"\364\000\013"
	.ascii	"\365\000\n"
	.ascii	"\366\000\t"
	.ascii	"\367\000\b"
	.ascii	"\370\000\007"
	.ascii	"\371\000\006"
	.ascii	"\372\000\005"
	.ascii	"\373\000\004"
	.ascii	"\374\000\003"
	.ascii	"\375\000\002"
	.ascii	"\376\000\001"
	.asciz	"\377\000"
	.size	colorsFull, 2298

	.type	setLED_ColorIdxChange.flag,%object @ @setLED_ColorIdxChange.flag
	.section	.data.setLED_ColorIdxChange.flag,"aw",%progbits
setLED_ColorIdxChange.flag:
	.byte	1                       @ 0x1
	.size	setLED_ColorIdxChange.flag, 1

	.type	_stripEffect_Rainbow.Red,%object @ @_stripEffect_Rainbow.Red
	.section	.data._stripEffect_Rainbow.Red,"aw",%progbits
_stripEffect_Rainbow.Red:
	.byte	255                     @ 0xff
	.size	_stripEffect_Rainbow.Red, 1

	.type	_stripEffect_Rainbow.Green,%object @ @_stripEffect_Rainbow.Green
	.section	.bss._stripEffect_Rainbow.Green,"aw",%nobits
_stripEffect_Rainbow.Green:
	.byte	0                       @ 0x0
	.size	_stripEffect_Rainbow.Green, 1

	.type	_stripEffect_Rainbow.Blue,%object @ @_stripEffect_Rainbow.Blue
	.section	.bss._stripEffect_Rainbow.Blue,"aw",%nobits
_stripEffect_Rainbow.Blue:
	.byte	0                       @ 0x0
	.size	_stripEffect_Rainbow.Blue, 1

	.type	_stripEffect_Rainbow.State,%object @ @_stripEffect_Rainbow.State
	.section	.bss._stripEffect_Rainbow.State,"aw",%nobits
_stripEffect_Rainbow.State:
	.byte	0                       @ 0x0
	.size	_stripEffect_Rainbow.State, 1

	.type	getRGBSequence.intensity,%object @ @getRGBSequence.intensity
	.section	.bss.getRGBSequence.intensity,"aw",%nobits
getRGBSequence.intensity:
	.byte	0                       @ 0x0
	.size	getRGBSequence.intensity, 1

	.type	getRGBSequence.sign,%object @ @getRGBSequence.sign
	.section	.bss.getRGBSequence.sign,"aw",%nobits
getRGBSequence.sign:
	.byte	0                       @ 0x0
	.size	getRGBSequence.sign, 1

	.type	getBreathing.flag,%object @ @getBreathing.flag
	.section	.data.getBreathing.flag,"aw",%progbits
getBreathing.flag:
	.byte	1                       @ 0x1
	.size	getBreathing.flag, 1

	.type	getBreathing.index,%object @ @getBreathing.index
	.section	.bss.getBreathing.index,"aw",%nobits
	.p2align	1
getBreathing.index:
	.short	0                       @ 0x0
	.size	getBreathing.index, 2

	.type	getSimpleTest.cnt,%object @ @getSimpleTest.cnt
	.section	.bss.getSimpleTest.cnt,"aw",%nobits
getSimpleTest.cnt:
	.byte	0                       @ 0x0
	.size	getSimpleTest.cnt, 1

	.type	getSimpleTest.state,%object @ @getSimpleTest.state
	.section	.data.getSimpleTest.state,"aw",%progbits
getSimpleTest.state:
	.byte	1                       @ 0x1
	.size	getSimpleTest.state, 1

	.type	.L.str,%object          @ @.str
	.section	.rodata.str1.1,"aMS",%progbits,1
.L.str:
	.asciz	"%s : %2d\r\n\r\n"
	.size	.L.str, 13

	.type	.L__FUNCTION__.getSimpleTest,%object @ @__FUNCTION__.getSimpleTest
.L__FUNCTION__.getSimpleTest:
	.asciz	"getSimpleTest"
	.size	.L__FUNCTION__.getSimpleTest, 14

	.section	".note.GNU-stack","",%progbits
	.eabi_attribute	30, 6	@ Tag_ABI_optimization_goals
	.ARM_attribute	16, 1	@ Tag_AV_eba