	.text
	.syntax unified
	.eabi_attribute	67, "2.09"	@ Tag_conformance
	.cpu	cortex-m23
	.eabi_attribute	6, 16	@ Tag_CPU_arch
	.eabi_attribute	7, 77	@ Tag_CPU_arch_profile
	.eabi_attribute	8, 0	@ Tag_ARM_ISA_use
	.eabi_attribute	9, 3	@ Tag_THUMB_ISA_use
	.eabi_attribute	34, 0	@ Tag_CPU_unaligned_access
	.eabi_attribute	17, 1	@ Tag_ABI_PCS_GOT_use
	.eabi_attribute	20, 2	@ Tag_ABI_FP_denormal
	.eabi_attribute	21, 0	@ Tag_ABI_FP_exceptions
	.eabi_attribute	23, 1	@ Tag_ABI_FP_number_model
	.eabi_attribute	24, 1	@ Tag_ABI_align_needed
	.eabi_attribute	25, 1	@ Tag_ABI_align_preserved
	.eabi_attribute	38, 1	@ Tag_ABI_FP_16bit_format
	.eabi_attribute	18, 2	@ Tag_ABI_PCS_wchar_t
	.eabi_attribute	26, 1	@ Tag_ABI_enum_size
	.eabi_attribute	14, 0	@ Tag_ABI_PCS_R9_use
	.file	"main.c"
	.file	1 "C:\\Keil_v5\\ARM\\ARMCLANG\\Bin\\..\\include" "stdint.h"
	.file	2 ".." "main.c"
	.file	3 "../../Template" "project_config.h"
	.file	4 "../../../Library/Device/Nuvoton/NUC1262/Include" "NUC1262.h"
	.file	5 "../../../Library/CMSIS/Include" "core_cm0.h"
	.section	.text.tick_counter,"ax",%progbits
	.hidden	tick_counter            @ -- Begin function tick_counter
	.globl	tick_counter
	.p2align	2
	.type	tick_counter,%function
	.code	16                      @ @tick_counter
	.thumb_func
tick_counter:
.Lfunc_begin0:
	.loc	2 24 0                  @ ../main.c:24:0
	.fnstart
	.cfi_sections .debug_frame
	.cfi_startproc
@ %bb.0:
	.loc	2 25 14 prologue_end    @ ../main.c:25:14
	ldr	r0, __arm_cp.0_0
	ldr	r1, [r0]
	adds	r1, r1, #1
	str	r1, [r0]
	.loc	2 26 1                  @ ../main.c:26:1
	bx	lr
.Ltmp0:
	.p2align	2
@ %bb.1:
	.loc	2 0 1 is_stmt 0         @ ../main.c:0:1
__arm_cp.0_0:
	.long	counter_tick
.Lcpi_end0:
	.size	__arm_cp.0_0, .Lcpi_end0-__arm_cp.0_0
.Lfunc_end0:
	.size	tick_counter, .Lfunc_end0-tick_counter
	.cfi_endproc
	.cantunwind
	.fnend
                                        @ -- End function
	.section	.text.get_tick,"ax",%progbits
	.hidden	get_tick                @ -- Begin function get_tick
	.globl	get_tick
	.p2align	2
	.type	get_tick,%function
	.code	16                      @ @get_tick
	.thumb_func
get_tick:
.Lfunc_begin1:
	.loc	2 29 0 is_stmt 1        @ ../main.c:29:0
	.fnstart
	.cfi_startproc
@ %bb.0:
	.loc	2 30 10 prologue_end    @ ../main.c:30:10
	ldr	r0, __arm_cp.1_0
	ldr	r0, [r0]
	.loc	2 30 2 is_stmt 0        @ ../main.c:30:2
	bx	lr
.Ltmp1:
	.p2align	2
@ %bb.1:
	.loc	2 0 2                   @ ../main.c:0:2
__arm_cp.1_0:
	.long	counter_tick
.Lcpi_end1:
	.size	__arm_cp.1_0, .Lcpi_end1-__arm_cp.1_0
.Lfunc_end1:
	.size	get_tick, .Lfunc_end1-get_tick
	.cfi_endproc
	.cantunwind
	.fnend
                                        @ -- End function
	.section	.text.set_tick,"ax",%progbits
	.hidden	set_tick                @ -- Begin function set_tick
	.globl	set_tick
	.p2align	2
	.type	set_tick,%function
	.code	16                      @ @set_tick
	.thumb_func
set_tick:
.Lfunc_begin2:
	.loc	2 34 0 is_stmt 1        @ ../main.c:34:0
	.fnstart
	.cfi_startproc
@ %bb.0:
	.pad	#8
	sub	sp, #8
	.cfi_def_cfa_offset 8
	mov	r1, r0
	str	r0, [sp, #4]
.Ltmp2:
	.loc	2 35 17 prologue_end    @ ../main.c:35:17
	ldr	r0, [sp, #4]
	.loc	2 35 15 is_stmt 0       @ ../main.c:35:15
	ldr	r2, __arm_cp.2_0
	str	r0, [r2]
	.loc	2 36 1 is_stmt 1        @ ../main.c:36:1
	str	r1, [sp]                @ 4-byte Spill
	add	sp, #8
	bx	lr
.Ltmp3:
	.p2align	2
@ %bb.1:
	.loc	2 0 1 is_stmt 0         @ ../main.c:0:1
__arm_cp.2_0:
	.long	counter_tick
.Lcpi_end2:
	.size	__arm_cp.2_0, .Lcpi_end2-__arm_cp.2_0
.Lfunc_end2:
	.size	set_tick, .Lfunc_end2-set_tick
	.cfi_endproc
	.cantunwind
	.fnend
                                        @ -- End function
	.section	.text.compare_buffer,"ax",%progbits
	.hidden	compare_buffer          @ -- Begin function compare_buffer
	.globl	compare_buffer
	.p2align	2
	.type	compare_buffer,%function
	.code	16                      @ @compare_buffer
	.thumb_func
compare_buffer:
.Lfunc_begin3:
	.loc	2 39 0 is_stmt 1        @ ../main.c:39:0
	.fnstart
	.cfi_startproc
@ %bb.0:
	.save	{r4, r5, r7, lr}
	push	{r4, r5, r7, lr}
	.cfi_def_cfa_offset 16
	.cfi_offset lr, -4
	.cfi_offset r7, -8
	.cfi_offset r5, -12
	.cfi_offset r4, -16
	.pad	#40
	sub	sp, #40
	.cfi_def_cfa_offset 56
	mov	r3, r2
	mov	r4, r1
	mov	r5, r0
	str	r0, [sp, #36]
	str	r1, [sp, #32]
	str	r2, [sp, #28]
	add	r0, sp, #24
.Ltmp4:
	.loc	2 40 14 prologue_end    @ ../main.c:40:14
	movs	r1, #0
	strh	r1, [r0]
.Ltmp5:
	.loc	2 42 10                 @ ../main.c:42:10
	str	r3, [sp, #20]           @ 4-byte Spill
	str	r4, [sp, #16]           @ 4-byte Spill
	str	r5, [sp, #12]           @ 4-byte Spill
	b	.LBB3_1
.LBB3_1:                                @ =>This Inner Loop Header: Depth=1
	.loc	2 0 10 is_stmt 0        @ ../main.c:0:10
	add	r0, sp, #24
.Ltmp6:
	.loc	2 42 17                 @ ../main.c:42:17
	ldrh	r0, [r0]
	.loc	2 42 21                 @ ../main.c:42:21
	ldr	r1, [sp, #28]
.Ltmp7:
	.loc	2 42 5                  @ ../main.c:42:5
	cmp	r0, r1
	bge	.LBB3_6
	b	.LBB3_2
.LBB3_2:                                @   in Loop: Header=BB3_1 Depth=1
.Ltmp8:
	.loc	2 44 13 is_stmt 1       @ ../main.c:44:13
	ldr	r0, [sp, #36]
	add	r1, sp, #24
	ldrh	r1, [r1]
	ldrb	r0, [r0, r1]
	.loc	2 44 23 is_stmt 0       @ ../main.c:44:23
	ldr	r2, [sp, #32]
	ldrb	r1, [r2, r1]
.Ltmp9:
	.loc	2 44 13                 @ ../main.c:44:13
	cmp	r0, r1
	beq	.LBB3_4
	b	.LBB3_3
.LBB3_3:                                @   in Loop: Header=BB3_1 Depth=1
	.loc	2 0 13                  @ ../main.c:0:13
	add	r0, sp, #24
.Ltmp10:
	.loc	2 46 59 is_stmt 1       @ ../main.c:46:59
	ldrh	r0, [r0]
	.loc	2 46 63 is_stmt 0       @ ../main.c:46:63
	ldr	r1, [sp, #36]
	ldrb	r2, [r1, r0]
	.loc	2 46 70                 @ ../main.c:46:70
	ldr	r1, [sp, #32]
	ldrb	r3, [r1, r0]
	.loc	2 46 13                 @ ../main.c:46:13
	ldr	r1, __arm_cp.3_3
	str	r0, [sp, #8]            @ 4-byte Spill
	mov	r0, r1
	ldr	r1, [sp, #8]            @ 4-byte Reload
	bl	printf
	.loc	2 47 4 is_stmt 1        @ ../main.c:47:4
	ldr	r1, __arm_cp.3_0
	ldr	r2, [r1]
	movs	r3, #2
	orrs	r2, r3
	str	r2, [r1]
	.loc	2 48 9                  @ ../main.c:48:9
	str	r0, [sp, #4]            @ 4-byte Spill
	b	.LBB3_4
.Ltmp11:
.LBB3_4:                                @   in Loop: Header=BB3_1 Depth=1
	.loc	2 49 5                  @ ../main.c:49:5
	b	.LBB3_5
.Ltmp12:
.LBB3_5:                                @   in Loop: Header=BB3_1 Depth=1
	.loc	2 42 30                 @ ../main.c:42:30
	ldr	r0, [sp, #24]
	adds	r0, r0, #1
	add	r1, sp, #24
	strh	r0, [r1]
	.loc	2 42 5 is_stmt 0        @ ../main.c:42:5
	b	.LBB3_1
.Ltmp13:
.LBB3_6:
	.loc	2 51 7 is_stmt 1        @ ../main.c:51:7
	ldr	r0, __arm_cp.3_0
	ldr	r0, [r0]
	movs	r1, #2
.Ltmp14:
	.loc	2 51 6 is_stmt 0        @ ../main.c:51:6
	tst	r0, r1
	beq	.LBB3_8
	b	.LBB3_7
.LBB3_7:
.Ltmp15:
	.loc	2 51 7                  @ ../main.c:51:7
	movs	r0, #1
	cmp	r0, #0
	bne	.LBB3_10
	b	.LBB3_9
.Ltmp16:
.LBB3_8:
	.loc	2 51 6                  @ ../main.c:51:6
	movs	r0, #0
	cmp	r0, #0
	bne	.LBB3_10
	b	.LBB3_9
.LBB3_9:
.Ltmp17:
	.loc	2 53 6 is_stmt 1        @ ../main.c:53:6
	ldr	r0, __arm_cp.3_1
	ldr	r1, __arm_cp.3_2
	bl	printf
	.loc	2 54 3                  @ ../main.c:54:3
	ldr	r1, __arm_cp.3_0
	ldr	r2, [r1]
	movs	r3, #2
	bics	r2, r3
	str	r2, [r1]
	.loc	2 55 2                  @ ../main.c:55:2
	str	r0, [sp]                @ 4-byte Spill
	b	.LBB3_10
.Ltmp18:
.LBB3_10:
	.loc	2 57 1                  @ ../main.c:57:1
	add	sp, #40
	pop	{r4, r5, r7, pc}
.Ltmp19:
	.p2align	2
@ %bb.11:
	.loc	2 0 1 is_stmt 0         @ ../main.c:0:1
__arm_cp.3_0:
	.long	BitFlag
.Lcpi_end3:
	.size	__arm_cp.3_0, .Lcpi_end3-__arm_cp.3_0
__arm_cp.3_1:
	.long	.L.str.1
.Lcpi_end4:
	.size	__arm_cp.3_1, .Lcpi_end4-__arm_cp.3_1
__arm_cp.3_2:
	.long	.L__FUNCTION__.compare_buffer
.Lcpi_end5:
	.size	__arm_cp.3_2, .Lcpi_end5-__arm_cp.3_2
__arm_cp.3_3:
	.long	.L.str
.Lcpi_end6:
	.size	__arm_cp.3_3, .Lcpi_end6-__arm_cp.3_3
.Lfunc_end3:
	.size	compare_buffer, .Lfunc_end3-compare_buffer
	.cfi_endproc
	.cantunwind
	.fnend
                                        @ -- End function
	.section	.text.reset_buffer,"ax",%progbits
	.hidden	reset_buffer            @ -- Begin function reset_buffer
	.globl	reset_buffer
	.p2align	1
	.type	reset_buffer,%function
	.code	16                      @ @reset_buffer
	.thumb_func
reset_buffer:
.Lfunc_begin4:
	.loc	2 60 0 is_stmt 1        @ ../main.c:60:0
	.fnstart
	.cfi_startproc
@ %bb.0:
	.save	{r4, r5, r7, lr}
	push	{r4, r5, r7, lr}
	.cfi_def_cfa_offset 16
	.cfi_offset lr, -4
	.cfi_offset r7, -8
	.cfi_offset r5, -12
	.cfi_offset r4, -16
	.pad	#28
	sub	sp, #28
	.cfi_def_cfa_offset 44
	mov	r3, r2
	mov	r4, r1
	mov	r5, r0
	str	r0, [sp, #24]
	str	r1, [sp, #20]
	str	r2, [sp, #16]
.Ltmp20:
	.loc	2 64 26 prologue_end    @ ../main.c:64:26
	ldr	r0, [sp, #24]
	.loc	2 64 13 is_stmt 0       @ ../main.c:64:13
	str	r0, [sp, #12]
	.loc	2 67 2 is_stmt 1        @ ../main.c:67:2
	str	r3, [sp, #8]            @ 4-byte Spill
	str	r4, [sp, #4]            @ 4-byte Spill
	str	r5, [sp]                @ 4-byte Spill
	b	.LBB4_1
.LBB4_1:                                @ =>This Inner Loop Header: Depth=1
	.loc	2 67 13 is_stmt 0       @ ../main.c:67:13
	ldr	r0, [sp, #16]
	subs	r1, r0, #1
	str	r1, [sp, #16]
	.loc	2 67 2                  @ ../main.c:67:2
	cmp	r0, #0
	beq	.LBB4_3
	b	.LBB4_2
.LBB4_2:                                @   in Loop: Header=BB4_1 Depth=1
	.loc	2 68 16 is_stmt 1       @ ../main.c:68:16
	ldr	r0, [sp, #20]
	.loc	2 68 11 is_stmt 0       @ ../main.c:68:11
	ldr	r1, [sp, #12]
	adds	r2, r1, #1
	str	r2, [sp, #12]
	.loc	2 68 14                 @ ../main.c:68:14
	strb	r0, [r1]
	.loc	2 67 2 is_stmt 1        @ ../main.c:67:2
	b	.LBB4_1
.LBB4_3:
	.loc	2 73 1                  @ ../main.c:73:1
	add	sp, #28
	pop	{r4, r5, r7, pc}
.Ltmp21:
.Lfunc_end4:
	.size	reset_buffer, .Lfunc_end4-reset_buffer
	.cfi_endproc
	.cantunwind
	.fnend
                                        @ -- End function
	.section	.text.copy_buffer,"ax",%progbits
	.hidden	copy_buffer             @ -- Begin function copy_buffer
	.globl	copy_buffer
	.p2align	1
	.type	copy_buffer,%function
	.code	16                      @ @copy_buffer
	.thumb_func
copy_buffer:
.Lfunc_begin5:
	.loc	2 76 0                  @ ../main.c:76:0
	.fnstart
	.cfi_startproc
@ %bb.0:
	.save	{r4, r5, r7, lr}
	push	{r4, r5, r7, lr}
	.cfi_def_cfa_offset 16
	.cfi_offset lr, -4
	.cfi_offset r7, -8
	.cfi_offset r5, -12
	.cfi_offset r4, -16
	.pad	#36
	sub	sp, #36
	.cfi_def_cfa_offset 52
	mov	r3, r2
	mov	r4, r1
	mov	r5, r0
	str	r0, [sp, #32]
	str	r1, [sp, #28]
	str	r2, [sp, #24]
.Ltmp22:
	.loc	2 80 26 prologue_end    @ ../main.c:80:26
	ldr	r0, [sp, #32]
	.loc	2 80 13 is_stmt 0       @ ../main.c:80:13
	str	r0, [sp, #16]
	.loc	2 81 26 is_stmt 1       @ ../main.c:81:26
	ldr	r0, [sp, #28]
	.loc	2 81 13 is_stmt 0       @ ../main.c:81:13
	str	r0, [sp, #20]
	movs	r0, #0
.Ltmp23:
	.loc	2 88 12 is_stmt 1       @ ../main.c:88:12
	str	r0, [sp, #12]
	.loc	2 88 10 is_stmt 0       @ ../main.c:88:10
	str	r3, [sp, #8]            @ 4-byte Spill
	str	r4, [sp, #4]            @ 4-byte Spill
	str	r5, [sp]                @ 4-byte Spill
	b	.LBB5_1
.LBB5_1:                                @ =>This Inner Loop Header: Depth=1
.Ltmp24:
	.loc	2 88 17                 @ ../main.c:88:17
	ldr	r0, [sp, #12]
	.loc	2 88 21                 @ ../main.c:88:21
	ldr	r1, [sp, #24]
.Ltmp25:
	.loc	2 88 5                  @ ../main.c:88:5
	cmp	r0, r1
	bhs	.LBB5_4
	b	.LBB5_2
.LBB5_2:                                @   in Loop: Header=BB5_1 Depth=1
.Ltmp26:
	.loc	2 89 22 is_stmt 1       @ ../main.c:89:22
	ldr	r0, [sp, #20]
	.loc	2 89 29 is_stmt 0       @ ../main.c:89:29
	ldr	r1, [sp, #12]
	.loc	2 89 22                 @ ../main.c:89:22
	ldrb	r0, [r0, r1]
	.loc	2 89 9                  @ ../main.c:89:9
	ldr	r2, [sp, #16]
	.loc	2 89 20                 @ ../main.c:89:20
	strb	r0, [r2, r1]
	.loc	2 89 9                  @ ../main.c:89:9
	b	.LBB5_3
.LBB5_3:                                @   in Loop: Header=BB5_1 Depth=1
	.loc	2 88 28 is_stmt 1       @ ../main.c:88:28
	ldr	r0, [sp, #12]
	adds	r0, r0, #1
	str	r0, [sp, #12]
	.loc	2 88 5 is_stmt 0        @ ../main.c:88:5
	b	.LBB5_1
.Ltmp27:
.LBB5_4:
	.loc	2 91 1 is_stmt 1        @ ../main.c:91:1
	add	sp, #36
	pop	{r4, r5, r7, pc}
.Ltmp28:
.Lfunc_end5:
	.size	copy_buffer, .Lfunc_end5-copy_buffer
	.cfi_endproc
	.cantunwind
	.fnend
                                        @ -- End function
	.section	.text.dump_buffer,"ax",%progbits
	.hidden	dump_buffer             @ -- Begin function dump_buffer
	.globl	dump_buffer
	.p2align	2
	.type	dump_buffer,%function
	.code	16                      @ @dump_buffer
	.thumb_func
dump_buffer:
.Lfunc_begin6:
	.loc	2 94 0                  @ ../main.c:94:0
	.fnstart
	.cfi_startproc
@ %bb.0:
	.save	{r4, r5, r7, lr}
	push	{r4, r5, r7, lr}
	.cfi_def_cfa_offset 16
	.cfi_offset lr, -4
	.cfi_offset r7, -8
	.cfi_offset r5, -12
	.cfi_offset r4, -16
	.pad	#48
	sub	sp, #48
	.cfi_def_cfa_offset 64
	mov	r2, r1
	mov	r3, r0
	str	r0, [sp, #44]
	str	r1, [sp, #40]
	add	r0, sp, #36
.Ltmp29:
	.loc	2 95 14 prologue_end    @ ../main.c:95:14
	movs	r1, #0
	strh	r1, [r0]
	.loc	2 97 38                 @ ../main.c:97:38
	ldr	r4, [sp, #40]
	.loc	2 97 5 is_stmt 0        @ ../main.c:97:5
	ldr	r5, __arm_cp.6_0
	str	r0, [sp, #32]           @ 4-byte Spill
	mov	r0, r5
	str	r1, [sp, #28]           @ 4-byte Spill
	mov	r1, r4
	str	r2, [sp, #24]           @ 4-byte Spill
	str	r3, [sp, #20]           @ 4-byte Spill
	bl	printf
.Ltmp30:
	.loc	2 98 12 is_stmt 1       @ ../main.c:98:12
	ldr	r1, [sp, #28]           @ 4-byte Reload
	ldr	r2, [sp, #32]           @ 4-byte Reload
	strh	r1, [r2]
	.loc	2 98 10 is_stmt 0       @ ../main.c:98:10
	str	r0, [sp, #16]           @ 4-byte Spill
	b	.LBB6_1
.LBB6_1:                                @ =>This Inner Loop Header: Depth=1
	.loc	2 0 10                  @ ../main.c:0:10
	add	r0, sp, #36
.Ltmp31:
	.loc	2 98 18                 @ ../main.c:98:18
	ldrh	r0, [r0]
	.loc	2 98 22                 @ ../main.c:98:22
	ldr	r1, [sp, #40]
.Ltmp32:
	.loc	2 98 5                  @ ../main.c:98:5
	cmp	r0, r1
	bge	.LBB6_6
	b	.LBB6_2
.LBB6_2:                                @   in Loop: Header=BB6_1 Depth=1
.Ltmp33:
	.loc	2 100 28 is_stmt 1      @ ../main.c:100:28
	ldr	r0, [sp, #44]
	add	r1, sp, #36
	ldrh	r1, [r1]
	lsls	r1, r1, #2
	ldr	r1, [r0, r1]
	.loc	2 100 9 is_stmt 0       @ ../main.c:100:9
	ldr	r0, __arm_cp.6_2
	bl	printf
.Ltmp34:
	.loc	2 101 14 is_stmt 1      @ ../main.c:101:14
	ldr	r1, [sp, #36]
	.loc	2 101 15 is_stmt 0      @ ../main.c:101:15
	adds	r1, r1, #1
.Ltmp35:
	.loc	2 101 13                @ ../main.c:101:13
	lsls	r1, r1, #29
	cmp	r1, #0
	str	r0, [sp, #12]           @ 4-byte Spill
	bne	.LBB6_4
	b	.LBB6_3
.LBB6_3:                                @   in Loop: Header=BB6_1 Depth=1
.Ltmp36:
	.loc	2 103 13 is_stmt 1      @ ../main.c:103:13
	ldr	r0, __arm_cp.6_3
	bl	printf
	.loc	2 104 9                 @ ../main.c:104:9
	str	r0, [sp, #8]            @ 4-byte Spill
	b	.LBB6_4
.Ltmp37:
.LBB6_4:                                @   in Loop: Header=BB6_1 Depth=1
	.loc	2 105 5                 @ ../main.c:105:5
	b	.LBB6_5
.Ltmp38:
.LBB6_5:                                @   in Loop: Header=BB6_1 Depth=1
	.loc	2 98 32                 @ ../main.c:98:32
	ldr	r0, [sp, #36]
	adds	r0, r0, #1
	add	r1, sp, #36
	strh	r0, [r1]
	.loc	2 98 5 is_stmt 0        @ ../main.c:98:5
	b	.LBB6_1
.Ltmp39:
.LBB6_6:
	.loc	2 106 5 is_stmt 1       @ ../main.c:106:5
	ldr	r0, __arm_cp.6_1
	bl	printf
	.loc	2 107 1                 @ ../main.c:107:1
	str	r0, [sp, #4]            @ 4-byte Spill
	add	sp, #48
	pop	{r4, r5, r7, pc}
.Ltmp40:
	.p2align	2
@ %bb.7:
	.loc	2 0 1 is_stmt 0         @ ../main.c:0:1
__arm_cp.6_0:
	.long	.L.str.2
.Lcpi_end7:
	.size	__arm_cp.6_0, .Lcpi_end7-__arm_cp.6_0
__arm_cp.6_1:
	.long	.L.str.5
.Lcpi_end8:
	.size	__arm_cp.6_1, .Lcpi_end8-__arm_cp.6_1
__arm_cp.6_2:
	.long	.L.str.3
.Lcpi_end9:
	.size	__arm_cp.6_2, .Lcpi_end9-__arm_cp.6_2
__arm_cp.6_3:
	.long	.L.str.4
.Lcpi_end10:
	.size	__arm_cp.6_3, .Lcpi_end10-__arm_cp.6_3
.Lfunc_end6:
	.size	dump_buffer, .Lfunc_end6-dump_buffer
	.cfi_endproc
	.cantunwind
	.fnend
                                        @ -- End function
	.section	.text.dump_buffer_hex,"ax",%progbits
	.hidden	dump_buffer_hex         @ -- Begin function dump_buffer_hex
	.globl	dump_buffer_hex
	.p2align	2
	.type	dump_buffer_hex,%function
	.code	16                      @ @dump_buffer_hex
	.thumb_func
dump_buffer_hex:
.Lfunc_begin7:
	.loc	2 110 0 is_stmt 1       @ ../main.c:110:0
	.fnstart
	.cfi_startproc
@ %bb.0:
	.save	{r7, lr}
	push	{r7, lr}
	.cfi_def_cfa_offset 8
	.cfi_offset lr, -4
	.cfi_offset r7, -8
	.pad	#56
	sub	sp, #56
	.cfi_def_cfa_offset 64
	mov	r2, r1
	mov	r3, r0
	str	r0, [sp, #52]
	str	r1, [sp, #48]
	movs	r0, #0
.Ltmp41:
	.loc	2 113 10 prologue_end   @ ../main.c:113:10
	str	r0, [sp, #44]
	.loc	2 114 5                 @ ../main.c:114:5
	str	r2, [sp, #36]           @ 4-byte Spill
	str	r3, [sp, #32]           @ 4-byte Spill
	b	.LBB7_1
.LBB7_1:                                @ =>This Loop Header: Depth=1
                                        @     Child Loop BB7_3 Depth 2
                                        @     Child Loop BB7_7 Depth 2
	.loc	2 114 12 is_stmt 0      @ ../main.c:114:12
	ldr	r0, [sp, #48]
	.loc	2 114 5                 @ ../main.c:114:5
	cmp	r0, #1
	blt	.LBB7_15
	b	.LBB7_2
.LBB7_2:                                @   in Loop: Header=BB7_1 Depth=1
.Ltmp42:
	.loc	2 116 28 is_stmt 1      @ ../main.c:116:28
	ldr	r1, [sp, #44]
	.loc	2 116 9 is_stmt 0       @ ../main.c:116:9
	ldr	r0, __arm_cp.7_1
	bl	printf
	movs	r1, #0
.Ltmp43:
	.loc	2 117 16 is_stmt 1      @ ../main.c:117:16
	str	r1, [sp, #40]
	.loc	2 117 14 is_stmt 0      @ ../main.c:117:14
	str	r0, [sp, #28]           @ 4-byte Spill
	b	.LBB7_3
.LBB7_3:                                @   Parent Loop BB7_1 Depth=1
                                        @ =>  This Inner Loop Header: Depth=2
.Ltmp44:
	.loc	2 117 21                @ ../main.c:117:21
	ldr	r0, [sp, #40]
.Ltmp45:
	.loc	2 117 9                 @ ../main.c:117:9
	cmp	r0, #15
	bgt	.LBB7_6
	b	.LBB7_4
.LBB7_4:                                @   in Loop: Header=BB7_3 Depth=2
.Ltmp46:
	.loc	2 118 29 is_stmt 1      @ ../main.c:118:29
	ldr	r0, [sp, #52]
	.loc	2 118 37 is_stmt 0      @ ../main.c:118:37
	ldr	r1, [sp, #44]
	.loc	2 118 44                @ ../main.c:118:44
	ldr	r2, [sp, #40]
	.loc	2 118 42                @ ../main.c:118:42
	adds	r1, r1, r2
	.loc	2 118 29                @ ../main.c:118:29
	ldrb	r1, [r0, r1]
	.loc	2 118 13                @ ../main.c:118:13
	ldr	r0, __arm_cp.7_5
	bl	printf
	str	r0, [sp, #24]           @ 4-byte Spill
	b	.LBB7_5
.LBB7_5:                                @   in Loop: Header=BB7_3 Depth=2
	.loc	2 117 30 is_stmt 1      @ ../main.c:117:30
	ldr	r0, [sp, #40]
	adds	r0, r0, #1
	str	r0, [sp, #40]
	.loc	2 117 9 is_stmt 0       @ ../main.c:117:9
	b	.LBB7_3
.Ltmp47:
.LBB7_6:                                @   in Loop: Header=BB7_1 Depth=1
	.loc	2 119 9 is_stmt 1       @ ../main.c:119:9
	ldr	r0, __arm_cp.7_2
	bl	printf
.Ltmp48:
	.loc	2 120 16                @ ../main.c:120:16
	movs	r1, #0
	str	r1, [sp, #40]
	.loc	2 120 14 is_stmt 0      @ ../main.c:120:14
	str	r0, [sp, #20]           @ 4-byte Spill
	b	.LBB7_7
.LBB7_7:                                @   Parent Loop BB7_1 Depth=1
                                        @ =>  This Inner Loop Header: Depth=2
.Ltmp49:
	.loc	2 120 21                @ ../main.c:120:21
	ldr	r0, [sp, #40]
.Ltmp50:
	.loc	2 120 9                 @ ../main.c:120:9
	cmp	r0, #15
	bgt	.LBB7_14
	b	.LBB7_8
.LBB7_8:                                @   in Loop: Header=BB7_7 Depth=2
.Ltmp51:
	.loc	2 122 18 is_stmt 1      @ ../main.c:122:18
	ldr	r0, [sp, #52]
	.loc	2 122 26 is_stmt 0      @ ../main.c:122:26
	ldr	r1, [sp, #44]
	.loc	2 122 33                @ ../main.c:122:33
	ldr	r2, [sp, #40]
	.loc	2 122 31                @ ../main.c:122:31
	adds	r1, r1, r2
	.loc	2 122 18                @ ../main.c:122:18
	ldrb	r0, [r0, r1]
	.loc	2 122 45                @ ../main.c:122:45
	cmp	r0, #32
	blt	.LBB7_11
	b	.LBB7_9
.LBB7_9:                                @   in Loop: Header=BB7_7 Depth=2
	.loc	2 122 49                @ ../main.c:122:49
	ldr	r0, [sp, #52]
	.loc	2 122 57                @ ../main.c:122:57
	ldr	r1, [sp, #44]
	.loc	2 122 64                @ ../main.c:122:64
	ldr	r2, [sp, #40]
	.loc	2 122 62                @ ../main.c:122:62
	adds	r1, r1, r2
	.loc	2 122 49                @ ../main.c:122:49
	ldrb	r0, [r0, r1]
.Ltmp52:
	.loc	2 122 17                @ ../main.c:122:17
	cmp	r0, #126
	bgt	.LBB7_11
	b	.LBB7_10
.LBB7_10:                               @   in Loop: Header=BB7_7 Depth=2
.Ltmp53:
	.loc	2 123 30 is_stmt 1      @ ../main.c:123:30
	ldr	r0, [sp, #52]
	.loc	2 123 38 is_stmt 0      @ ../main.c:123:38
	ldr	r1, [sp, #44]
	.loc	2 123 45                @ ../main.c:123:45
	ldr	r2, [sp, #40]
	.loc	2 123 43                @ ../main.c:123:43
	adds	r1, r1, r2
	.loc	2 123 30                @ ../main.c:123:30
	ldrb	r1, [r0, r1]
	.loc	2 123 17                @ ../main.c:123:17
	ldr	r0, __arm_cp.7_4
	bl	printf
	str	r0, [sp, #16]           @ 4-byte Spill
	b	.LBB7_12
.LBB7_11:                               @   in Loop: Header=BB7_7 Depth=2
	.loc	2 125 17 is_stmt 1      @ ../main.c:125:17
	ldr	r0, __arm_cp.7_3
	bl	printf
	str	r0, [sp, #12]           @ 4-byte Spill
	b	.LBB7_12
.Ltmp54:
.LBB7_12:                               @   in Loop: Header=BB7_7 Depth=2
	.loc	2 126 19                @ ../main.c:126:19
	ldr	r0, [sp, #48]
	subs	r0, r0, #1
	str	r0, [sp, #48]
	.loc	2 127 9                 @ ../main.c:127:9
	b	.LBB7_13
.Ltmp55:
.LBB7_13:                               @   in Loop: Header=BB7_7 Depth=2
	.loc	2 120 30                @ ../main.c:120:30
	ldr	r0, [sp, #40]
	adds	r0, r0, #1
	str	r0, [sp, #40]
	.loc	2 120 9 is_stmt 0       @ ../main.c:120:9
	b	.LBB7_7
.Ltmp56:
.LBB7_14:                               @   in Loop: Header=BB7_1 Depth=1
	.loc	2 128 14 is_stmt 1      @ ../main.c:128:14
	ldr	r0, [sp, #44]
	adds	r0, #16
	str	r0, [sp, #44]
	.loc	2 129 9                 @ ../main.c:129:9
	ldr	r0, __arm_cp.7_0
	bl	printf
.Ltmp57:
	.loc	2 114 5                 @ ../main.c:114:5
	str	r0, [sp, #8]            @ 4-byte Spill
	b	.LBB7_1
.LBB7_15:
	.loc	2 131 5                 @ ../main.c:131:5
	ldr	r0, __arm_cp.7_0
	bl	printf
	.loc	2 132 1                 @ ../main.c:132:1
	str	r0, [sp, #4]            @ 4-byte Spill
	add	sp, #56
	pop	{r7, pc}
.Ltmp58:
	.p2align	2
@ %bb.16:
	.loc	2 0 1 is_stmt 0         @ ../main.c:0:1
__arm_cp.7_0:
	.long	.L.str.11
.Lcpi_end11:
	.size	__arm_cp.7_0, .Lcpi_end11-__arm_cp.7_0
__arm_cp.7_1:
	.long	.L.str.6
.Lcpi_end12:
	.size	__arm_cp.7_1, .Lcpi_end12-__arm_cp.7_1
__arm_cp.7_2:
	.long	.L.str.8
.Lcpi_end13:
	.size	__arm_cp.7_2, .Lcpi_end13-__arm_cp.7_2
__arm_cp.7_3:
	.long	.L.str.10
.Lcpi_end14:
	.size	__arm_cp.7_3, .Lcpi_end14-__arm_cp.7_3
__arm_cp.7_4:
	.long	.L.str.9
.Lcpi_end15:
	.size	__arm_cp.7_4, .Lcpi_end15-__arm_cp.7_4
__arm_cp.7_5:
	.long	.L.str.7
.Lcpi_end16:
	.size	__arm_cp.7_5, .Lcpi_end16-__arm_cp.7_5
.Lfunc_end7:
	.size	dump_buffer_hex, .Lfunc_end7-dump_buffer_hex
	.cfi_endproc
	.cantunwind
	.fnend
                                        @ -- End function
	.section	.text.delay,"ax",%progbits
	.hidden	delay                   @ -- Begin function delay
	.globl	delay
	.p2align	1
	.type	delay,%function
	.code	16                      @ @delay
	.thumb_func
delay:
.Lfunc_begin8:
	.loc	2 135 0 is_stmt 1       @ ../main.c:135:0
	.fnstart
	.cfi_startproc
@ %bb.0:
	.pad	#8
	sub	sp, #8
	.cfi_def_cfa_offset 8
	mov	r1, r0
	add	r2, sp, #4
	strh	r0, [r2]
.Ltmp59:
	.loc	2 147 2 prologue_end    @ ../main.c:147:2
	str	r1, [sp]                @ 4-byte Spill
	b	.LBB8_1
.LBB8_1:                                @ =>This Inner Loop Header: Depth=1
	.loc	2 0 2 is_stmt 0         @ ../main.c:0:2
	add	r0, sp, #4
	.loc	2 147 12                @ ../main.c:147:12
	ldrh	r1, [r0]
	subs	r2, r1, #1
	strh	r2, [r0]
	.loc	2 147 2                 @ ../main.c:147:2
	cmp	r1, #0
	beq	.LBB8_3
	b	.LBB8_2
.LBB8_2:                                @   in Loop: Header=BB8_1 Depth=1
	b	.LBB8_1
.LBB8_3:
	.loc	2 148 1 is_stmt 1       @ ../main.c:148:1
	add	sp, #8
	bx	lr
.Ltmp60:
.Lfunc_end8:
	.size	delay, .Lfunc_end8-delay
	.cfi_endproc
	.cantunwind
	.fnend
                                        @ -- End function
	.section	.text.delay_ms,"ax",%progbits
	.hidden	delay_ms                @ -- Begin function delay_ms
	.globl	delay_ms
	.p2align	2
	.type	delay_ms,%function
	.code	16                      @ @delay_ms
	.thumb_func
delay_ms:
.Lfunc_begin9:
	.loc	2 152 0                 @ ../main.c:152:0
	.fnstart
	.cfi_startproc
@ %bb.0:
	.save	{r7, lr}
	push	{r7, lr}
	.cfi_def_cfa_offset 8
	.cfi_offset lr, -4
	.cfi_offset r7, -8
	.pad	#8
	sub	sp, #8
	.cfi_def_cfa_offset 16
	mov	r1, r0
	add	r2, sp, #4
	strh	r0, [r2]
.Ltmp61:
	.loc	2 153 27 prologue_end   @ ../main.c:153:27
	ldrh	r0, [r2]
	.loc	2 153 26 is_stmt 0      @ ../main.c:153:26
	movw	r2, #1000
	muls	r2, r0, r2
	.loc	2 153 2                 @ ../main.c:153:2
	ldr	r0, __arm_cp.9_0
	str	r1, [sp]                @ 4-byte Spill
	mov	r1, r2
	bl	TIMER_Delay
	.loc	2 154 1 is_stmt 1       @ ../main.c:154:1
	add	sp, #8
	pop	{r7, pc}
.Ltmp62:
	.p2align	2
@ %bb.1:
	.loc	2 0 1 is_stmt 0         @ ../main.c:0:1
__arm_cp.9_0:
	.long	1073807360              @ 0x40010000
.Lcpi_end17:
	.size	__arm_cp.9_0, .Lcpi_end17-__arm_cp.9_0
.Lfunc_end9:
	.size	delay_ms, .Lfunc_end9-delay_ms
	.cfi_endproc
	.cantunwind
	.fnend
                                        @ -- End function
	.section	.text.LLSI_PDMA_Transfer,"ax",%progbits
	.hidden	LLSI_PDMA_Transfer      @ -- Begin function LLSI_PDMA_Transfer
	.globl	LLSI_PDMA_Transfer
	.p2align	2
	.type	LLSI_PDMA_Transfer,%function
	.code	16                      @ @LLSI_PDMA_Transfer
	.thumb_func
LLSI_PDMA_Transfer:
.Lfunc_begin10:
	.loc	2 157 0 is_stmt 1       @ ../main.c:157:0
	.fnstart
	.cfi_startproc
@ %bb.0:
	.save	{r7, lr}
	push	{r7, lr}
	.cfi_def_cfa_offset 8
	.cfi_offset lr, -4
	.cfi_offset r7, -8
	.pad	#32
	sub	sp, #32
	.cfi_def_cfa_offset 40
	mov	r2, r1
	mov	r3, r0
	str	r0, [sp, #28]
	str	r1, [sp, #24]
.Ltmp63:
	.loc	2 159 5 prologue_end    @ ../main.c:159:5
	movs	r0, #2
	str	r2, [sp, #20]           @ 4-byte Spill
	str	r3, [sp, #16]           @ 4-byte Spill
	bl	SYS_ResetModule
	movs	r0, #16
	.loc	2 162 5                 @ ../main.c:162:5
	bl	PDMA_Open
	.loc	2 164 54                @ ../main.c:164:54
	ldr	r2, [sp, #24]
	.loc	2 164 5 is_stmt 0       @ ../main.c:164:5
	movs	r0, #4
	movw	r1, #8192
	str	r0, [sp, #12]           @ 4-byte Spill
	bl	PDMA_SetTransferCnt
	movs	r0, #0
	.loc	2 166 5 is_stmt 1       @ ../main.c:166:5
	ldr	r1, [sp, #12]           @ 4-byte Reload
	str	r0, [sp, #8]            @ 4-byte Spill
	mov	r0, r1
	ldr	r2, [sp, #8]            @ 4-byte Reload
	bl	PDMA_SetBurstType
	.loc	2 168 50                @ ../main.c:168:50
	ldr	r1, [sp, #28]
	.loc	2 168 5 is_stmt 0       @ ../main.c:168:5
	mov	r0, sp
	movw	r2, #3072
	str	r2, [r0]
	ldr	r3, __arm_cp.10_0
	ldr	r0, [sp, #12]           @ 4-byte Reload
	ldr	r2, [sp, #8]            @ 4-byte Reload
	bl	PDMA_SetTransferAddr
	.loc	2 170 5 is_stmt 1       @ ../main.c:170:5
	movs	r1, #39
	ldr	r0, [sp, #12]           @ 4-byte Reload
	ldr	r2, [sp, #8]            @ 4-byte Reload
	ldr	r3, [sp, #8]            @ 4-byte Reload
	bl	PDMA_SetTransferMode
	.loc	2 173 1                 @ ../main.c:173:1
	add	sp, #32
	pop	{r7, pc}
.Ltmp64:
	.p2align	2
@ %bb.1:
	.loc	2 0 1 is_stmt 0         @ ../main.c:0:1
__arm_cp.10_0:
	.long	1075134992              @ 0x40154210
.Lcpi_end18:
	.size	__arm_cp.10_0, .Lcpi_end18-__arm_cp.10_0
.Lfunc_end10:
	.size	LLSI_PDMA_Transfer, .Lfunc_end10-LLSI_PDMA_Transfer
	.cfi_endproc
	.cantunwind
	.fnend
                                        @ -- End function
	.section	.text.LLSI_Init,"ax",%progbits
	.hidden	LLSI_Init               @ -- Begin function LLSI_Init
	.globl	LLSI_Init
	.p2align	2
	.type	LLSI_Init,%function
	.code	16                      @ @LLSI_Init
	.thumb_func
LLSI_Init:
.Lfunc_begin11:
	.loc	2 177 0 is_stmt 1       @ ../main.c:177:0
	.fnstart
	.cfi_startproc
@ %bb.0:
	.save	{r4, r5, r6, lr}
	push	{r4, r5, r6, lr}
	.cfi_def_cfa_offset 16
	.cfi_offset lr, -4
	.cfi_offset r6, -8
	.cfi_offset r5, -12
	.cfi_offset r4, -16
	.pad	#56
	sub	sp, #56
	.cfi_def_cfa_offset 72
.Ltmp65:
	.loc	2 186 17 prologue_end   @ ../main.c:186:17
	ldr	r0, __arm_cp.11_0
	str	r0, [sp, #52]
	.loc	2 188 17                @ ../main.c:188:17
	ldr	r1, __arm_cp.11_1
	str	r1, [sp, #48]
	.loc	2 189 17                @ ../main.c:189:17
	movw	r2, #375
	str	r2, [sp, #44]
	.loc	2 190 17                @ ../main.c:190:17
	ldr	r3, __arm_cp.11_2
	str	r3, [sp, #40]
	.loc	2 196 17                @ ../main.c:196:17
	ldr	r4, __arm_cp.11_3
	str	r4, [sp, #36]
	.loc	2 198 5                 @ ../main.c:198:5
	mov	r5, sp
	movs	r6, #0
	str	r6, [r5, #20]
	movs	r6, #24
	str	r6, [r5, #16]
	str	r4, [r5, #12]
	str	r3, [r5, #8]
	str	r2, [r5, #4]
	str	r1, [r5]
	ldr	r1, __arm_cp.11_4
	movw	r2, #256
	movw	r3, #4096
	str	r0, [sp, #32]           @ 4-byte Spill
	mov	r0, r1
	str	r1, [sp, #28]           @ 4-byte Spill
	mov	r1, r2
	mov	r2, r3
	ldr	r3, [sp, #32]           @ 4-byte Reload
	bl	LLSI_Open
	.loc	2 210 5                 @ ../main.c:210:5
	ldr	r0, [sp, #28]           @ 4-byte Reload
	ldr	r1, [r0]
	movs	r2, #2
	orrs	r1, r2
	str	r1, [r0]
	.loc	2 212 1                 @ ../main.c:212:1
	add	sp, #56
	pop	{r4, r5, r6, pc}
.Ltmp66:
	.p2align	2
@ %bb.1:
	.loc	2 0 1 is_stmt 0         @ ../main.c:0:1
__arm_cp.11_0:
	.long	72000000                @ 0x44aa200
.Lcpi_end19:
	.size	__arm_cp.11_0, .Lcpi_end19-__arm_cp.11_0
__arm_cp.11_1:
	.long	1125                    @ 0x465
.Lcpi_end20:
	.size	__arm_cp.11_1, .Lcpi_end20-__arm_cp.11_1
__arm_cp.11_2:
	.long	750                     @ 0x2ee
.Lcpi_end21:
	.size	__arm_cp.11_2, .Lcpi_end21-__arm_cp.11_2
__arm_cp.11_3:
	.long	30000                   @ 0x7530
.Lcpi_end22:
	.size	__arm_cp.11_3, .Lcpi_end22-__arm_cp.11_3
__arm_cp.11_4:
	.long	1075134976              @ 0x40154200
.Lcpi_end23:
	.size	__arm_cp.11_4, .Lcpi_end23-__arm_cp.11_4
.Lfunc_end11:
	.size	LLSI_Init, .Lfunc_end11-LLSI_Init
	.cfi_endproc
	.cantunwind
	.fnend
                                        @ -- End function
	.section	.text.GPIO_Init,"ax",%progbits
	.hidden	GPIO_Init               @ -- Begin function GPIO_Init
	.globl	GPIO_Init
	.p2align	2
	.type	GPIO_Init,%function
	.code	16                      @ @GPIO_Init
	.thumb_func
GPIO_Init:
.Lfunc_begin12:
	.loc	2 216 0 is_stmt 1       @ ../main.c:216:0
	.fnstart
	.cfi_startproc
@ %bb.0:
	.save	{r7, lr}
	push	{r7, lr}
	.cfi_def_cfa_offset 8
	.cfi_offset lr, -4
	.cfi_offset r7, -8
.Ltmp67:
	.loc	2 217 27 prologue_end   @ ../main.c:217:27
	ldr	r0, __arm_cp.12_0
	ldr	r1, [r0]
	.loc	2 217 36 is_stmt 0      @ ../main.c:217:36
	movs	r2, #15
	lsls	r2, r2, #24
	bics	r1, r2
	.loc	2 217 19                @ ../main.c:217:19
	str	r1, [r0]
	.loc	2 220 5 is_stmt 1       @ ../main.c:220:5
	ldr	r0, __arm_cp.12_1
	movw	r1, #16384
	movs	r2, #1
	bl	GPIO_SetMode
	.loc	2 222 1                 @ ../main.c:222:1
	pop	{r7, pc}
.Ltmp68:
	.p2align	2
@ %bb.1:
	.loc	2 0 1 is_stmt 0         @ ../main.c:0:1
__arm_cp.12_0:
	.long	1342177340              @ 0x5000003c
.Lcpi_end24:
	.size	__arm_cp.12_0, .Lcpi_end24-__arm_cp.12_0
__arm_cp.12_1:
	.long	1342193728              @ 0x50004040
.Lcpi_end25:
	.size	__arm_cp.12_1, .Lcpi_end25-__arm_cp.12_1
.Lfunc_end12:
	.size	GPIO_Init, .Lfunc_end12-GPIO_Init
	.cfi_endproc
	.cantunwind
	.fnend
                                        @ -- End function
	.section	.text.TMR1_IRQHandler,"ax",%progbits
	.hidden	TMR1_IRQHandler         @ -- Begin function TMR1_IRQHandler
	.globl	TMR1_IRQHandler
	.p2align	2
	.type	TMR1_IRQHandler,%function
	.code	16                      @ @TMR1_IRQHandler
	.thumb_func
TMR1_IRQHandler:
.Lfunc_begin13:
	.loc	2 226 0 is_stmt 1       @ ../main.c:226:0
	.fnstart
	.cfi_startproc
@ %bb.0:
	.save	{r7, lr}
	push	{r7, lr}
	.cfi_def_cfa_offset 8
	.cfi_offset lr, -4
	.cfi_offset r7, -8
.Ltmp69:
	.loc	2 230 8 prologue_end    @ ../main.c:230:8
	ldr	r0, __arm_cp.13_0
	bl	TIMER_GetIntFlag
.Ltmp70:
	.loc	2 230 8 is_stmt 0       @ ../main.c:230:8
	cmp	r0, #1
	bne	.LBB13_6
	b	.LBB13_1
.LBB13_1:
.Ltmp71:
	.loc	2 232 9 is_stmt 1       @ ../main.c:232:9
	ldr	r0, __arm_cp.13_0
	bl	TIMER_ClearIntFlag
	.loc	2 233 3                 @ ../main.c:233:3
	bl	tick_counter
.Ltmp72:
	.loc	2 235 8                 @ ../main.c:235:8
	bl	get_tick
	.loc	2 235 19 is_stmt 0      @ ../main.c:235:19
	movw	r1, #1000
	udiv	r2, r0, r1
	muls	r1, r2, r1
	subs	r0, r0, r1
.Ltmp73:
	.loc	2 235 7                 @ ../main.c:235:7
	cmp	r0, #0
	bne	.LBB13_3
	b	.LBB13_2
.LBB13_2:
.Ltmp74:
	.loc	2 238 9 is_stmt 1       @ ../main.c:238:9
	ldr	r0, __arm_cp.13_1
	ldr	r1, [r0]
	movs	r2, #1
	eors	r1, r2
	str	r1, [r0]
	.loc	2 239 3                 @ ../main.c:239:3
	b	.LBB13_3
.Ltmp75:
.LBB13_3:
	.loc	2 241 8                 @ ../main.c:241:8
	bl	get_tick
	.loc	2 241 19 is_stmt 0      @ ../main.c:241:19
	movs	r1, #50
	udiv	r2, r0, r1
	muls	r1, r2, r1
	subs	r0, r0, r1
.Ltmp76:
	.loc	2 241 7                 @ ../main.c:241:7
	cmp	r0, #0
	bne	.LBB13_5
	b	.LBB13_4
.LBB13_4:
.Ltmp77:
	.loc	2 244 3 is_stmt 1       @ ../main.c:244:3
	b	.LBB13_5
.Ltmp78:
.LBB13_5:
	.loc	2 245 5                 @ ../main.c:245:5
	b	.LBB13_6
.Ltmp79:
.LBB13_6:
	.loc	2 246 1                 @ ../main.c:246:1
	pop	{r7, pc}
.Ltmp80:
	.p2align	2
@ %bb.7:
	.loc	2 0 1 is_stmt 0         @ ../main.c:0:1
__arm_cp.13_0:
	.long	1073807392              @ 0x40010020
.Lcpi_end26:
	.size	__arm_cp.13_0, .Lcpi_end26-__arm_cp.13_0
__arm_cp.13_1:
	.long	1342194296              @ 0x50004278
.Lcpi_end27:
	.size	__arm_cp.13_1, .Lcpi_end27-__arm_cp.13_1
.Lfunc_end13:
	.size	TMR1_IRQHandler, .Lfunc_end13-TMR1_IRQHandler
	.cfi_endproc
	.cantunwind
	.fnend
                                        @ -- End function
	.section	.text.TIMER_GetIntFlag,"ax",%progbits
	.p2align	1               @ -- Begin function TIMER_GetIntFlag
	.type	TIMER_GetIntFlag,%function
	.code	16                      @ @TIMER_GetIntFlag
	.thumb_func
TIMER_GetIntFlag:
.Lfunc_begin14:
	.file	6 "../../../Library/StdDriver/inc" "timer.h"
	.loc	6 327 0 is_stmt 1       @ ../../../Library/StdDriver/inc\timer.h:327:0
	.fnstart
	.cfi_startproc
@ %bb.0:
	.pad	#8
	sub	sp, #8
	.cfi_def_cfa_offset 8
	mov	r1, r0
	str	r0, [sp, #4]
.Ltmp81:
	.loc	6 328 14 prologue_end   @ ../../../Library/StdDriver/inc\timer.h:328:14
	ldr	r0, [sp, #4]
	.loc	6 328 21 is_stmt 0      @ ../../../Library/StdDriver/inc\timer.h:328:21
	ldr	r0, [r0, #8]
	.loc	6 328 28                @ ../../../Library/StdDriver/inc\timer.h:328:28
	movs	r2, #1
	ands	r0, r2
	.loc	6 328 5                 @ ../../../Library/StdDriver/inc\timer.h:328:5
	str	r1, [sp]                @ 4-byte Spill
	add	sp, #8
	bx	lr
.Ltmp82:
.Lfunc_end14:
	.size	TIMER_GetIntFlag, .Lfunc_end14-TIMER_GetIntFlag
	.cfi_endproc
	.cantunwind
	.fnend
                                        @ -- End function
	.section	.text.TIMER_ClearIntFlag,"ax",%progbits
	.p2align	1               @ -- Begin function TIMER_ClearIntFlag
	.type	TIMER_ClearIntFlag,%function
	.code	16                      @ @TIMER_ClearIntFlag
	.thumb_func
TIMER_ClearIntFlag:
.Lfunc_begin15:
	.loc	6 341 0 is_stmt 1       @ ../../../Library/StdDriver/inc\timer.h:341:0
	.fnstart
	.cfi_startproc
@ %bb.0:
	.pad	#8
	sub	sp, #8
	.cfi_def_cfa_offset 8
	mov	r1, r0
	str	r0, [sp, #4]
.Ltmp83:
	.loc	6 342 5 prologue_end    @ ../../../Library/StdDriver/inc\timer.h:342:5
	ldr	r0, [sp, #4]
	.loc	6 342 19 is_stmt 0      @ ../../../Library/StdDriver/inc\timer.h:342:19
	movs	r2, #1
	str	r2, [r0, #8]
	.loc	6 343 1 is_stmt 1       @ ../../../Library/StdDriver/inc\timer.h:343:1
	str	r1, [sp]                @ 4-byte Spill
	add	sp, #8
	bx	lr
.Ltmp84:
.Lfunc_end15:
	.size	TIMER_ClearIntFlag, .Lfunc_end15-TIMER_ClearIntFlag
	.cfi_endproc
	.cantunwind
	.fnend
                                        @ -- End function
	.section	.text.TIMER1_Init,"ax",%progbits
	.hidden	TIMER1_Init             @ -- Begin function TIMER1_Init
	.globl	TIMER1_Init
	.p2align	2
	.type	TIMER1_Init,%function
	.code	16                      @ @TIMER1_Init
	.thumb_func
TIMER1_Init:
.Lfunc_begin16:
	.loc	2 250 0                 @ ../main.c:250:0
	.fnstart
	.cfi_startproc
@ %bb.0:
	.save	{r7, lr}
	push	{r7, lr}
	.cfi_def_cfa_offset 8
	.cfi_offset lr, -4
	.cfi_offset r7, -8
	.pad	#8
	sub	sp, #8
	.cfi_def_cfa_offset 16
.Ltmp85:
	.loc	2 251 5 prologue_end    @ ../main.c:251:5
	movs	r0, #1
	lsls	r1, r0, #27
	ldr	r0, __arm_cp.16_0
	movw	r2, #1000
	str	r0, [sp, #4]            @ 4-byte Spill
	bl	TIMER_Open
	.loc	2 252 5                 @ ../main.c:252:5
	ldr	r1, [sp, #4]            @ 4-byte Reload
	str	r0, [sp]                @ 4-byte Spill
	mov	r0, r1
	bl	TIMER_EnableInt
	.loc	2 253 5                 @ ../main.c:253:5
	movs	r0, #9
	bl	NVIC_EnableIRQ
	.loc	2 254 5                 @ ../main.c:254:5
	ldr	r0, [sp, #4]            @ 4-byte Reload
	bl	TIMER_Start
	.loc	2 255 1                 @ ../main.c:255:1
	add	sp, #8
	pop	{r7, pc}
.Ltmp86:
	.p2align	2
@ %bb.1:
	.loc	2 0 1 is_stmt 0         @ ../main.c:0:1
__arm_cp.16_0:
	.long	1073807392              @ 0x40010020
.Lcpi_end28:
	.size	__arm_cp.16_0, .Lcpi_end28-__arm_cp.16_0
.Lfunc_end16:
	.size	TIMER1_Init, .Lfunc_end16-TIMER1_Init
	.cfi_endproc
	.cantunwind
	.fnend
                                        @ -- End function
	.section	.text.TIMER_EnableInt,"ax",%progbits
	.p2align	1               @ -- Begin function TIMER_EnableInt
	.type	TIMER_EnableInt,%function
	.code	16                      @ @TIMER_EnableInt
	.thumb_func
TIMER_EnableInt:
.Lfunc_begin17:
	.loc	6 270 0 is_stmt 1       @ ../../../Library/StdDriver/inc\timer.h:270:0
	.fnstart
	.cfi_startproc
@ %bb.0:
	.pad	#8
	sub	sp, #8
	.cfi_def_cfa_offset 8
	mov	r1, r0
	str	r0, [sp, #4]
.Ltmp87:
	.loc	6 271 5 prologue_end    @ ../../../Library/StdDriver/inc\timer.h:271:5
	ldr	r0, [sp, #4]
	.loc	6 271 16 is_stmt 0      @ ../../../Library/StdDriver/inc\timer.h:271:16
	ldr	r2, [r0]
	movs	r3, #1
	lsls	r3, r3, #29
	orrs	r2, r3
	str	r2, [r0]
	.loc	6 272 1 is_stmt 1       @ ../../../Library/StdDriver/inc\timer.h:272:1
	str	r1, [sp]                @ 4-byte Spill
	add	sp, #8
	bx	lr
.Ltmp88:
.Lfunc_end17:
	.size	TIMER_EnableInt, .Lfunc_end17-TIMER_EnableInt
	.cfi_endproc
	.cantunwind
	.fnend
                                        @ -- End function
	.section	.text.NVIC_EnableIRQ,"ax",%progbits
	.p2align	2               @ -- Begin function NVIC_EnableIRQ
	.type	NVIC_EnableIRQ,%function
	.code	16                      @ @NVIC_EnableIRQ
	.thumb_func
NVIC_EnableIRQ:
.Lfunc_begin18:
	.loc	5 630 0                 @ ../../../Library/CMSIS/Include\core_cm0.h:630:0
	.fnstart
	.cfi_startproc
@ %bb.0:
	.pad	#8
	sub	sp, #8
	.cfi_def_cfa_offset 8
	mov	r1, r0
	add	r2, sp, #4
	strb	r0, [r2]
.Ltmp89:
	.loc	5 631 8 prologue_end    @ ../../../Library/CMSIS/Include\core_cm0.h:631:8
	ldrb	r0, [r2]
	sxtb	r0, r0
.Ltmp90:
	.loc	5 631 8 is_stmt 0       @ ../../../Library/CMSIS/Include\core_cm0.h:631:8
	cmp	r0, #0
	str	r1, [sp]                @ 4-byte Spill
	blt	.LBB18_2
	b	.LBB18_1
.LBB18_1:
	.loc	5 0 8                   @ ../../../Library/CMSIS/Include\core_cm0.h:0:8
	add	r0, sp, #4
.Ltmp91:
	.loc	5 633 88 is_stmt 1      @ ../../../Library/CMSIS/Include\core_cm0.h:633:88
	ldrb	r0, [r0]
	sxtb	r0, r0
	.loc	5 633 103 is_stmt 0     @ ../../../Library/CMSIS/Include\core_cm0.h:633:103
	movs	r1, #31
	mov	r2, r0
	ands	r2, r1
	.loc	5 633 73                @ ../../../Library/CMSIS/Include\core_cm0.h:633:73
	movs	r1, #1
	lsls	r1, r2
	.loc	5 633 9                 @ ../../../Library/CMSIS/Include\core_cm0.h:633:9
	lsrs	r0, r0, #3
	.loc	5 633 47                @ ../../../Library/CMSIS/Include\core_cm0.h:633:47
	ldr	r2, __arm_cp.18_0
	ands	r0, r2
	.loc	5 633 9                 @ ../../../Library/CMSIS/Include\core_cm0.h:633:9
	ldr	r2, __arm_cp.18_1
	.loc	5 633 56                @ ../../../Library/CMSIS/Include\core_cm0.h:633:56
	str	r1, [r0, r2]
	.loc	5 634 5 is_stmt 1       @ ../../../Library/CMSIS/Include\core_cm0.h:634:5
	b	.LBB18_2
.Ltmp92:
.LBB18_2:
	.loc	5 635 1                 @ ../../../Library/CMSIS/Include\core_cm0.h:635:1
	add	sp, #8
	bx	lr
.Ltmp93:
	.p2align	2
@ %bb.3:
	.loc	5 0 1 is_stmt 0         @ ../../../Library/CMSIS/Include\core_cm0.h:0:1
__arm_cp.18_0:
	.long	536870908               @ 0x1ffffffc
.Lcpi_end29:
	.size	__arm_cp.18_0, .Lcpi_end29-__arm_cp.18_0
__arm_cp.18_1:
	.long	3758153984              @ 0xe000e100
.Lcpi_end30:
	.size	__arm_cp.18_1, .Lcpi_end30-__arm_cp.18_1
.Lfunc_end18:
	.size	NVIC_EnableIRQ, .Lfunc_end18-NVIC_EnableIRQ
	.cfi_endproc
	.cantunwind
	.fnend
                                        @ -- End function
	.section	.text.TIMER_Start,"ax",%progbits
	.p2align	1               @ -- Begin function TIMER_Start
	.type	TIMER_Start,%function
	.code	16                      @ @TIMER_Start
	.thumb_func
TIMER_Start:
.Lfunc_begin19:
	.loc	6 128 0 is_stmt 1       @ ../../../Library/StdDriver/inc\timer.h:128:0
	.fnstart
	.cfi_startproc
@ %bb.0:
	.pad	#8
	sub	sp, #8
	.cfi_def_cfa_offset 8
	mov	r1, r0
	str	r0, [sp, #4]
.Ltmp94:
	.loc	6 129 5 prologue_end    @ ../../../Library/StdDriver/inc\timer.h:129:5
	ldr	r0, [sp, #4]
	.loc	6 129 16 is_stmt 0      @ ../../../Library/StdDriver/inc\timer.h:129:16
	ldr	r2, [r0]
	movs	r3, #1
	lsls	r3, r3, #30
	orrs	r2, r3
	str	r2, [r0]
	.loc	6 130 1 is_stmt 1       @ ../../../Library/StdDriver/inc\timer.h:130:1
	str	r1, [sp]                @ 4-byte Spill
	add	sp, #8
	bx	lr
.Ltmp95:
.Lfunc_end19:
	.size	TIMER_Start, .Lfunc_end19-TIMER_Start
	.cfi_endproc
	.cantunwind
	.fnend
                                        @ -- End function
	.section	.text.UARTx_Process,"ax",%progbits
	.hidden	UARTx_Process           @ -- Begin function UARTx_Process
	.globl	UARTx_Process
	.p2align	2
	.type	UARTx_Process,%function
	.code	16                      @ @UARTx_Process
	.thumb_func
UARTx_Process:
.Lfunc_begin20:
	.loc	2 258 0                 @ ../main.c:258:0
	.fnstart
	.cfi_startproc
@ %bb.0:
	.save	{r7, lr}
	push	{r7, lr}
	.cfi_def_cfa_offset 8
	.cfi_offset lr, -4
	.cfi_offset r7, -8
	.pad	#16
	sub	sp, #16
	.cfi_def_cfa_offset 24
	add	r0, sp, #12
	movs	r1, #0
.Ltmp96:
	.loc	2 259 10 prologue_end   @ ../main.c:259:10
	strb	r1, [r0]
	.loc	2 260 8                 @ ../main.c:260:8
	ldr	r1, __arm_cp.20_0
	ldr	r1, [r1]
	.loc	2 260 6 is_stmt 0       @ ../main.c:260:6
	strb	r1, [r0]
.Ltmp97:
	.loc	2 262 6 is_stmt 1       @ ../main.c:262:6
	ldrb	r0, [r0]
	.loc	2 262 17 is_stmt 0      @ ../main.c:262:17
	cmp	r0, #120
	beq	.LBB20_2
	b	.LBB20_1
.LBB20_1:
	.loc	2 0 17                  @ ../main.c:0:17
	add	r0, sp, #12
	.loc	2 262 20                @ ../main.c:262:20
	ldrb	r0, [r0]
.Ltmp98:
	.loc	2 262 6                 @ ../main.c:262:6
	cmp	r0, #88
	bne	.LBB20_3
	b	.LBB20_2
.LBB20_2:
.Ltmp99:
	.loc	2 264 3 is_stmt 1       @ ../main.c:264:3
	bl	NVIC_SystemReset
	.loc	2 265 2                 @ ../main.c:265:2
	b	.LBB20_3
.Ltmp100:
.LBB20_3:
	.loc	2 0 2 is_stmt 0         @ ../main.c:0:2
	add	r0, sp, #12
.Ltmp101:
	.loc	2 267 6 is_stmt 1       @ ../main.c:267:6
	ldrb	r0, [r0]
.Ltmp102:
	.loc	2 267 6 is_stmt 0       @ ../main.c:267:6
	cmp	r0, #128
	blt	.LBB20_5
	b	.LBB20_4
.LBB20_4:
.Ltmp103:
	.loc	2 269 3 is_stmt 1       @ ../main.c:269:3
	ldr	r0, __arm_cp.20_3
	bl	printf
	.loc	2 270 2                 @ ../main.c:270:2
	str	r0, [sp, #8]            @ 4-byte Spill
	b	.LBB20_10
.Ltmp104:
.LBB20_5:
	.loc	2 273 15                @ ../main.c:273:15
	ldr	r0, [sp, #12]
	.loc	2 273 19 is_stmt 0      @ ../main.c:273:19
	subs	r0, #48
	.loc	2 273 13                @ ../main.c:273:13
	ldr	r1, __arm_cp.20_1
	strb	r0, [r1]
	.loc	2 274 34 is_stmt 1      @ ../main.c:274:34
	ldrb	r1, [r1]
	.loc	2 274 3 is_stmt 0       @ ../main.c:274:3
	ldr	r0, __arm_cp.20_2
	bl	printf
	add	r1, sp, #12
	.loc	2 276 10 is_stmt 1      @ ../main.c:276:10
	ldrb	r1, [r1]
	.loc	2 276 3 is_stmt 0       @ ../main.c:276:3
	subs	r1, #88
	cmp	r1, #34
	str	r0, [sp, #4]            @ 4-byte Spill
	str	r1, [sp]                @ 4-byte Spill
	bhi	.LBB20_9
@ %bb.6:
	.loc	2 0 3                   @ ../main.c:0:3
	ldr	r0, [sp]                @ 4-byte Reload
	lsls	r1, r0, #2
	adr	r2, .LJTI20_0
	adds	r1, r2, r1
	mov	pc, r1
@ %bb.7:
	.p2align	2
.LJTI20_0:
	b.w	.LBB20_8
	b.w	.LBB20_9
	b.w	.LBB20_8
	b.w	.LBB20_9
	b.w	.LBB20_9
	b.w	.LBB20_9
	b.w	.LBB20_9
	b.w	.LBB20_9
	b.w	.LBB20_9
	b.w	.LBB20_9
	b.w	.LBB20_9
	b.w	.LBB20_9
	b.w	.LBB20_9
	b.w	.LBB20_9
	b.w	.LBB20_9
	b.w	.LBB20_9
	b.w	.LBB20_9
	b.w	.LBB20_9
	b.w	.LBB20_9
	b.w	.LBB20_9
	b.w	.LBB20_9
	b.w	.LBB20_9
	b.w	.LBB20_9
	b.w	.LBB20_9
	b.w	.LBB20_9
	b.w	.LBB20_9
	b.w	.LBB20_9
	b.w	.LBB20_9
	b.w	.LBB20_9
	b.w	.LBB20_9
	b.w	.LBB20_9
	b.w	.LBB20_9
	b.w	.LBB20_8
	b.w	.LBB20_9
	b.w	.LBB20_8
.LBB20_8:
.Ltmp105:
	.loc	2 285 5 is_stmt 1       @ ../main.c:285:5
	bl	NVIC_SystemReset
	.loc	2 286 5                 @ ../main.c:286:5
	b	.LBB20_9
.Ltmp106:
.LBB20_9:
	.loc	2 0 5 is_stmt 0         @ ../main.c:0:5
	b	.LBB20_10
.LBB20_10:
	.loc	2 289 1 is_stmt 1       @ ../main.c:289:1
	add	sp, #16
	pop	{r7, pc}
.Ltmp107:
	.p2align	2
@ %bb.11:
	.loc	2 0 1 is_stmt 0         @ ../main.c:0:1
__arm_cp.20_0:
	.long	1074069504              @ 0x40050000
.Lcpi_end31:
	.size	__arm_cp.20_0, .Lcpi_end31-__arm_cp.20_0
__arm_cp.20_1:
	.long	DemoState
.Lcpi_end32:
	.size	__arm_cp.20_1, .Lcpi_end32-__arm_cp.20_1
__arm_cp.20_2:
	.long	.L.str.13
.Lcpi_end33:
	.size	__arm_cp.20_2, .Lcpi_end33-__arm_cp.20_2
__arm_cp.20_3:
	.long	.L.str.12
.Lcpi_end34:
	.size	__arm_cp.20_3, .Lcpi_end34-__arm_cp.20_3
.Lfunc_end20:
	.size	UARTx_Process, .Lfunc_end20-UARTx_Process
	.cfi_endproc
	.cantunwind
	.fnend
                                        @ -- End function
	.section	.text.NVIC_SystemReset,"ax",%progbits
	.p2align	2               @ -- Begin function NVIC_SystemReset
	.type	NVIC_SystemReset,%function
	.code	16                      @ @NVIC_SystemReset
	.thumb_func
NVIC_SystemReset:
.Lfunc_begin21:
	.loc	5 737 0 is_stmt 1       @ ../../../Library/CMSIS/Include\core_cm0.h:737:0
	.fnstart
	.cfi_startproc
@ %bb.0:
	.loc	5 738 5 prologue_end    @ ../../../Library/CMSIS/Include\core_cm0.h:738:5
	dsb	sy
	.loc	5 740 17                @ ../../../Library/CMSIS/Include\core_cm0.h:740:17
	ldr	r0, __arm_cp.21_0
	ldr	r1, __arm_cp.21_1
	str	r1, [r0]
	.loc	5 742 5                 @ ../../../Library/CMSIS/Include\core_cm0.h:742:5
	dsb	sy
	.loc	5 744 5                 @ ../../../Library/CMSIS/Include\core_cm0.h:744:5
	b	.LBB21_1
.LBB21_1:                               @ =>This Inner Loop Header: Depth=1
.Ltmp108:
	.loc	5 746 9                 @ ../../../Library/CMSIS/Include\core_cm0.h:746:9
	nop
.Ltmp109:
	.loc	5 744 5                 @ ../../../Library/CMSIS/Include\core_cm0.h:744:5
	b	.LBB21_1
.Ltmp110:
	.p2align	2
@ %bb.2:
	.loc	5 0 5 is_stmt 0         @ ../../../Library/CMSIS/Include\core_cm0.h:0:5
__arm_cp.21_0:
	.long	3758157068              @ 0xe000ed0c
.Lcpi_end35:
	.size	__arm_cp.21_0, .Lcpi_end35-__arm_cp.21_0
__arm_cp.21_1:
	.long	100270084               @ 0x5fa0004
.Lcpi_end36:
	.size	__arm_cp.21_1, .Lcpi_end36-__arm_cp.21_1
.Lfunc_end21:
	.size	NVIC_SystemReset, .Lfunc_end21-NVIC_SystemReset
	.cfi_endproc
	.cantunwind
	.fnend
                                        @ -- End function
	.section	.text.UART0_IRQHandler,"ax",%progbits
	.hidden	UART0_IRQHandler        @ -- Begin function UART0_IRQHandler
	.globl	UART0_IRQHandler
	.p2align	2
	.type	UART0_IRQHandler,%function
	.code	16                      @ @UART0_IRQHandler
	.thumb_func
UART0_IRQHandler:
.Lfunc_begin22:
	.loc	2 292 0 is_stmt 1       @ ../main.c:292:0
	.fnstart
	.cfi_startproc
@ %bb.0:
	.save	{r7, lr}
	push	{r7, lr}
	.cfi_def_cfa_offset 8
	.cfi_offset lr, -4
	.cfi_offset r7, -8
.Ltmp111:
	.loc	2 294 8 prologue_end    @ ../main.c:294:8
	ldr	r0, __arm_cp.22_0
	ldr	r0, [r0]
	movw	r1, #4352
.Ltmp112:
	.loc	2 294 8 is_stmt 0       @ ../main.c:294:8
	tst	r0, r1
	beq	.LBB22_2
	b	.LBB22_1
.LBB22_1:
.Ltmp113:
	.loc	2 294 8                 @ ../main.c:294:8
	movs	r0, #1
	cmp	r0, #0
	bne	.LBB22_3
	b	.LBB22_7
.Ltmp114:
.LBB22_2:
	.loc	2 294 8                 @ ../main.c:294:8
	movs	r0, #1
	cmp	r0, #0
	bne	.LBB22_7
	b	.LBB22_3
.LBB22_3:
.Ltmp115:
	.loc	2 296 9 is_stmt 1       @ ../main.c:296:9
	b	.LBB22_4
.LBB22_4:                               @ =>This Inner Loop Header: Depth=1
	.loc	2 296 15 is_stmt 0      @ ../main.c:296:15
	ldr	r0, __arm_cp.22_1
	ldr	r0, [r0]
	movw	r1, #16384
	.loc	2 296 9                 @ ../main.c:296:9
	tst	r0, r1
	bne	.LBB22_6
	b	.LBB22_5
.LBB22_5:                               @   in Loop: Header=BB22_4 Depth=1
.Ltmp116:
	.loc	2 298 13 is_stmt 1      @ ../main.c:298:13
	bl	UARTx_Process
.Ltmp117:
	.loc	2 296 9                 @ ../main.c:296:9
	b	.LBB22_4
.LBB22_6:
	.loc	2 300 5                 @ ../main.c:300:5
	b	.LBB22_7
.Ltmp118:
.LBB22_7:
	.loc	2 302 15                @ ../main.c:302:15
	ldr	r0, __arm_cp.22_1
	ldr	r0, [r0]
	.loc	2 302 23 is_stmt 0      @ ../main.c:302:23
	movs	r1, #113
.Ltmp119:
	.loc	2 302 8                 @ ../main.c:302:8
	tst	r0, r1
	beq	.LBB22_9
	b	.LBB22_8
.LBB22_8:
.Ltmp120:
	.loc	2 304 9 is_stmt 1       @ ../main.c:304:9
	ldr	r0, __arm_cp.22_2
	movw	r1, #9216
	bl	UART_ClearIntFlag
	.loc	2 305 5                 @ ../main.c:305:5
	b	.LBB22_9
.Ltmp121:
.LBB22_9:
	.loc	2 306 1                 @ ../main.c:306:1
	pop	{r7, pc}
.Ltmp122:
	.p2align	2
@ %bb.10:
	.loc	2 0 1 is_stmt 0         @ ../main.c:0:1
__arm_cp.22_0:
	.long	1074069532              @ 0x4005001c
.Lcpi_end37:
	.size	__arm_cp.22_0, .Lcpi_end37-__arm_cp.22_0
__arm_cp.22_1:
	.long	1074069528              @ 0x40050018
.Lcpi_end38:
	.size	__arm_cp.22_1, .Lcpi_end38-__arm_cp.22_1
__arm_cp.22_2:
	.long	1074069504              @ 0x40050000
.Lcpi_end39:
	.size	__arm_cp.22_2, .Lcpi_end39-__arm_cp.22_2
.Lfunc_end22:
	.size	UART0_IRQHandler, .Lfunc_end22-UART0_IRQHandler
	.cfi_endproc
	.cantunwind
	.fnend
                                        @ -- End function
	.section	.text.UART0_Init,"ax",%progbits
	.hidden	UART0_Init              @ -- Begin function UART0_Init
	.globl	UART0_Init
	.p2align	2
	.type	UART0_Init,%function
	.code	16                      @ @UART0_Init
	.thumb_func
UART0_Init:
.Lfunc_begin23:
	.loc	2 309 0 is_stmt 1       @ ../main.c:309:0
	.fnstart
	.cfi_startproc
@ %bb.0:
	.save	{r7, lr}
	push	{r7, lr}
	.cfi_def_cfa_offset 8
	.cfi_offset lr, -4
	.cfi_offset r7, -8
	.pad	#56
	sub	sp, #56
	.cfi_def_cfa_offset 64
.Ltmp123:
	.loc	2 310 5 prologue_end    @ ../main.c:310:5
	ldr	r0, __arm_cp.23_0
	bl	SYS_ResetModule
	.loc	2 313 5                 @ ../main.c:313:5
	movs	r0, #225
	lsls	r1, r0, #9
	ldr	r0, __arm_cp.23_1
	str	r0, [sp, #52]           @ 4-byte Spill
	bl	UART_Open
	.loc	2 314 5                 @ ../main.c:314:5
	movs	r1, #17
	ldr	r0, [sp, #52]           @ 4-byte Reload
	bl	UART_EnableInt
	.loc	2 315 5                 @ ../main.c:315:5
	movs	r0, #12
	bl	NVIC_EnableIRQ
	.loc	2 318 40                @ ../main.c:318:40
	bl	CLK_GetCPUFreq
	.loc	2 318 2 is_stmt 0       @ ../main.c:318:2
	ldr	r1, __arm_cp.23_2
	str	r0, [sp, #48]           @ 4-byte Spill
	mov	r0, r1
	ldr	r1, [sp, #48]           @ 4-byte Reload
	bl	printf
	.loc	2 319 36 is_stmt 1      @ ../main.c:319:36
	str	r0, [sp, #44]           @ 4-byte Spill
	bl	CLK_GetHXTFreq
	.loc	2 319 2 is_stmt 0       @ ../main.c:319:2
	ldr	r1, __arm_cp.23_3
	str	r0, [sp, #40]           @ 4-byte Spill
	mov	r0, r1
	ldr	r1, [sp, #40]           @ 4-byte Reload
	bl	printf
	.loc	2 320 36 is_stmt 1      @ ../main.c:320:36
	str	r0, [sp, #36]           @ 4-byte Spill
	bl	CLK_GetLXTFreq
	.loc	2 320 2 is_stmt 0       @ ../main.c:320:2
	ldr	r1, __arm_cp.23_4
	str	r0, [sp, #32]           @ 4-byte Spill
	mov	r0, r1
	ldr	r1, [sp, #32]           @ 4-byte Reload
	bl	printf
	.loc	2 321 38 is_stmt 1      @ ../main.c:321:38
	str	r0, [sp, #28]           @ 4-byte Spill
	bl	CLK_GetPCLK0Freq
	.loc	2 321 2 is_stmt 0       @ ../main.c:321:2
	ldr	r1, __arm_cp.23_5
	str	r0, [sp, #24]           @ 4-byte Spill
	mov	r0, r1
	ldr	r1, [sp, #24]           @ 4-byte Reload
	bl	printf
	.loc	2 322 38 is_stmt 1      @ ../main.c:322:38
	str	r0, [sp, #20]           @ 4-byte Spill
	bl	CLK_GetPCLK1Freq
	.loc	2 322 2 is_stmt 0       @ ../main.c:322:2
	ldr	r1, __arm_cp.23_6
	str	r0, [sp, #16]           @ 4-byte Spill
	mov	r0, r1
	ldr	r1, [sp, #16]           @ 4-byte Reload
	bl	printf
	.loc	2 323 37 is_stmt 1      @ ../main.c:323:37
	str	r0, [sp, #12]           @ 4-byte Spill
	bl	CLK_GetHCLKFreq
	.loc	2 323 2 is_stmt 0       @ ../main.c:323:2
	ldr	r1, __arm_cp.23_7
	str	r0, [sp, #8]            @ 4-byte Spill
	mov	r0, r1
	ldr	r1, [sp, #8]            @ 4-byte Reload
	bl	printf
	.loc	2 326 1 is_stmt 1       @ ../main.c:326:1
	str	r0, [sp, #4]            @ 4-byte Spill
	add	sp, #56
	pop	{r7, pc}
.Ltmp124:
	.p2align	2
@ %bb.1:
	.loc	2 0 1 is_stmt 0         @ ../main.c:0:1
__arm_cp.23_0:
	.long	67108880                @ 0x4000010
.Lcpi_end40:
	.size	__arm_cp.23_0, .Lcpi_end40-__arm_cp.23_0
__arm_cp.23_1:
	.long	1074069504              @ 0x40050000
.Lcpi_end41:
	.size	__arm_cp.23_1, .Lcpi_end41-__arm_cp.23_1
__arm_cp.23_2:
	.long	.L.str.14
.Lcpi_end42:
	.size	__arm_cp.23_2, .Lcpi_end42-__arm_cp.23_2
__arm_cp.23_3:
	.long	.L.str.15
.Lcpi_end43:
	.size	__arm_cp.23_3, .Lcpi_end43-__arm_cp.23_3
__arm_cp.23_4:
	.long	.L.str.16
.Lcpi_end44:
	.size	__arm_cp.23_4, .Lcpi_end44-__arm_cp.23_4
__arm_cp.23_5:
	.long	.L.str.17
.Lcpi_end45:
	.size	__arm_cp.23_5, .Lcpi_end45-__arm_cp.23_5
__arm_cp.23_6:
	.long	.L.str.18
.Lcpi_end46:
	.size	__arm_cp.23_6, .Lcpi_end46-__arm_cp.23_6
__arm_cp.23_7:
	.long	.L.str.19
.Lcpi_end47:
	.size	__arm_cp.23_7, .Lcpi_end47-__arm_cp.23_7
.Lfunc_end23:
	.size	UART0_Init, .Lfunc_end23-UART0_Init
	.cfi_endproc
	.cantunwind
	.fnend
                                        @ -- End function
	.section	.text.SYS_Init,"ax",%progbits
	.hidden	SYS_Init                @ -- Begin function SYS_Init
	.globl	SYS_Init
	.p2align	2
	.type	SYS_Init,%function
	.code	16                      @ @SYS_Init
	.thumb_func
SYS_Init:
.Lfunc_begin24:
	.loc	2 329 0 is_stmt 1       @ ../main.c:329:0
	.fnstart
	.cfi_startproc
@ %bb.0:
	.save	{r7, lr}
	push	{r7, lr}
	.cfi_def_cfa_offset 8
	.cfi_offset lr, -4
	.cfi_offset r7, -8
	.pad	#24
	sub	sp, #24
	.cfi_def_cfa_offset 32
.Ltmp125:
	.loc	2 330 5 prologue_end    @ ../main.c:330:5
	bl	SYS_UnlockReg
	.loc	2 332 5                 @ ../main.c:332:5
	movs	r0, #4
	bl	CLK_EnableXtalRC
	.loc	2 333 5                 @ ../main.c:333:5
	movs	r0, #16
	bl	CLK_WaitClockReady
	.loc	2 356 5                 @ ../main.c:356:5
	ldr	r1, __arm_cp.24_0
	str	r0, [sp, #20]           @ 4-byte Spill
	mov	r0, r1
	bl	CLK_SetCoreClock
	.loc	2 361 5                 @ ../main.c:361:5
	ldr	r1, __arm_cp.24_1
	str	r0, [sp, #16]           @ 4-byte Spill
	mov	r0, r1
	str	r1, [sp, #12]           @ 4-byte Spill
	bl	CLK_EnableModuleClock
	.loc	2 362 5                 @ ../main.c:362:5
	movs	r0, #3
	lsls	r1, r0, #24
	movs	r0, #0
	ldr	r2, [sp, #12]           @ 4-byte Reload
	str	r0, [sp, #8]            @ 4-byte Spill
	mov	r0, r2
	ldr	r2, [sp, #8]            @ 4-byte Reload
	bl	CLK_SetModuleClock
	.loc	2 364 5                 @ ../main.c:364:5
	ldr	r0, __arm_cp.24_2
	str	r0, [sp, #4]            @ 4-byte Spill
	bl	CLK_EnableModuleClock
	.loc	2 365 4                 @ ../main.c:365:4
	movw	r1, #1792
	ldr	r0, [sp, #4]            @ 4-byte Reload
	ldr	r2, [sp, #8]            @ 4-byte Reload
	bl	CLK_SetModuleClock
	.loc	2 367 5                 @ ../main.c:367:5
	ldr	r0, __arm_cp.24_3
	str	r0, [sp]                @ 4-byte Spill
	bl	CLK_EnableModuleClock
	.loc	2 368 4                 @ ../main.c:368:4
	movw	r1, #28672
	ldr	r0, [sp]                @ 4-byte Reload
	ldr	r2, [sp, #8]            @ 4-byte Reload
	bl	CLK_SetModuleClock
	.loc	2 371 5                 @ ../main.c:371:5
	ldr	r0, __arm_cp.24_4
	bl	CLK_EnableModuleClock
	.loc	2 374 5                 @ ../main.c:374:5
	movs	r0, #1
	bl	CLK_EnableModuleClock
	.loc	2 377 27                @ ../main.c:377:27
	ldr	r0, __arm_cp.24_5
	ldr	r1, [r0]
	.loc	2 377 36 is_stmt 0      @ ../main.c:377:36
	movs	r2, #255
	lsls	r2, r2, #16
	bics	r1, r2
	.loc	2 377 94                @ ../main.c:377:94
	movs	r2, #51
	lsls	r2, r2, #17
	orrs	r1, r2
	.loc	2 377 19                @ ../main.c:377:19
	str	r1, [r0]
	.loc	2 382 27 is_stmt 1      @ ../main.c:382:27
	ldr	r0, __arm_cp.24_6
	ldr	r1, [r0]
	.loc	2 382 66 is_stmt 0      @ ../main.c:382:66
	movw	r2, #3840
	orrs	r1, r2
	.loc	2 382 19                @ ../main.c:382:19
	str	r1, [r0]
	.loc	2 385 5 is_stmt 1       @ ../main.c:385:5
	bl	SystemCoreClockUpdate
	.loc	2 388 5                 @ ../main.c:388:5
	bl	SYS_LockReg
	.loc	2 389 1                 @ ../main.c:389:1
	add	sp, #24
	pop	{r7, pc}
.Ltmp126:
	.p2align	2
@ %bb.1:
	.loc	2 0 1 is_stmt 0         @ ../main.c:0:1
__arm_cp.24_0:
	.long	72000000                @ 0x44aa200
.Lcpi_end48:
	.size	__arm_cp.24_0, .Lcpi_end48-__arm_cp.24_0
__arm_cp.24_1:
	.long	1468022032              @ 0x57803d10
.Lcpi_end49:
	.size	__arm_cp.24_1, .Lcpi_end49-__arm_cp.24_1
__arm_cp.24_2:
	.long	1585446914              @ 0x5e800002
.Lcpi_end50:
	.size	__arm_cp.24_2, .Lcpi_end50-__arm_cp.24_2
__arm_cp.24_3:
	.long	1589641219              @ 0x5ec00003
.Lcpi_end51:
	.size	__arm_cp.24_3, .Lcpi_end51-__arm_cp.24_3
__arm_cp.24_4:
	.long	2147483667              @ 0x80000013
.Lcpi_end52:
	.size	__arm_cp.24_4, .Lcpi_end52-__arm_cp.24_4
__arm_cp.24_5:
	.long	1342177340              @ 0x5000003c
.Lcpi_end53:
	.size	__arm_cp.24_5, .Lcpi_end53-__arm_cp.24_5
__arm_cp.24_6:
	.long	1342177344              @ 0x50000040
.Lcpi_end54:
	.size	__arm_cp.24_6, .Lcpi_end54-__arm_cp.24_6
.Lfunc_end24:
	.size	SYS_Init, .Lfunc_end24-SYS_Init
	.cfi_endproc
	.cantunwind
	.fnend
                                        @ -- End function
	.section	.text.SYS_UnlockReg,"ax",%progbits
	.p2align	2               @ -- Begin function SYS_UnlockReg
	.type	SYS_UnlockReg,%function
	.code	16                      @ @SYS_UnlockReg
	.thumb_func
SYS_UnlockReg:
.Lfunc_begin25:
	.file	7 "../../../Library/StdDriver/inc" "sys.h"
	.loc	7 1483 0 is_stmt 1      @ ../../../Library/StdDriver/inc\sys.h:1483:0
	.fnstart
	.cfi_startproc
@ %bb.0:
	.loc	7 1484 5 prologue_end   @ ../../../Library/StdDriver/inc\sys.h:1484:5
	b	.LBB25_1
.LBB25_1:                               @ =>This Inner Loop Header: Depth=1
.Ltmp127:
	.loc	7 1486 22               @ ../../../Library/StdDriver/inc\sys.h:1486:22
	ldr	r0, __arm_cp.25_0
	movs	r1, #89
	str	r1, [r0]
	.loc	7 1487 22               @ ../../../Library/StdDriver/inc\sys.h:1487:22
	movs	r1, #22
	str	r1, [r0]
	.loc	7 1488 22               @ ../../../Library/StdDriver/inc\sys.h:1488:22
	movs	r1, #136
	str	r1, [r0]
	.loc	7 1489 5                @ ../../../Library/StdDriver/inc\sys.h:1489:5
	b	.LBB25_2
.Ltmp128:
.LBB25_2:                               @   in Loop: Header=BB25_1 Depth=1
	.loc	7 1490 16               @ ../../../Library/StdDriver/inc\sys.h:1490:16
	ldr	r0, __arm_cp.25_0
	ldr	r0, [r0]
.Ltmp129:
	.loc	7 1489 5                @ ../../../Library/StdDriver/inc\sys.h:1489:5
	cmp	r0, #0
	beq	.LBB25_1
	b	.LBB25_3
.Ltmp130:
.LBB25_3:
	.loc	7 1491 1                @ ../../../Library/StdDriver/inc\sys.h:1491:1
	bx	lr
.Ltmp131:
	.p2align	2
@ %bb.4:
	.loc	7 0 1 is_stmt 0         @ ../../../Library/StdDriver/inc\sys.h:0:1
__arm_cp.25_0:
	.long	1342177536              @ 0x50000100
.Lcpi_end55:
	.size	__arm_cp.25_0, .Lcpi_end55-__arm_cp.25_0
.Lfunc_end25:
	.size	SYS_UnlockReg, .Lfunc_end25-SYS_UnlockReg
	.cfi_endproc
	.cantunwind
	.fnend
                                        @ -- End function
	.section	.text.SYS_LockReg,"ax",%progbits
	.p2align	2               @ -- Begin function SYS_LockReg
	.type	SYS_LockReg,%function
	.code	16                      @ @SYS_LockReg
	.thumb_func
SYS_LockReg:
.Lfunc_begin26:
	.loc	7 1501 0 is_stmt 1      @ ../../../Library/StdDriver/inc\sys.h:1501:0
	.fnstart
	.cfi_startproc
@ %bb.0:
	.loc	7 1502 18 prologue_end  @ ../../../Library/StdDriver/inc\sys.h:1502:18
	ldr	r0, __arm_cp.26_0
	movs	r1, #0
	str	r1, [r0]
	.loc	7 1503 1                @ ../../../Library/StdDriver/inc\sys.h:1503:1
	bx	lr
.Ltmp132:
	.p2align	2
@ %bb.1:
	.loc	7 0 1 is_stmt 0         @ ../../../Library/StdDriver/inc\sys.h:0:1
__arm_cp.26_0:
	.long	1342177536              @ 0x50000100
.Lcpi_end56:
	.size	__arm_cp.26_0, .Lcpi_end56-__arm_cp.26_0
.Lfunc_end26:
	.size	SYS_LockReg, .Lfunc_end26-SYS_LockReg
	.cfi_endproc
	.cantunwind
	.fnend
                                        @ -- End function
	.section	.text.main,"ax",%progbits
	.hidden	main                    @ -- Begin function main
	.globl	main
	.p2align	1
	.type	main,%function
	.code	16                      @ @main
	.thumb_func
main:
.Lfunc_begin27:
	.loc	2 392 0 is_stmt 1       @ ../main.c:392:0
	.fnstart
	.cfi_startproc
@ %bb.0:
	.save	{r7, lr}
	push	{r7, lr}
	.cfi_def_cfa_offset 8
	.cfi_offset lr, -4
	.cfi_offset r7, -8
	.pad	#8
	sub	sp, #8
	.cfi_def_cfa_offset 16
	movs	r0, #0
	str	r0, [sp, #4]
.Ltmp133:
	.loc	2 393 5 prologue_end    @ ../main.c:393:5
	str	r0, [sp]                @ 4-byte Spill
	bl	SYS_Init
	.loc	2 395 2                 @ ../main.c:395:2
	bl	UART0_Init
	.loc	2 396 2                 @ ../main.c:396:2
	bl	GPIO_Init
	.loc	2 397 2                 @ ../main.c:397:2
	bl	TIMER1_Init
	.loc	2 400 2                 @ ../main.c:400:2
	ldr	r0, [sp]                @ 4-byte Reload
	ldr	r1, [sp]                @ 4-byte Reload
	ldr	r2, [sp]                @ 4-byte Reload
	bl	setLED_ColorWipe
	.loc	2 402 2                 @ ../main.c:402:2
	bl	LLSI_Init
	.loc	2 405 5                 @ ../main.c:405:5
	b	.LBB27_1
.LBB27_1:                               @ =>This Inner Loop Header: Depth=1
.Ltmp134:
	.loc	2 407 3                 @ ../main.c:407:3
	bl	led_effect
.Ltmp135:
	.loc	2 405 5                 @ ../main.c:405:5
	b	.LBB27_1
.Ltmp136:
.Lfunc_end27:
	.size	main, .Lfunc_end27-main
	.cfi_endproc
	.cantunwind
	.fnend
                                        @ -- End function
	.hidden	BitFlag                 @ @BitFlag
	.type	BitFlag,%object
	.section	.bss.BitFlag,"aw",%nobits
	.globl	BitFlag
	.p2align	2
BitFlag:
	.long	0                       @ 0x0
	.size	BitFlag, 4

	.hidden	counter_tick            @ @counter_tick
	.type	counter_tick,%object
	.section	.bss.counter_tick,"aw",%nobits
	.globl	counter_tick
	.p2align	2
counter_tick:
	.long	0                       @ 0x0
	.size	counter_tick, 4

	.type	.L.str,%object          @ @.str
	.section	.rodata.str1.1,"aMS",%progbits,1
.L.str:
	.asciz	"error idx : %4d : 0x%2X , 0x%2X\r\n"
	.size	.L.str, 34

	.type	.L.str.1,%object        @ @.str.1
.L.str.1:
	.asciz	"%s finish \r\n"
	.size	.L.str.1, 13

	.type	.L__FUNCTION__.compare_buffer,%object @ @__FUNCTION__.compare_buffer
.L__FUNCTION__.compare_buffer:
	.asciz	"compare_buffer"
	.size	.L__FUNCTION__.compare_buffer, 15

	.type	.L.str.2,%object        @ @.str.2
.L.str.2:
	.asciz	"dump_buffer : %2d\r\n"
	.size	.L.str.2, 20

	.type	.L.str.3,%object        @ @.str.3
.L.str.3:
	.asciz	"0x%08X,"
	.size	.L.str.3, 8

	.type	.L.str.4,%object        @ @.str.4
.L.str.4:
	.asciz	"\r\n"
	.size	.L.str.4, 3

	.type	.L.str.5,%object        @ @.str.5
.L.str.5:
	.asciz	"\r\n\r\n"
	.size	.L.str.5, 5

	.type	.L.str.6,%object        @ @.str.6
.L.str.6:
	.asciz	"0x%04X  "
	.size	.L.str.6, 9

	.type	.L.str.7,%object        @ @.str.7
.L.str.7:
	.asciz	"%02X "
	.size	.L.str.7, 6

	.type	.L.str.8,%object        @ @.str.8
.L.str.8:
	.asciz	"  "
	.size	.L.str.8, 3

	.type	.L.str.9,%object        @ @.str.9
.L.str.9:
	.asciz	"%c"
	.size	.L.str.9, 3

	.type	.L.str.10,%object       @ @.str.10
.L.str.10:
	.asciz	"."
	.size	.L.str.10, 2

	.type	.L.str.11,%object       @ @.str.11
.L.str.11:
	.asciz	"\n"
	.size	.L.str.11, 2

	.type	.L.str.12,%object       @ @.str.12
.L.str.12:
	.asciz	"invalid command\r\n"
	.size	.L.str.12, 18

	.type	.L.str.13,%object       @ @.str.13
.L.str.13:
	.asciz	"DemoState = %2d\r\n"
	.size	.L.str.13, 18

	.type	.L.str.14,%object       @ @.str.14
.L.str.14:
	.asciz	"\r\nCLK_GetCPUFreq : %8d\r\n"
	.size	.L.str.14, 25

	.type	.L.str.15,%object       @ @.str.15
.L.str.15:
	.asciz	"CLK_GetHXTFreq : %8d\r\n"
	.size	.L.str.15, 23

	.type	.L.str.16,%object       @ @.str.16
.L.str.16:
	.asciz	"CLK_GetLXTFreq : %8d\r\n"
	.size	.L.str.16, 23

	.type	.L.str.17,%object       @ @.str.17
.L.str.17:
	.asciz	"CLK_GetPCLK0Freq : %8d\r\n"
	.size	.L.str.17, 25

	.type	.L.str.18,%object       @ @.str.18
.L.str.18:
	.asciz	"CLK_GetPCLK1Freq : %8d\r\n"
	.size	.L.str.18, 25

	.type	.L.str.19,%object       @ @.str.19
.L.str.19:
	.asciz	"CLK_GetHCLKFreq : %8d\r\n"
	.size	.L.str.19, 24

	.section	".note.GNU-stack","",%progbits
	.eabi_attribute	30, 6	@ Tag_ABI_optimization_goals
	.ARM_attribute	16, 1	@ Tag_AV_eba