	.text
	.syntax unified
	.eabi_attribute	67, "2.09"	@ Tag_conformance
	.cpu	cortex-m23
	.eabi_attribute	6, 16	@ Tag_CPU_arch
	.eabi_attribute	7, 77	@ Tag_CPU_arch_profile
	.eabi_attribute	8, 0	@ Tag_ARM_ISA_use
	.eabi_attribute	9, 3	@ Tag_THUMB_ISA_use
	.eabi_attribute	34, 0	@ Tag_CPU_unaligned_access
	.eabi_attribute	17, 1	@ Tag_ABI_PCS_GOT_use
	.eabi_attribute	20, 2	@ Tag_ABI_FP_denormal
	.eabi_attribute	21, 0	@ Tag_ABI_FP_exceptions
	.eabi_attribute	23, 1	@ Tag_ABI_FP_number_model
	.eabi_attribute	24, 1	@ Tag_ABI_align_needed
	.eabi_attribute	25, 1	@ Tag_ABI_align_preserved
	.eabi_attribute	38, 1	@ Tag_ABI_FP_16bit_format
	.eabi_attribute	18, 2	@ Tag_ABI_PCS_wchar_t
	.eabi_attribute	26, 1	@ Tag_ABI_enum_size
	.eabi_attribute	14, 0	@ Tag_ABI_PCS_R9_use
	.file	"pdma.c"
	.file	1 "C:\\Keil_v5\\ARM\\ARMCLANG\\Bin\\..\\include" "stdint.h"
	.file	2 "../../../Library/StdDriver/src" "pdma.c"
	.file	3 "../../../Library/Device/Nuvoton/NUC1262/Include" "NUC1262.h"
	.section	.text.PDMA_Open,"ax",%progbits
	.hidden	PDMA_Open               @ -- Begin function PDMA_Open
	.globl	PDMA_Open
	.p2align	2
	.type	PDMA_Open,%function
	.code	16                      @ @PDMA_Open
	.thumb_func
PDMA_Open:
.Lfunc_begin0:
	.loc	2 39 0                  @ ../../../Library/StdDriver/src/pdma.c:39:0
	.fnstart
	.cfi_sections .debug_frame
	.cfi_startproc
@ %bb.0:
	.pad	#12
	sub	sp, #12
	.cfi_def_cfa_offset 12
	mov	r1, r0
	str	r0, [sp, #8]
	movs	r0, #0
.Ltmp0:
	.loc	2 42 11 prologue_end    @ ../../../Library/StdDriver/src/pdma.c:42:11
	str	r0, [sp, #4]
	.loc	2 42 9 is_stmt 0        @ ../../../Library/StdDriver/src/pdma.c:42:9
	str	r1, [sp]                @ 4-byte Spill
	b	.LBB0_1
.LBB0_1:                                @ =>This Inner Loop Header: Depth=1
.Ltmp1:
	.loc	2 42 18                 @ ../../../Library/StdDriver/src/pdma.c:42:18
	ldr	r0, [sp, #4]
.Ltmp2:
	.loc	2 42 5                  @ ../../../Library/StdDriver/src/pdma.c:42:5
	cmp	r0, #9
	bhi	.LBB0_6
	b	.LBB0_2
.LBB0_2:                                @   in Loop: Header=BB0_1 Depth=1
.Ltmp3:
	.loc	2 44 18 is_stmt 1       @ ../../../Library/StdDriver/src/pdma.c:44:18
	ldr	r0, [sp, #4]
	.loc	2 44 15 is_stmt 0       @ ../../../Library/StdDriver/src/pdma.c:44:15
	movs	r1, #1
	lsls	r1, r0
	.loc	2 44 23                 @ ../../../Library/StdDriver/src/pdma.c:44:23
	ldr	r0, [sp, #8]
.Ltmp4:
	.loc	2 44 12                 @ ../../../Library/StdDriver/src/pdma.c:44:12
	tst	r1, r0
	beq	.LBB0_4
	b	.LBB0_3
.LBB0_3:                                @   in Loop: Header=BB0_1 Depth=1
.Ltmp5:
	.loc	2 46 24 is_stmt 1       @ ../../../Library/StdDriver/src/pdma.c:46:24
	ldr	r0, [sp, #4]
	.loc	2 46 13 is_stmt 0       @ ../../../Library/StdDriver/src/pdma.c:46:13
	lsls	r0, r0, #4
	ldr	r1, __arm_cp.0_1
	movs	r2, #0
	.loc	2 46 31                 @ ../../../Library/StdDriver/src/pdma.c:46:31
	str	r2, [r0, r1]
	.loc	2 47 16 is_stmt 1       @ ../../../Library/StdDriver/src/pdma.c:47:16
	ldr	r0, [sp, #4]
	.loc	2 47 4 is_stmt 0        @ ../../../Library/StdDriver/src/pdma.c:47:4
	ldr	r1, __arm_cp.0_2
	.loc	2 47 19                 @ ../../../Library/StdDriver/src/pdma.c:47:19
	strb	r2, [r1, r0]
	.loc	2 48 9 is_stmt 1        @ ../../../Library/StdDriver/src/pdma.c:48:9
	b	.LBB0_4
.Ltmp6:
.LBB0_4:                                @   in Loop: Header=BB0_1 Depth=1
	.loc	2 49 5                  @ ../../../Library/StdDriver/src/pdma.c:49:5
	b	.LBB0_5
.Ltmp7:
.LBB0_5:                                @   in Loop: Header=BB0_1 Depth=1
	.loc	2 42 36                 @ ../../../Library/StdDriver/src/pdma.c:42:36
	ldr	r0, [sp, #4]
	adds	r0, r0, #1
	str	r0, [sp, #4]
	.loc	2 42 5 is_stmt 0        @ ../../../Library/StdDriver/src/pdma.c:42:5
	b	.LBB0_1
.Ltmp8:
.LBB0_6:
	.loc	2 51 20 is_stmt 1       @ ../../../Library/StdDriver/src/pdma.c:51:20
	ldr	r0, [sp, #8]
	.loc	2 51 17 is_stmt 0       @ ../../../Library/StdDriver/src/pdma.c:51:17
	ldr	r1, __arm_cp.0_0
	ldr	r2, [r1]
	orrs	r2, r0
	str	r2, [r1]
	.loc	2 52 1 is_stmt 1        @ ../../../Library/StdDriver/src/pdma.c:52:1
	add	sp, #12
	bx	lr
.Ltmp9:
	.p2align	2
@ %bb.7:
	.loc	2 0 1 is_stmt 0         @ ../../../Library/StdDriver/src/pdma.c:0:1
__arm_cp.0_0:
	.long	1342211072              @ 0x50008400
.Lcpi_end0:
	.size	__arm_cp.0_0, .Lcpi_end0-__arm_cp.0_0
__arm_cp.0_1:
	.long	1342210048              @ 0x50008000
.Lcpi_end1:
	.size	__arm_cp.0_1, .Lcpi_end1-__arm_cp.0_1
__arm_cp.0_2:
	.long	u32ChSelect
.Lcpi_end2:
	.size	__arm_cp.0_2, .Lcpi_end2-__arm_cp.0_2
.Lfunc_end0:
	.size	PDMA_Open, .Lfunc_end0-PDMA_Open
	.cfi_endproc
	.cantunwind
	.fnend
                                        @ -- End function
	.section	.text.PDMA_Close,"ax",%progbits
	.hidden	PDMA_Close              @ -- Begin function PDMA_Close
	.globl	PDMA_Close
	.p2align	2
	.type	PDMA_Close,%function
	.code	16                      @ @PDMA_Close
	.thumb_func
PDMA_Close:
.Lfunc_begin1:
	.loc	2 64 0 is_stmt 1        @ ../../../Library/StdDriver/src/pdma.c:64:0
	.fnstart
	.cfi_startproc
@ %bb.0:
	.loc	2 65 17 prologue_end    @ ../../../Library/StdDriver/src/pdma.c:65:17
	ldr	r0, __arm_cp.1_0
	movs	r1, #0
	str	r1, [r0]
	.loc	2 66 1                  @ ../../../Library/StdDriver/src/pdma.c:66:1
	bx	lr
.Ltmp10:
	.p2align	2
@ %bb.1:
	.loc	2 0 1 is_stmt 0         @ ../../../Library/StdDriver/src/pdma.c:0:1
__arm_cp.1_0:
	.long	1342211072              @ 0x50008400
.Lcpi_end3:
	.size	__arm_cp.1_0, .Lcpi_end3-__arm_cp.1_0
.Lfunc_end1:
	.size	PDMA_Close, .Lfunc_end1-PDMA_Close
	.cfi_endproc
	.cantunwind
	.fnend
                                        @ -- End function
	.section	.text.PDMA_SetTransferCnt,"ax",%progbits
	.hidden	PDMA_SetTransferCnt     @ -- Begin function PDMA_SetTransferCnt
	.globl	PDMA_SetTransferCnt
	.p2align	2
	.type	PDMA_SetTransferCnt,%function
	.code	16                      @ @PDMA_SetTransferCnt
	.thumb_func
PDMA_SetTransferCnt:
.Lfunc_begin2:
	.loc	2 83 0 is_stmt 1        @ ../../../Library/StdDriver/src/pdma.c:83:0
	.fnstart
	.cfi_startproc
@ %bb.0:
	.save	{r4, r5, r6, lr}
	push	{r4, r5, r6, lr}
	.cfi_def_cfa_offset 16
	.cfi_offset lr, -4
	.cfi_offset r6, -8
	.cfi_offset r5, -12
	.cfi_offset r4, -16
	.pad	#24
	sub	sp, #24
	.cfi_def_cfa_offset 40
	mov	r3, r2
	mov	r4, r1
	mov	r5, r0
	str	r0, [sp, #20]
	str	r1, [sp, #16]
	str	r2, [sp, #12]
.Ltmp11:
	.loc	2 84 16 prologue_end    @ ../../../Library/StdDriver/src/pdma.c:84:16
	ldr	r0, [sp, #20]
	.loc	2 84 5 is_stmt 0        @ ../../../Library/StdDriver/src/pdma.c:84:5
	lsls	r0, r0, #4
	ldr	r1, __arm_cp.2_0
	.loc	2 84 27                 @ ../../../Library/StdDriver/src/pdma.c:84:27
	ldr	r2, [r0, r1]
	ldr	r6, __arm_cp.2_1
	ands	r2, r6
	str	r2, [r0, r1]
	.loc	2 85 31 is_stmt 1       @ ../../../Library/StdDriver/src/pdma.c:85:31
	ldr	r0, [sp, #16]
	.loc	2 85 44 is_stmt 0       @ ../../../Library/StdDriver/src/pdma.c:85:44
	ldr	r2, [sp, #12]
	.loc	2 85 58                 @ ../../../Library/StdDriver/src/pdma.c:85:58
	lsls	r2, r2, #16
	.loc	2 85 63                 @ ../../../Library/StdDriver/src/pdma.c:85:63
	ldr	r6, __arm_cp.2_2
	adds	r2, r2, r6
	.loc	2 85 40                 @ ../../../Library/StdDriver/src/pdma.c:85:40
	orrs	r0, r2
	.loc	2 85 16                 @ ../../../Library/StdDriver/src/pdma.c:85:16
	ldr	r2, [sp, #20]
	.loc	2 85 5                  @ ../../../Library/StdDriver/src/pdma.c:85:5
	lsls	r2, r2, #4
	.loc	2 85 27                 @ ../../../Library/StdDriver/src/pdma.c:85:27
	ldr	r6, [r2, r1]
	orrs	r6, r0
	str	r6, [r2, r1]
	.loc	2 86 1 is_stmt 1        @ ../../../Library/StdDriver/src/pdma.c:86:1
	str	r3, [sp, #8]            @ 4-byte Spill
	str	r4, [sp, #4]            @ 4-byte Spill
	str	r5, [sp]                @ 4-byte Spill
	add	sp, #24
	pop	{r4, r5, r6, pc}
.Ltmp12:
	.p2align	2
@ %bb.1:
	.loc	2 0 1 is_stmt 0         @ ../../../Library/StdDriver/src/pdma.c:0:1
__arm_cp.2_0:
	.long	1342210048              @ 0x50008000
.Lcpi_end4:
	.size	__arm_cp.2_0, .Lcpi_end4-__arm_cp.2_0
__arm_cp.2_1:
	.long	3221278719              @ 0xc000cfff
.Lcpi_end5:
	.size	__arm_cp.2_1, .Lcpi_end5-__arm_cp.2_1
__arm_cp.2_2:
	.long	4294901760              @ 0xffff0000
.Lcpi_end6:
	.size	__arm_cp.2_2, .Lcpi_end6-__arm_cp.2_2
.Lfunc_end2:
	.size	PDMA_SetTransferCnt, .Lfunc_end2-PDMA_SetTransferCnt
	.cfi_endproc
	.cantunwind
	.fnend
                                        @ -- End function
	.section	.text.PDMA_SetTransferAddr,"ax",%progbits
	.hidden	PDMA_SetTransferAddr    @ -- Begin function PDMA_SetTransferAddr
	.globl	PDMA_SetTransferAddr
	.p2align	2
	.type	PDMA_SetTransferAddr,%function
	.code	16                      @ @PDMA_SetTransferAddr
	.thumb_func
PDMA_SetTransferAddr:
.Lfunc_begin3:
	.loc	2 106 0 is_stmt 1       @ ../../../Library/StdDriver/src/pdma.c:106:0
	.fnstart
	.cfi_startproc
@ %bb.0:
	.save	{r4, r5, r6, r7, lr}
	push	{r4, r5, r6, r7, lr}
	.cfi_def_cfa_offset 20
	.cfi_offset lr, -4
	.cfi_offset r7, -8
	.cfi_offset r6, -12
	.cfi_offset r5, -16
	.cfi_offset r4, -20
	.pad	#40
	sub	sp, #40
	.cfi_def_cfa_offset 60
	ldr	r4, [sp, #60]
	mov	r5, r3
	mov	r6, r2
	mov	r7, r1
	str	r0, [sp, #20]           @ 4-byte Spill
	str	r0, [sp, #16]           @ 4-byte Spill
	ldr	r0, [sp, #20]           @ 4-byte Reload
	str	r0, [sp, #36]
	str	r1, [sp, #32]
	str	r2, [sp, #28]
	str	r3, [sp, #24]
.Ltmp13:
	.loc	2 107 28 prologue_end   @ ../../../Library/StdDriver/src/pdma.c:107:28
	ldr	r1, [sp, #32]
	.loc	2 107 16 is_stmt 0      @ ../../../Library/StdDriver/src/pdma.c:107:16
	ldr	r2, [sp, #36]
	.loc	2 107 5                 @ ../../../Library/StdDriver/src/pdma.c:107:5
	lsls	r2, r2, #4
	.loc	2 107 23                @ ../../../Library/StdDriver/src/pdma.c:107:23
	ldr	r3, __arm_cp.3_0
	.loc	2 107 26                @ ../../../Library/StdDriver/src/pdma.c:107:26
	str	r1, [r2, r3]
	.loc	2 108 28 is_stmt 1      @ ../../../Library/StdDriver/src/pdma.c:108:28
	ldr	r1, [sp, #24]
	.loc	2 108 16 is_stmt 0      @ ../../../Library/StdDriver/src/pdma.c:108:16
	ldr	r2, [sp, #36]
	.loc	2 108 5                 @ ../../../Library/StdDriver/src/pdma.c:108:5
	lsls	r2, r2, #4
	.loc	2 108 23                @ ../../../Library/StdDriver/src/pdma.c:108:23
	ldr	r3, __arm_cp.3_1
	.loc	2 108 26                @ ../../../Library/StdDriver/src/pdma.c:108:26
	str	r1, [r2, r3]
	.loc	2 109 16 is_stmt 1      @ ../../../Library/StdDriver/src/pdma.c:109:16
	ldr	r1, [sp, #36]
	.loc	2 109 5 is_stmt 0       @ ../../../Library/StdDriver/src/pdma.c:109:5
	lsls	r1, r1, #4
	.loc	2 107 5 is_stmt 1       @ ../../../Library/StdDriver/src/pdma.c:107:5
	ldr	r2, __arm_cp.3_2
	.loc	2 109 27                @ ../../../Library/StdDriver/src/pdma.c:109:27
	ldr	r3, [r1, r2]
	movw	r0, #3840
	bics	r3, r0
	str	r3, [r1, r2]
	.loc	2 110 31                @ ../../../Library/StdDriver/src/pdma.c:110:31
	ldr	r0, [sp, #28]
	.loc	2 110 44 is_stmt 0      @ ../../../Library/StdDriver/src/pdma.c:110:44
	ldr	r1, [sp, #60]
	.loc	2 110 42                @ ../../../Library/StdDriver/src/pdma.c:110:42
	orrs	r0, r1
	.loc	2 110 16                @ ../../../Library/StdDriver/src/pdma.c:110:16
	ldr	r1, [sp, #36]
	.loc	2 110 5                 @ ../../../Library/StdDriver/src/pdma.c:110:5
	lsls	r1, r1, #4
	.loc	2 110 27                @ ../../../Library/StdDriver/src/pdma.c:110:27
	ldr	r3, [r1, r2]
	orrs	r3, r0
	str	r3, [r1, r2]
	.loc	2 111 1 is_stmt 1       @ ../../../Library/StdDriver/src/pdma.c:111:1
	str	r5, [sp, #12]           @ 4-byte Spill
	str	r6, [sp, #8]            @ 4-byte Spill
	str	r7, [sp, #4]            @ 4-byte Spill
	str	r4, [sp]                @ 4-byte Spill
	add	sp, #40
	pop	{r4, r5, r6, r7, pc}
.Ltmp14:
	.p2align	2
@ %bb.1:
	.loc	2 0 1 is_stmt 0         @ ../../../Library/StdDriver/src/pdma.c:0:1
__arm_cp.3_0:
	.long	1342210052              @ 0x50008004
.Lcpi_end7:
	.size	__arm_cp.3_0, .Lcpi_end7-__arm_cp.3_0
__arm_cp.3_1:
	.long	1342210056              @ 0x50008008
.Lcpi_end8:
	.size	__arm_cp.3_1, .Lcpi_end8-__arm_cp.3_1
__arm_cp.3_2:
	.long	1342210048              @ 0x50008000
.Lcpi_end9:
	.size	__arm_cp.3_2, .Lcpi_end9-__arm_cp.3_2
.Lfunc_end3:
	.size	PDMA_SetTransferAddr, .Lfunc_end3-PDMA_SetTransferAddr
	.cfi_endproc
	.cantunwind
	.fnend
                                        @ -- End function
	.section	.text.PDMA_SetTransferMode,"ax",%progbits
	.hidden	PDMA_SetTransferMode    @ -- Begin function PDMA_SetTransferMode
	.globl	PDMA_SetTransferMode
	.p2align	2
	.type	PDMA_SetTransferMode,%function
	.code	16                      @ @PDMA_SetTransferMode
	.thumb_func
PDMA_SetTransferMode:
.Lfunc_begin4:
	.loc	2 158 0 is_stmt 1       @ ../../../Library/StdDriver/src/pdma.c:158:0
	.fnstart
	.cfi_startproc
@ %bb.0:
	.save	{r4, r5, r6, r7, lr}
	push	{r4, r5, r6, r7, lr}
	.cfi_def_cfa_offset 20
	.cfi_offset lr, -4
	.cfi_offset r7, -8
	.cfi_offset r6, -12
	.cfi_offset r5, -16
	.cfi_offset r4, -20
	.pad	#36
	sub	sp, #36
	.cfi_def_cfa_offset 56
	mov	r4, r3
	mov	r5, r2
	mov	r6, r1
	mov	r7, r0
	str	r0, [sp, #32]
	str	r1, [sp, #28]
	str	r2, [sp, #24]
	str	r3, [sp, #20]
.Ltmp15:
	.loc	2 159 35 prologue_end   @ ../../../Library/StdDriver/src/pdma.c:159:35
	ldr	r0, [sp, #28]
	.loc	2 159 17 is_stmt 0      @ ../../../Library/StdDriver/src/pdma.c:159:17
	ldr	r1, [sp, #32]
	.loc	2 159 5                 @ ../../../Library/StdDriver/src/pdma.c:159:5
	ldr	r2, __arm_cp.4_0
	.loc	2 159 24                @ ../../../Library/StdDriver/src/pdma.c:159:24
	strb	r0, [r2, r1]
	.loc	2 160 12 is_stmt 1      @ ../../../Library/StdDriver/src/pdma.c:160:12
	ldr	r0, [sp, #32]
	.loc	2 160 5 is_stmt 0       @ ../../../Library/StdDriver/src/pdma.c:160:5
	cmp	r0, #9
	str	r4, [sp, #16]           @ 4-byte Spill
	str	r5, [sp, #12]           @ 4-byte Spill
	str	r6, [sp, #8]            @ 4-byte Spill
	str	r7, [sp, #4]            @ 4-byte Spill
	str	r0, [sp]                @ 4-byte Spill
	bhi	.LBB4_13
@ %bb.1:
	.loc	2 0 5                   @ ../../../Library/StdDriver/src/pdma.c:0:5
	ldr	r0, [sp]                @ 4-byte Reload
	lsls	r1, r0, #2
	adr	r2, .LJTI4_0
	adds	r1, r2, r1
	mov	pc, r1
@ %bb.2:
	.p2align	2
.LJTI4_0:
	b.w	.LBB4_3
	b.w	.LBB4_4
	b.w	.LBB4_5
	b.w	.LBB4_6
	b.w	.LBB4_7
	b.w	.LBB4_8
	b.w	.LBB4_9
	b.w	.LBB4_10
	b.w	.LBB4_11
	b.w	.LBB4_12
.LBB4_3:
.Ltmp16:
	.loc	2 163 38 is_stmt 1      @ ../../../Library/StdDriver/src/pdma.c:163:38
	ldr	r0, __arm_cp.4_3
	ldr	r1, [r0]
	.loc	2 163 48 is_stmt 0      @ ../../../Library/StdDriver/src/pdma.c:163:48
	movs	r2, #63
	bics	r1, r2
	.loc	2 163 81                @ ../../../Library/StdDriver/src/pdma.c:163:81
	ldr	r2, [sp, #28]
	.loc	2 163 79                @ ../../../Library/StdDriver/src/pdma.c:163:79
	orrs	r1, r2
	.loc	2 163 29                @ ../../../Library/StdDriver/src/pdma.c:163:29
	str	r1, [r0]
	.loc	2 164 13 is_stmt 1      @ ../../../Library/StdDriver/src/pdma.c:164:13
	b	.LBB4_14
.LBB4_4:
	.loc	2 166 38                @ ../../../Library/StdDriver/src/pdma.c:166:38
	ldr	r0, __arm_cp.4_3
	ldr	r1, [r0]
	.loc	2 166 48 is_stmt 0      @ ../../../Library/StdDriver/src/pdma.c:166:48
	movw	r2, #16128
	bics	r1, r2
	.loc	2 166 82                @ ../../../Library/StdDriver/src/pdma.c:166:82
	ldr	r2, [sp, #28]
	.loc	2 166 96                @ ../../../Library/StdDriver/src/pdma.c:166:96
	lsls	r2, r2, #8
	.loc	2 166 79                @ ../../../Library/StdDriver/src/pdma.c:166:79
	orrs	r1, r2
	.loc	2 166 29                @ ../../../Library/StdDriver/src/pdma.c:166:29
	str	r1, [r0]
	.loc	2 167 13 is_stmt 1      @ ../../../Library/StdDriver/src/pdma.c:167:13
	b	.LBB4_14
.LBB4_5:
	.loc	2 169 38                @ ../../../Library/StdDriver/src/pdma.c:169:38
	ldr	r0, __arm_cp.4_3
	ldr	r1, [r0]
	.loc	2 169 48 is_stmt 0      @ ../../../Library/StdDriver/src/pdma.c:169:48
	movs	r2, #63
	lsls	r2, r2, #16
	bics	r1, r2
	.loc	2 169 82                @ ../../../Library/StdDriver/src/pdma.c:169:82
	ldr	r2, [sp, #28]
	.loc	2 169 96                @ ../../../Library/StdDriver/src/pdma.c:169:96
	lsls	r2, r2, #16
	.loc	2 169 79                @ ../../../Library/StdDriver/src/pdma.c:169:79
	orrs	r1, r2
	.loc	2 169 29                @ ../../../Library/StdDriver/src/pdma.c:169:29
	str	r1, [r0]
	.loc	2 170 13 is_stmt 1      @ ../../../Library/StdDriver/src/pdma.c:170:13
	b	.LBB4_14
.LBB4_6:
	.loc	2 172 38                @ ../../../Library/StdDriver/src/pdma.c:172:38
	ldr	r0, __arm_cp.4_3
	ldr	r1, [r0]
	.loc	2 172 48 is_stmt 0      @ ../../../Library/StdDriver/src/pdma.c:172:48
	movs	r2, #63
	lsls	r2, r2, #24
	bics	r1, r2
	.loc	2 172 82                @ ../../../Library/StdDriver/src/pdma.c:172:82
	ldr	r2, [sp, #28]
	.loc	2 172 96                @ ../../../Library/StdDriver/src/pdma.c:172:96
	lsls	r2, r2, #24
	.loc	2 172 79                @ ../../../Library/StdDriver/src/pdma.c:172:79
	orrs	r1, r2
	.loc	2 172 29                @ ../../../Library/StdDriver/src/pdma.c:172:29
	str	r1, [r0]
	.loc	2 173 13 is_stmt 1      @ ../../../Library/StdDriver/src/pdma.c:173:13
	b	.LBB4_14
.LBB4_7:
	.loc	2 175 38                @ ../../../Library/StdDriver/src/pdma.c:175:38
	ldr	r0, __arm_cp.4_2
	ldr	r1, [r0]
	.loc	2 175 48 is_stmt 0      @ ../../../Library/StdDriver/src/pdma.c:175:48
	movs	r2, #63
	bics	r1, r2
	.loc	2 175 81                @ ../../../Library/StdDriver/src/pdma.c:175:81
	ldr	r2, [sp, #28]
	.loc	2 175 79                @ ../../../Library/StdDriver/src/pdma.c:175:79
	orrs	r1, r2
	.loc	2 175 29                @ ../../../Library/StdDriver/src/pdma.c:175:29
	str	r1, [r0]
	.loc	2 176 13 is_stmt 1      @ ../../../Library/StdDriver/src/pdma.c:176:13
	b	.LBB4_14
.LBB4_8:
	.loc	2 178 38                @ ../../../Library/StdDriver/src/pdma.c:178:38
	ldr	r0, __arm_cp.4_2
	ldr	r1, [r0]
	.loc	2 178 48 is_stmt 0      @ ../../../Library/StdDriver/src/pdma.c:178:48
	movw	r2, #16128
	bics	r1, r2
	.loc	2 178 82                @ ../../../Library/StdDriver/src/pdma.c:178:82
	ldr	r2, [sp, #28]
	.loc	2 178 96                @ ../../../Library/StdDriver/src/pdma.c:178:96
	lsls	r2, r2, #8
	.loc	2 178 79                @ ../../../Library/StdDriver/src/pdma.c:178:79
	orrs	r1, r2
	.loc	2 178 29                @ ../../../Library/StdDriver/src/pdma.c:178:29
	str	r1, [r0]
	.loc	2 179 13 is_stmt 1      @ ../../../Library/StdDriver/src/pdma.c:179:13
	b	.LBB4_14
.LBB4_9:
	.loc	2 181 38                @ ../../../Library/StdDriver/src/pdma.c:181:38
	ldr	r0, __arm_cp.4_2
	ldr	r1, [r0]
	.loc	2 181 48 is_stmt 0      @ ../../../Library/StdDriver/src/pdma.c:181:48
	movs	r2, #63
	lsls	r2, r2, #16
	bics	r1, r2
	.loc	2 181 82                @ ../../../Library/StdDriver/src/pdma.c:181:82
	ldr	r2, [sp, #28]
	.loc	2 181 96                @ ../../../Library/StdDriver/src/pdma.c:181:96
	lsls	r2, r2, #16
	.loc	2 181 79                @ ../../../Library/StdDriver/src/pdma.c:181:79
	orrs	r1, r2
	.loc	2 181 29                @ ../../../Library/StdDriver/src/pdma.c:181:29
	str	r1, [r0]
	.loc	2 182 13 is_stmt 1      @ ../../../Library/StdDriver/src/pdma.c:182:13
	b	.LBB4_14
.LBB4_10:
	.loc	2 184 38                @ ../../../Library/StdDriver/src/pdma.c:184:38
	ldr	r0, __arm_cp.4_2
	ldr	r1, [r0]
	.loc	2 184 48 is_stmt 0      @ ../../../Library/StdDriver/src/pdma.c:184:48
	movs	r2, #63
	lsls	r2, r2, #24
	bics	r1, r2
	.loc	2 184 82                @ ../../../Library/StdDriver/src/pdma.c:184:82
	ldr	r2, [sp, #28]
	.loc	2 184 96                @ ../../../Library/StdDriver/src/pdma.c:184:96
	lsls	r2, r2, #24
	.loc	2 184 79                @ ../../../Library/StdDriver/src/pdma.c:184:79
	orrs	r1, r2
	.loc	2 184 29                @ ../../../Library/StdDriver/src/pdma.c:184:29
	str	r1, [r0]
	.loc	2 185 13 is_stmt 1      @ ../../../Library/StdDriver/src/pdma.c:185:13
	b	.LBB4_14
.LBB4_11:
	.loc	2 187 38                @ ../../../Library/StdDriver/src/pdma.c:187:38
	ldr	r0, __arm_cp.4_1
	ldr	r1, [r0]
	.loc	2 187 48 is_stmt 0      @ ../../../Library/StdDriver/src/pdma.c:187:48
	movs	r2, #63
	bics	r1, r2
	.loc	2 187 81                @ ../../../Library/StdDriver/src/pdma.c:187:81
	ldr	r2, [sp, #28]
	.loc	2 187 79                @ ../../../Library/StdDriver/src/pdma.c:187:79
	orrs	r1, r2
	.loc	2 187 29                @ ../../../Library/StdDriver/src/pdma.c:187:29
	str	r1, [r0]
	.loc	2 188 13 is_stmt 1      @ ../../../Library/StdDriver/src/pdma.c:188:13
	b	.LBB4_14
.LBB4_12:
	.loc	2 190 38                @ ../../../Library/StdDriver/src/pdma.c:190:38
	ldr	r0, __arm_cp.4_1
	ldr	r1, [r0]
	.loc	2 190 48 is_stmt 0      @ ../../../Library/StdDriver/src/pdma.c:190:48
	movw	r2, #16128
	bics	r1, r2
	.loc	2 190 82                @ ../../../Library/StdDriver/src/pdma.c:190:82
	ldr	r2, [sp, #28]
	.loc	2 190 96                @ ../../../Library/StdDriver/src/pdma.c:190:96
	lsls	r2, r2, #8
	.loc	2 190 79                @ ../../../Library/StdDriver/src/pdma.c:190:79
	orrs	r1, r2
	.loc	2 190 29                @ ../../../Library/StdDriver/src/pdma.c:190:29
	str	r1, [r0]
	.loc	2 190 13                @ ../../../Library/StdDriver/src/pdma.c:190:13
	b	.LBB4_13
.LBB4_13:
	.loc	2 193 5 is_stmt 1       @ ../../../Library/StdDriver/src/pdma.c:193:5
	b	.LBB4_14
.Ltmp17:
.LBB4_14:
	.loc	2 195 8                 @ ../../../Library/StdDriver/src/pdma.c:195:8
	ldr	r0, [sp, #24]
.Ltmp18:
	.loc	2 195 8 is_stmt 0       @ ../../../Library/StdDriver/src/pdma.c:195:8
	cmp	r0, #0
	beq	.LBB4_16
	b	.LBB4_15
.LBB4_15:
.Ltmp19:
	.loc	2 197 45 is_stmt 1      @ ../../../Library/StdDriver/src/pdma.c:197:45
	ldr	r0, [sp, #32]
	.loc	2 197 34 is_stmt 0      @ ../../../Library/StdDriver/src/pdma.c:197:34
	lsls	r0, r0, #4
	ldr	r1, __arm_cp.4_4
	.loc	2 197 52                @ ../../../Library/StdDriver/src/pdma.c:197:52
	ldr	r0, [r0, r1]
	.loc	2 197 56                @ ../../../Library/StdDriver/src/pdma.c:197:56
	movs	r2, #3
	bics	r0, r2
	.loc	2 197 85                @ ../../../Library/StdDriver/src/pdma.c:197:85
	movs	r2, #2
	orrs	r0, r2
	.loc	2 197 20                @ ../../../Library/StdDriver/src/pdma.c:197:20
	ldr	r2, [sp, #32]
	.loc	2 197 9                 @ ../../../Library/StdDriver/src/pdma.c:197:9
	lsls	r2, r2, #4
	.loc	2 197 31                @ ../../../Library/StdDriver/src/pdma.c:197:31
	str	r0, [r2, r1]
	.loc	2 198 35 is_stmt 1      @ ../../../Library/StdDriver/src/pdma.c:198:35
	ldr	r0, [sp, #20]
	.loc	2 198 56 is_stmt 0      @ ../../../Library/StdDriver/src/pdma.c:198:56
	ldr	r1, __arm_cp.4_5
	ldr	r1, [r1]
	.loc	2 198 47                @ ../../../Library/StdDriver/src/pdma.c:198:47
	subs	r0, r0, r1
	.loc	2 198 20                @ ../../../Library/StdDriver/src/pdma.c:198:20
	ldr	r1, [sp, #32]
	.loc	2 198 9                 @ ../../../Library/StdDriver/src/pdma.c:198:9
	lsls	r1, r1, #4
	.loc	2 198 27                @ ../../../Library/StdDriver/src/pdma.c:198:27
	ldr	r2, __arm_cp.4_6
	.loc	2 198 33                @ ../../../Library/StdDriver/src/pdma.c:198:33
	str	r0, [r1, r2]
	.loc	2 199 5 is_stmt 1       @ ../../../Library/StdDriver/src/pdma.c:199:5
	b	.LBB4_17
.Ltmp20:
.LBB4_16:
	.loc	2 201 45                @ ../../../Library/StdDriver/src/pdma.c:201:45
	ldr	r0, [sp, #32]
	.loc	2 201 34 is_stmt 0      @ ../../../Library/StdDriver/src/pdma.c:201:34
	lsls	r0, r0, #4
	ldr	r1, __arm_cp.4_4
	.loc	2 201 52                @ ../../../Library/StdDriver/src/pdma.c:201:52
	ldr	r0, [r0, r1]
	.loc	2 201 56                @ ../../../Library/StdDriver/src/pdma.c:201:56
	movs	r2, #3
	bics	r0, r2
	.loc	2 201 85                @ ../../../Library/StdDriver/src/pdma.c:201:85
	movs	r2, #1
	orrs	r0, r2
	.loc	2 201 20                @ ../../../Library/StdDriver/src/pdma.c:201:20
	ldr	r2, [sp, #32]
	.loc	2 201 9                 @ ../../../Library/StdDriver/src/pdma.c:201:9
	lsls	r2, r2, #4
	.loc	2 201 31                @ ../../../Library/StdDriver/src/pdma.c:201:31
	str	r0, [r2, r1]
	b	.LBB4_17
.Ltmp21:
.LBB4_17:
	.loc	2 202 1 is_stmt 1       @ ../../../Library/StdDriver/src/pdma.c:202:1
	add	sp, #36
	pop	{r4, r5, r6, r7, pc}
.Ltmp22:
	.p2align	2
@ %bb.18:
	.loc	2 0 1 is_stmt 0         @ ../../../Library/StdDriver/src/pdma.c:0:1
__arm_cp.4_0:
	.long	u32ChSelect
.Lcpi_end10:
	.size	__arm_cp.4_0, .Lcpi_end10-__arm_cp.4_0
__arm_cp.4_1:
	.long	1342211208              @ 0x50008488
.Lcpi_end11:
	.size	__arm_cp.4_1, .Lcpi_end11-__arm_cp.4_1
__arm_cp.4_2:
	.long	1342211204              @ 0x50008484
.Lcpi_end12:
	.size	__arm_cp.4_2, .Lcpi_end12-__arm_cp.4_2
__arm_cp.4_3:
	.long	1342211200              @ 0x50008480
.Lcpi_end13:
	.size	__arm_cp.4_3, .Lcpi_end13-__arm_cp.4_3
__arm_cp.4_4:
	.long	1342210048              @ 0x50008000
.Lcpi_end14:
	.size	__arm_cp.4_4, .Lcpi_end14-__arm_cp.4_4
__arm_cp.4_5:
	.long	1342211132              @ 0x5000843c
.Lcpi_end15:
	.size	__arm_cp.4_5, .Lcpi_end15-__arm_cp.4_5
__arm_cp.4_6:
	.long	1342210060              @ 0x5000800c
.Lcpi_end16:
	.size	__arm_cp.4_6, .Lcpi_end16-__arm_cp.4_6
.Lfunc_end4:
	.size	PDMA_SetTransferMode, .Lfunc_end4-PDMA_SetTransferMode
	.cfi_endproc
	.cantunwind
	.fnend
                                        @ -- End function
	.section	.text.PDMA_SetBurstType,"ax",%progbits
	.hidden	PDMA_SetBurstType       @ -- Begin function PDMA_SetBurstType
	.globl	PDMA_SetBurstType
	.p2align	2
	.type	PDMA_SetBurstType,%function
	.code	16                      @ @PDMA_SetBurstType
	.thumb_func
PDMA_SetBurstType:
.Lfunc_begin5:
	.loc	2 226 0 is_stmt 1       @ ../../../Library/StdDriver/src/pdma.c:226:0
	.fnstart
	.cfi_startproc
@ %bb.0:
	.save	{r4, r5, r6, lr}
	push	{r4, r5, r6, lr}
	.cfi_def_cfa_offset 16
	.cfi_offset lr, -4
	.cfi_offset r6, -8
	.cfi_offset r5, -12
	.cfi_offset r4, -16
	.pad	#24
	sub	sp, #24
	.cfi_def_cfa_offset 40
	mov	r3, r2
	mov	r4, r1
	mov	r5, r0
	str	r0, [sp, #20]
	str	r1, [sp, #16]
	str	r2, [sp, #12]
.Ltmp23:
	.loc	2 227 16 prologue_end   @ ../../../Library/StdDriver/src/pdma.c:227:16
	ldr	r0, [sp, #20]
	.loc	2 227 5 is_stmt 0       @ ../../../Library/StdDriver/src/pdma.c:227:5
	lsls	r0, r0, #4
	ldr	r1, __arm_cp.5_0
	.loc	2 227 27                @ ../../../Library/StdDriver/src/pdma.c:227:27
	ldr	r2, [r0, r1]
	movs	r6, #116
	bics	r2, r6
	str	r2, [r0, r1]
	.loc	2 228 31 is_stmt 1      @ ../../../Library/StdDriver/src/pdma.c:228:31
	ldr	r0, [sp, #16]
	.loc	2 228 46 is_stmt 0      @ ../../../Library/StdDriver/src/pdma.c:228:46
	ldr	r2, [sp, #12]
	.loc	2 228 44                @ ../../../Library/StdDriver/src/pdma.c:228:44
	orrs	r0, r2
	.loc	2 228 16                @ ../../../Library/StdDriver/src/pdma.c:228:16
	ldr	r2, [sp, #20]
	.loc	2 228 5                 @ ../../../Library/StdDriver/src/pdma.c:228:5
	lsls	r2, r2, #4
	.loc	2 228 27                @ ../../../Library/StdDriver/src/pdma.c:228:27
	ldr	r6, [r2, r1]
	orrs	r6, r0
	str	r6, [r2, r1]
	.loc	2 229 1 is_stmt 1       @ ../../../Library/StdDriver/src/pdma.c:229:1
	str	r3, [sp, #8]            @ 4-byte Spill
	str	r4, [sp, #4]            @ 4-byte Spill
	str	r5, [sp]                @ 4-byte Spill
	add	sp, #24
	pop	{r4, r5, r6, pc}
.Ltmp24:
	.p2align	2
@ %bb.1:
	.loc	2 0 1 is_stmt 0         @ ../../../Library/StdDriver/src/pdma.c:0:1
__arm_cp.5_0:
	.long	1342210048              @ 0x50008000
.Lcpi_end17:
	.size	__arm_cp.5_0, .Lcpi_end17-__arm_cp.5_0
.Lfunc_end5:
	.size	PDMA_SetBurstType, .Lfunc_end5-PDMA_SetBurstType
	.cfi_endproc
	.cantunwind
	.fnend
                                        @ -- End function
	.section	.text.PDMA_EnableTimeout,"ax",%progbits
	.hidden	PDMA_EnableTimeout      @ -- Begin function PDMA_EnableTimeout
	.globl	PDMA_EnableTimeout
	.p2align	2
	.type	PDMA_EnableTimeout,%function
	.code	16                      @ @PDMA_EnableTimeout
	.thumb_func
PDMA_EnableTimeout:
.Lfunc_begin6:
	.loc	2 242 0 is_stmt 1       @ ../../../Library/StdDriver/src/pdma.c:242:0
	.fnstart
	.cfi_startproc
@ %bb.0:
	.pad	#8
	sub	sp, #8
	.cfi_def_cfa_offset 8
	mov	r1, r0
	str	r0, [sp, #4]
.Ltmp25:
	.loc	2 243 21 prologue_end   @ ../../../Library/StdDriver/src/pdma.c:243:21
	ldr	r0, [sp, #4]
	.loc	2 243 18 is_stmt 0      @ ../../../Library/StdDriver/src/pdma.c:243:18
	ldr	r2, __arm_cp.6_0
	ldr	r3, [r2]
	orrs	r3, r0
	str	r3, [r2]
	.loc	2 244 1 is_stmt 1       @ ../../../Library/StdDriver/src/pdma.c:244:1
	str	r1, [sp]                @ 4-byte Spill
	add	sp, #8
	bx	lr
.Ltmp26:
	.p2align	2
@ %bb.1:
	.loc	2 0 1 is_stmt 0         @ ../../../Library/StdDriver/src/pdma.c:0:1
__arm_cp.6_0:
	.long	1342211124              @ 0x50008434
.Lcpi_end18:
	.size	__arm_cp.6_0, .Lcpi_end18-__arm_cp.6_0
.Lfunc_end6:
	.size	PDMA_EnableTimeout, .Lfunc_end6-PDMA_EnableTimeout
	.cfi_endproc
	.cantunwind
	.fnend
                                        @ -- End function
	.section	.text.PDMA_DisableTimeout,"ax",%progbits
	.hidden	PDMA_DisableTimeout     @ -- Begin function PDMA_DisableTimeout
	.globl	PDMA_DisableTimeout
	.p2align	2
	.type	PDMA_DisableTimeout,%function
	.code	16                      @ @PDMA_DisableTimeout
	.thumb_func
PDMA_DisableTimeout:
.Lfunc_begin7:
	.loc	2 257 0 is_stmt 1       @ ../../../Library/StdDriver/src/pdma.c:257:0
	.fnstart
	.cfi_startproc
@ %bb.0:
	.pad	#8
	sub	sp, #8
	.cfi_def_cfa_offset 8
	mov	r1, r0
	str	r0, [sp, #4]
.Ltmp27:
	.loc	2 258 22 prologue_end   @ ../../../Library/StdDriver/src/pdma.c:258:22
	ldr	r0, [sp, #4]
	.loc	2 258 18 is_stmt 0      @ ../../../Library/StdDriver/src/pdma.c:258:18
	ldr	r2, __arm_cp.7_0
	ldr	r3, [r2]
	bics	r3, r0
	str	r3, [r2]
	.loc	2 259 1 is_stmt 1       @ ../../../Library/StdDriver/src/pdma.c:259:1
	str	r1, [sp]                @ 4-byte Spill
	add	sp, #8
	bx	lr
.Ltmp28:
	.p2align	2
@ %bb.1:
	.loc	2 0 1 is_stmt 0         @ ../../../Library/StdDriver/src/pdma.c:0:1
__arm_cp.7_0:
	.long	1342211124              @ 0x50008434
.Lcpi_end19:
	.size	__arm_cp.7_0, .Lcpi_end19-__arm_cp.7_0
.Lfunc_end7:
	.size	PDMA_DisableTimeout, .Lfunc_end7-PDMA_DisableTimeout
	.cfi_endproc
	.cantunwind
	.fnend
                                        @ -- End function
	.section	.text.PDMA_SetTimeOut,"ax",%progbits
	.hidden	PDMA_SetTimeOut         @ -- Begin function PDMA_SetTimeOut
	.globl	PDMA_SetTimeOut
	.p2align	2
	.type	PDMA_SetTimeOut,%function
	.code	16                      @ @PDMA_SetTimeOut
	.thumb_func
PDMA_SetTimeOut:
.Lfunc_begin8:
	.loc	2 274 0 is_stmt 1       @ ../../../Library/StdDriver/src/pdma.c:274:0
	.fnstart
	.cfi_startproc
@ %bb.0:
	.save	{r4, r5, r7, lr}
	push	{r4, r5, r7, lr}
	.cfi_def_cfa_offset 16
	.cfi_offset lr, -4
	.cfi_offset r7, -8
	.cfi_offset r5, -12
	.cfi_offset r4, -16
	.pad	#28
	sub	sp, #28
	.cfi_def_cfa_offset 44
	mov	r3, r2
	mov	r4, r1
	mov	r5, r0
	str	r0, [sp, #24]
	str	r1, [sp, #20]
	str	r2, [sp, #16]
.Ltmp29:
	.loc	2 275 12 prologue_end   @ ../../../Library/StdDriver/src/pdma.c:275:12
	ldr	r0, [sp, #24]
	.loc	2 275 5 is_stmt 0       @ ../../../Library/StdDriver/src/pdma.c:275:5
	cmp	r0, #0
	str	r3, [sp, #12]           @ 4-byte Spill
	str	r4, [sp, #8]            @ 4-byte Spill
	str	r5, [sp, #4]            @ 4-byte Spill
	str	r0, [sp]                @ 4-byte Spill
	beq	.LBB8_2
	b	.LBB8_1
.LBB8_1:
	ldr	r0, [sp]                @ 4-byte Reload
	cmp	r0, #1
	beq	.LBB8_3
	b	.LBB8_4
.LBB8_2:
.Ltmp30:
	.loc	2 278 35 is_stmt 1      @ ../../../Library/StdDriver/src/pdma.c:278:35
	ldr	r0, __arm_cp.8_0
	ldr	r1, [r0]
	.loc	2 278 42 is_stmt 0      @ ../../../Library/StdDriver/src/pdma.c:278:42
	ldr	r2, __arm_cp.8_1
	ands	r1, r2
	.loc	2 278 69                @ ../../../Library/StdDriver/src/pdma.c:278:69
	ldr	r2, [sp, #16]
	.loc	2 278 67                @ ../../../Library/StdDriver/src/pdma.c:278:67
	orrs	r1, r2
	.loc	2 278 26                @ ../../../Library/StdDriver/src/pdma.c:278:26
	str	r1, [r0]
	.loc	2 279 13 is_stmt 1      @ ../../../Library/StdDriver/src/pdma.c:279:13
	b	.LBB8_5
.LBB8_3:
	.loc	2 281 35                @ ../../../Library/StdDriver/src/pdma.c:281:35
	ldr	r0, __arm_cp.8_0
	ldr	r1, [r0]
	.loc	2 281 42 is_stmt 0      @ ../../../Library/StdDriver/src/pdma.c:281:42
	uxth	r1, r1
	.loc	2 281 70                @ ../../../Library/StdDriver/src/pdma.c:281:70
	ldr	r2, [sp, #16]
	.loc	2 281 84                @ ../../../Library/StdDriver/src/pdma.c:281:84
	lsls	r2, r2, #16
	.loc	2 281 67                @ ../../../Library/StdDriver/src/pdma.c:281:67
	orrs	r1, r2
	.loc	2 281 26                @ ../../../Library/StdDriver/src/pdma.c:281:26
	str	r1, [r0]
	.loc	2 282 13 is_stmt 1      @ ../../../Library/StdDriver/src/pdma.c:282:13
	b	.LBB8_5
.LBB8_4:
	.loc	2 286 5                 @ ../../../Library/StdDriver/src/pdma.c:286:5
	b	.LBB8_5
.Ltmp31:
.LBB8_5:
	.loc	2 287 8                 @ ../../../Library/StdDriver/src/pdma.c:287:8
	ldr	r0, [sp, #20]
.Ltmp32:
	.loc	2 287 8 is_stmt 0       @ ../../../Library/StdDriver/src/pdma.c:287:8
	cmp	r0, #0
	beq	.LBB8_7
	b	.LBB8_6
.LBB8_6:
.Ltmp33:
	.loc	2 288 31 is_stmt 1      @ ../../../Library/StdDriver/src/pdma.c:288:31
	ldr	r0, [sp, #24]
	.loc	2 288 28 is_stmt 0      @ ../../../Library/StdDriver/src/pdma.c:288:28
	movs	r1, #1
	lsls	r1, r0
	.loc	2 288 22                @ ../../../Library/StdDriver/src/pdma.c:288:22
	ldr	r0, __arm_cp.8_2
	ldr	r2, [r0]
	orrs	r2, r1
	str	r2, [r0]
	.loc	2 288 9                 @ ../../../Library/StdDriver/src/pdma.c:288:9
	b	.LBB8_8
.LBB8_7:
	.loc	2 290 32 is_stmt 1      @ ../../../Library/StdDriver/src/pdma.c:290:32
	ldr	r0, [sp, #24]
	.loc	2 290 29 is_stmt 0      @ ../../../Library/StdDriver/src/pdma.c:290:29
	movs	r1, #1
	lsls	r1, r0
	.loc	2 290 22                @ ../../../Library/StdDriver/src/pdma.c:290:22
	ldr	r0, __arm_cp.8_2
	ldr	r2, [r0]
	bics	r2, r1
	str	r2, [r0]
	b	.LBB8_8
.Ltmp34:
.LBB8_8:
	.loc	2 291 1 is_stmt 1       @ ../../../Library/StdDriver/src/pdma.c:291:1
	add	sp, #28
	pop	{r4, r5, r7, pc}
.Ltmp35:
	.p2align	2
@ %bb.9:
	.loc	2 0 1 is_stmt 0         @ ../../../Library/StdDriver/src/pdma.c:0:1
__arm_cp.8_0:
	.long	1342211136              @ 0x50008440
.Lcpi_end20:
	.size	__arm_cp.8_0, .Lcpi_end20-__arm_cp.8_0
__arm_cp.8_1:
	.long	4294901760              @ 0xffff0000
.Lcpi_end21:
	.size	__arm_cp.8_1, .Lcpi_end21-__arm_cp.8_1
__arm_cp.8_2:
	.long	1342211124              @ 0x50008434
.Lcpi_end22:
	.size	__arm_cp.8_2, .Lcpi_end22-__arm_cp.8_2
.Lfunc_end8:
	.size	PDMA_SetTimeOut, .Lfunc_end8-PDMA_SetTimeOut
	.cfi_endproc
	.cantunwind
	.fnend
                                        @ -- End function
	.section	.text.PDMA_Trigger,"ax",%progbits
	.hidden	PDMA_Trigger            @ -- Begin function PDMA_Trigger
	.globl	PDMA_Trigger
	.p2align	2
	.type	PDMA_Trigger,%function
	.code	16                      @ @PDMA_Trigger
	.thumb_func
PDMA_Trigger:
.Lfunc_begin9:
	.loc	2 303 0 is_stmt 1       @ ../../../Library/StdDriver/src/pdma.c:303:0
	.fnstart
	.cfi_startproc
@ %bb.0:
	.pad	#8
	sub	sp, #8
	.cfi_def_cfa_offset 8
	mov	r1, r0
	str	r0, [sp, #4]
.Ltmp36:
	.loc	2 304 20 prologue_end   @ ../../../Library/StdDriver/src/pdma.c:304:20
	ldr	r0, [sp, #4]
	.loc	2 304 8 is_stmt 0       @ ../../../Library/StdDriver/src/pdma.c:304:8
	ldr	r2, __arm_cp.9_0
	ldrb	r0, [r2, r0]
.Ltmp37:
	.loc	2 304 8                 @ ../../../Library/StdDriver/src/pdma.c:304:8
	cmp	r0, #0
	str	r1, [sp]                @ 4-byte Spill
	bne	.LBB9_2
	b	.LBB9_1
.LBB9_1:
.Ltmp38:
	.loc	2 305 29 is_stmt 1      @ ../../../Library/StdDriver/src/pdma.c:305:29
	ldr	r0, [sp, #4]
	.loc	2 305 26 is_stmt 0      @ ../../../Library/StdDriver/src/pdma.c:305:26
	movs	r1, #1
	lsls	r1, r0
	.loc	2 305 21                @ ../../../Library/StdDriver/src/pdma.c:305:21
	ldr	r0, __arm_cp.9_1
	str	r1, [r0]
	.loc	2 305 9                 @ ../../../Library/StdDriver/src/pdma.c:305:9
	b	.LBB9_2
.Ltmp39:
.LBB9_2:
	.loc	2 306 1 is_stmt 1       @ ../../../Library/StdDriver/src/pdma.c:306:1
	add	sp, #8
	bx	lr
.Ltmp40:
	.p2align	2
@ %bb.3:
	.loc	2 0 1 is_stmt 0         @ ../../../Library/StdDriver/src/pdma.c:0:1
__arm_cp.9_0:
	.long	u32ChSelect
.Lcpi_end23:
	.size	__arm_cp.9_0, .Lcpi_end23-__arm_cp.9_0
__arm_cp.9_1:
	.long	1342211080              @ 0x50008408
.Lcpi_end24:
	.size	__arm_cp.9_1, .Lcpi_end24-__arm_cp.9_1
.Lfunc_end9:
	.size	PDMA_Trigger, .Lfunc_end9-PDMA_Trigger
	.cfi_endproc
	.cantunwind
	.fnend
                                        @ -- End function
	.section	.text.PDMA_EnableInt,"ax",%progbits
	.hidden	PDMA_EnableInt          @ -- Begin function PDMA_EnableInt
	.globl	PDMA_EnableInt
	.p2align	2
	.type	PDMA_EnableInt,%function
	.code	16                      @ @PDMA_EnableInt
	.thumb_func
PDMA_EnableInt:
.Lfunc_begin10:
	.loc	2 323 0 is_stmt 1       @ ../../../Library/StdDriver/src/pdma.c:323:0
	.fnstart
	.cfi_startproc
@ %bb.0:
	.pad	#20
	sub	sp, #20
	.cfi_def_cfa_offset 20
	mov	r2, r1
	mov	r3, r0
	str	r0, [sp, #16]
	str	r1, [sp, #12]
.Ltmp41:
	.loc	2 324 12 prologue_end   @ ../../../Library/StdDriver/src/pdma.c:324:12
	ldr	r0, [sp, #12]
	.loc	2 324 5 is_stmt 0       @ ../../../Library/StdDriver/src/pdma.c:324:5
	cmp	r0, #0
	str	r2, [sp, #8]            @ 4-byte Spill
	str	r3, [sp, #4]            @ 4-byte Spill
	str	r0, [sp]                @ 4-byte Spill
	beq	.LBB10_3
	b	.LBB10_1
.LBB10_1:
	ldr	r0, [sp]                @ 4-byte Reload
	cmp	r0, #1
	beq	.LBB10_4
	b	.LBB10_2
.LBB10_2:
	ldr	r0, [sp]                @ 4-byte Reload
	cmp	r0, #2
	beq	.LBB10_5
	b	.LBB10_6
.LBB10_3:
.Ltmp42:
	.loc	2 327 34 is_stmt 1      @ ../../../Library/StdDriver/src/pdma.c:327:34
	ldr	r0, [sp, #16]
	.loc	2 327 31 is_stmt 0      @ ../../../Library/StdDriver/src/pdma.c:327:31
	movs	r1, #1
	lsls	r1, r0
	.loc	2 327 25                @ ../../../Library/StdDriver/src/pdma.c:327:25
	ldr	r0, __arm_cp.10_2
	ldr	r2, [r0]
	orrs	r2, r1
	str	r2, [r0]
	.loc	2 328 13 is_stmt 1      @ ../../../Library/StdDriver/src/pdma.c:328:13
	b	.LBB10_7
.LBB10_4:
	.loc	2 330 24                @ ../../../Library/StdDriver/src/pdma.c:330:24
	ldr	r0, [sp, #16]
	.loc	2 330 13 is_stmt 0      @ ../../../Library/StdDriver/src/pdma.c:330:13
	lsls	r0, r0, #4
	ldr	r1, __arm_cp.10_1
	.loc	2 330 35                @ ../../../Library/StdDriver/src/pdma.c:330:35
	ldr	r2, [r0, r1]
	movs	r3, #128
	bics	r2, r3
	str	r2, [r0, r1]
	.loc	2 331 13 is_stmt 1      @ ../../../Library/StdDriver/src/pdma.c:331:13
	b	.LBB10_7
.LBB10_5:
	.loc	2 333 36                @ ../../../Library/StdDriver/src/pdma.c:333:36
	ldr	r0, [sp, #16]
	.loc	2 333 33 is_stmt 0      @ ../../../Library/StdDriver/src/pdma.c:333:33
	movs	r1, #1
	lsls	r1, r0
	.loc	2 333 27                @ ../../../Library/StdDriver/src/pdma.c:333:27
	ldr	r0, __arm_cp.10_0
	ldr	r2, [r0]
	orrs	r2, r1
	str	r2, [r0]
	.loc	2 334 13 is_stmt 1      @ ../../../Library/StdDriver/src/pdma.c:334:13
	b	.LBB10_7
.LBB10_6:
	.loc	2 338 5                 @ ../../../Library/StdDriver/src/pdma.c:338:5
	b	.LBB10_7
.Ltmp43:
.LBB10_7:
	.loc	2 339 1                 @ ../../../Library/StdDriver/src/pdma.c:339:1
	add	sp, #20
	bx	lr
.Ltmp44:
	.p2align	2
@ %bb.8:
	.loc	2 0 1 is_stmt 0         @ ../../../Library/StdDriver/src/pdma.c:0:1
__arm_cp.10_0:
	.long	1342211128              @ 0x50008438
.Lcpi_end25:
	.size	__arm_cp.10_0, .Lcpi_end25-__arm_cp.10_0
__arm_cp.10_1:
	.long	1342210048              @ 0x50008000
.Lcpi_end26:
	.size	__arm_cp.10_1, .Lcpi_end26-__arm_cp.10_1
__arm_cp.10_2:
	.long	1342211096              @ 0x50008418
.Lcpi_end27:
	.size	__arm_cp.10_2, .Lcpi_end27-__arm_cp.10_2
.Lfunc_end10:
	.size	PDMA_EnableInt, .Lfunc_end10-PDMA_EnableInt
	.cfi_endproc
	.cantunwind
	.fnend
                                        @ -- End function
	.section	.text.PDMA_DisableInt,"ax",%progbits
	.hidden	PDMA_DisableInt         @ -- Begin function PDMA_DisableInt
	.globl	PDMA_DisableInt
	.p2align	2
	.type	PDMA_DisableInt,%function
	.code	16                      @ @PDMA_DisableInt
	.thumb_func
PDMA_DisableInt:
.Lfunc_begin11:
	.loc	2 357 0 is_stmt 1       @ ../../../Library/StdDriver/src/pdma.c:357:0
	.fnstart
	.cfi_startproc
@ %bb.0:
	.pad	#20
	sub	sp, #20
	.cfi_def_cfa_offset 20
	mov	r2, r1
	mov	r3, r0
	str	r0, [sp, #16]
	str	r1, [sp, #12]
.Ltmp45:
	.loc	2 358 12 prologue_end   @ ../../../Library/StdDriver/src/pdma.c:358:12
	ldr	r0, [sp, #12]
	.loc	2 358 5 is_stmt 0       @ ../../../Library/StdDriver/src/pdma.c:358:5
	cmp	r0, #0
	str	r2, [sp, #8]            @ 4-byte Spill
	str	r3, [sp, #4]            @ 4-byte Spill
	str	r0, [sp]                @ 4-byte Spill
	beq	.LBB11_3
	b	.LBB11_1
.LBB11_1:
	ldr	r0, [sp]                @ 4-byte Reload
	cmp	r0, #1
	beq	.LBB11_4
	b	.LBB11_2
.LBB11_2:
	ldr	r0, [sp]                @ 4-byte Reload
	cmp	r0, #2
	beq	.LBB11_5
	b	.LBB11_6
.LBB11_3:
.Ltmp46:
	.loc	2 361 35 is_stmt 1      @ ../../../Library/StdDriver/src/pdma.c:361:35
	ldr	r0, [sp, #16]
	.loc	2 361 32 is_stmt 0      @ ../../../Library/StdDriver/src/pdma.c:361:32
	movs	r1, #1
	lsls	r1, r0
	.loc	2 361 25                @ ../../../Library/StdDriver/src/pdma.c:361:25
	ldr	r0, __arm_cp.11_2
	ldr	r2, [r0]
	bics	r2, r1
	str	r2, [r0]
	.loc	2 362 13 is_stmt 1      @ ../../../Library/StdDriver/src/pdma.c:362:13
	b	.LBB11_7
.LBB11_4:
	.loc	2 364 24                @ ../../../Library/StdDriver/src/pdma.c:364:24
	ldr	r0, [sp, #16]
	.loc	2 364 13 is_stmt 0      @ ../../../Library/StdDriver/src/pdma.c:364:13
	lsls	r0, r0, #4
	ldr	r1, __arm_cp.11_1
	.loc	2 364 35                @ ../../../Library/StdDriver/src/pdma.c:364:35
	ldr	r2, [r0, r1]
	movs	r3, #128
	orrs	r2, r3
	str	r2, [r0, r1]
	.loc	2 365 13 is_stmt 1      @ ../../../Library/StdDriver/src/pdma.c:365:13
	b	.LBB11_7
.LBB11_5:
	.loc	2 367 37                @ ../../../Library/StdDriver/src/pdma.c:367:37
	ldr	r0, [sp, #16]
	.loc	2 367 34 is_stmt 0      @ ../../../Library/StdDriver/src/pdma.c:367:34
	movs	r1, #1
	lsls	r1, r0
	.loc	2 367 27                @ ../../../Library/StdDriver/src/pdma.c:367:27
	ldr	r0, __arm_cp.11_0
	ldr	r2, [r0]
	bics	r2, r1
	str	r2, [r0]
	.loc	2 368 13 is_stmt 1      @ ../../../Library/StdDriver/src/pdma.c:368:13
	b	.LBB11_7
.LBB11_6:
	.loc	2 372 5                 @ ../../../Library/StdDriver/src/pdma.c:372:5
	b	.LBB11_7
.Ltmp47:
.LBB11_7:
	.loc	2 373 1                 @ ../../../Library/StdDriver/src/pdma.c:373:1
	add	sp, #20
	bx	lr
.Ltmp48:
	.p2align	2
@ %bb.8:
	.loc	2 0 1 is_stmt 0         @ ../../../Library/StdDriver/src/pdma.c:0:1
__arm_cp.11_0:
	.long	1342211128              @ 0x50008438
.Lcpi_end28:
	.size	__arm_cp.11_0, .Lcpi_end28-__arm_cp.11_0
__arm_cp.11_1:
	.long	1342210048              @ 0x50008000
.Lcpi_end29:
	.size	__arm_cp.11_1, .Lcpi_end29-__arm_cp.11_1
__arm_cp.11_2:
	.long	1342211096              @ 0x50008418
.Lcpi_end30:
	.size	__arm_cp.11_2, .Lcpi_end30-__arm_cp.11_2
.Lfunc_end11:
	.size	PDMA_DisableInt, .Lfunc_end11-PDMA_DisableInt
	.cfi_endproc
	.cantunwind
	.fnend
                                        @ -- End function
	.type	u32ChSelect,%object     @ @u32ChSelect
	.section	.bss.u32ChSelect,"aw",%nobits
u32ChSelect:
	.zero	10
	.size	u32ChSelect, 10

	.section	".note.GNU-stack","",%progbits
	.eabi_attribute	30, 6	@ Tag_ABI_optimization_goals
	.ARM_attribute	16, 1	@ Tag_AV_eba