	.text
	.syntax unified
	.eabi_attribute	67, "2.09"	@ Tag_conformance
	.cpu	cortex-m23
	.eabi_attribute	6, 16	@ Tag_CPU_arch
	.eabi_attribute	7, 77	@ Tag_CPU_arch_profile
	.eabi_attribute	8, 0	@ Tag_ARM_ISA_use
	.eabi_attribute	9, 3	@ Tag_THUMB_ISA_use
	.eabi_attribute	34, 0	@ Tag_CPU_unaligned_access
	.eabi_attribute	17, 1	@ Tag_ABI_PCS_GOT_use
	.eabi_attribute	20, 2	@ Tag_ABI_FP_denormal
	.eabi_attribute	21, 0	@ Tag_ABI_FP_exceptions
	.eabi_attribute	23, 1	@ Tag_ABI_FP_number_model
	.eabi_attribute	24, 1	@ Tag_ABI_align_needed
	.eabi_attribute	25, 1	@ Tag_ABI_align_preserved
	.eabi_attribute	38, 1	@ Tag_ABI_FP_16bit_format
	.eabi_attribute	18, 2	@ Tag_ABI_PCS_wchar_t
	.eabi_attribute	26, 1	@ Tag_ABI_enum_size
	.eabi_attribute	14, 0	@ Tag_ABI_PCS_R9_use
	.file	"sys.c"
	.file	1 "C:\\Keil_v5\\ARM\\ARMCLANG\\Bin\\..\\include" "stdint.h"
	.file	2 "../../../Library/Device/Nuvoton/NUC1262/Include" "NUC1262.h"
	.section	.text.SYS_ClearResetSrc,"ax",%progbits
	.hidden	SYS_ClearResetSrc       @ -- Begin function SYS_ClearResetSrc
	.globl	SYS_ClearResetSrc
	.p2align	2
	.type	SYS_ClearResetSrc,%function
	.code	16                      @ @SYS_ClearResetSrc
	.thumb_func
SYS_ClearResetSrc:
.Lfunc_begin0:
	.file	3 "../../../Library/StdDriver/src" "sys.c"
	.loc	3 37 0                  @ ../../../Library/StdDriver/src/sys.c:37:0
	.fnstart
	.cfi_sections .debug_frame
	.cfi_startproc
@ %bb.0:
	.pad	#8
	sub	sp, #8
	.cfi_def_cfa_offset 8
	mov	r1, r0
	str	r0, [sp, #4]
.Ltmp0:
	.loc	3 38 19 prologue_end    @ ../../../Library/StdDriver/src/sys.c:38:19
	ldr	r0, [sp, #4]
	.loc	3 38 17 is_stmt 0       @ ../../../Library/StdDriver/src/sys.c:38:17
	ldr	r2, __arm_cp.0_0
	str	r0, [r2]
	.loc	3 39 1 is_stmt 1        @ ../../../Library/StdDriver/src/sys.c:39:1
	str	r1, [sp]                @ 4-byte Spill
	add	sp, #8
	bx	lr
.Ltmp1:
	.p2align	2
@ %bb.1:
	.loc	3 0 1 is_stmt 0         @ ../../../Library/StdDriver/src/sys.c:0:1
__arm_cp.0_0:
	.long	1342177284              @ 0x50000004
.Lcpi_end0:
	.size	__arm_cp.0_0, .Lcpi_end0-__arm_cp.0_0
.Lfunc_end0:
	.size	SYS_ClearResetSrc, .Lfunc_end0-SYS_ClearResetSrc
	.cfi_endproc
	.cantunwind
	.fnend
                                        @ -- End function
	.section	.text.SYS_GetBODStatus,"ax",%progbits
	.hidden	SYS_GetBODStatus        @ -- Begin function SYS_GetBODStatus
	.globl	SYS_GetBODStatus
	.p2align	2
	.type	SYS_GetBODStatus,%function
	.code	16                      @ @SYS_GetBODStatus
	.thumb_func
SYS_GetBODStatus:
.Lfunc_begin1:
	.loc	3 49 0 is_stmt 1        @ ../../../Library/StdDriver/src/sys.c:49:0
	.fnstart
	.cfi_startproc
@ %bb.0:
	.loc	3 50 19 prologue_end    @ ../../../Library/StdDriver/src/sys.c:50:19
	ldr	r0, __arm_cp.1_0
	ldr	r0, [r0]
	.loc	3 50 26 is_stmt 0       @ ../../../Library/StdDriver/src/sys.c:50:26
	movs	r1, #64
	ands	r0, r1
	.loc	3 50 51                 @ ../../../Library/StdDriver/src/sys.c:50:51
	lsrs	r0, r0, #6
	.loc	3 50 5                  @ ../../../Library/StdDriver/src/sys.c:50:5
	bx	lr
.Ltmp2:
	.p2align	2
@ %bb.1:
	.loc	3 0 5                   @ ../../../Library/StdDriver/src/sys.c:0:5
__arm_cp.1_0:
	.long	1342177304              @ 0x50000018
.Lcpi_end1:
	.size	__arm_cp.1_0, .Lcpi_end1-__arm_cp.1_0
.Lfunc_end1:
	.size	SYS_GetBODStatus, .Lfunc_end1-SYS_GetBODStatus
	.cfi_endproc
	.cantunwind
	.fnend
                                        @ -- End function
	.section	.text.SYS_GetResetSrc,"ax",%progbits
	.hidden	SYS_GetResetSrc         @ -- Begin function SYS_GetResetSrc
	.globl	SYS_GetResetSrc
	.p2align	2
	.type	SYS_GetResetSrc,%function
	.code	16                      @ @SYS_GetResetSrc
	.thumb_func
SYS_GetResetSrc:
.Lfunc_begin2:
	.loc	3 60 0 is_stmt 1        @ ../../../Library/StdDriver/src/sys.c:60:0
	.fnstart
	.cfi_startproc
@ %bb.0:
	.loc	3 61 18 prologue_end    @ ../../../Library/StdDriver/src/sys.c:61:18
	ldr	r0, __arm_cp.2_0
	ldr	r0, [r0]
	.loc	3 61 5 is_stmt 0        @ ../../../Library/StdDriver/src/sys.c:61:5
	bx	lr
.Ltmp3:
	.p2align	2
@ %bb.1:
	.loc	3 0 5                   @ ../../../Library/StdDriver/src/sys.c:0:5
__arm_cp.2_0:
	.long	1342177284              @ 0x50000004
.Lcpi_end2:
	.size	__arm_cp.2_0, .Lcpi_end2-__arm_cp.2_0
.Lfunc_end2:
	.size	SYS_GetResetSrc, .Lfunc_end2-SYS_GetResetSrc
	.cfi_endproc
	.cantunwind
	.fnend
                                        @ -- End function
	.section	.text.SYS_IsRegLocked,"ax",%progbits
	.hidden	SYS_IsRegLocked         @ -- Begin function SYS_IsRegLocked
	.globl	SYS_IsRegLocked
	.p2align	2
	.type	SYS_IsRegLocked,%function
	.code	16                      @ @SYS_IsRegLocked
	.thumb_func
SYS_IsRegLocked:
.Lfunc_begin3:
	.loc	3 72 0 is_stmt 1        @ ../../../Library/StdDriver/src/sys.c:72:0
	.fnstart
	.cfi_startproc
@ %bb.0:
	.loc	3 73 19 prologue_end    @ ../../../Library/StdDriver/src/sys.c:73:19
	ldr	r0, __arm_cp.3_0
	ldr	r0, [r0]
	movs	r1, #1
	.loc	3 73 27 is_stmt 0       @ ../../../Library/StdDriver/src/sys.c:73:27
	ands	r0, r1
	movs	r1, #0
	.loc	3 73 12                 @ ../../../Library/StdDriver/src/sys.c:73:12
	subs	r1, r1, r0
	adcs	r0, r1
	.loc	3 73 5                  @ ../../../Library/StdDriver/src/sys.c:73:5
	bx	lr
.Ltmp4:
	.p2align	2
@ %bb.1:
	.loc	3 0 5                   @ ../../../Library/StdDriver/src/sys.c:0:5
__arm_cp.3_0:
	.long	1342177536              @ 0x50000100
.Lcpi_end3:
	.size	__arm_cp.3_0, .Lcpi_end3-__arm_cp.3_0
.Lfunc_end3:
	.size	SYS_IsRegLocked, .Lfunc_end3-SYS_IsRegLocked
	.cfi_endproc
	.cantunwind
	.fnend
                                        @ -- End function
	.section	.text.SYS_ReadPDID,"ax",%progbits
	.hidden	SYS_ReadPDID            @ -- Begin function SYS_ReadPDID
	.globl	SYS_ReadPDID
	.p2align	1
	.type	SYS_ReadPDID,%function
	.code	16                      @ @SYS_ReadPDID
	.thumb_func
SYS_ReadPDID:
.Lfunc_begin4:
	.loc	3 83 0 is_stmt 1        @ ../../../Library/StdDriver/src/sys.c:83:0
	.fnstart
	.cfi_startproc
@ %bb.0:
	.loc	3 84 17 prologue_end    @ ../../../Library/StdDriver/src/sys.c:84:17
	movs	r0, #5
	lsls	r0, r0, #28
	ldr	r0, [r0]
	.loc	3 84 5 is_stmt 0        @ ../../../Library/StdDriver/src/sys.c:84:5
	bx	lr
.Ltmp5:
.Lfunc_end4:
	.size	SYS_ReadPDID, .Lfunc_end4-SYS_ReadPDID
	.cfi_endproc
	.cantunwind
	.fnend
                                        @ -- End function
	.section	.text.SYS_ResetChip,"ax",%progbits
	.hidden	SYS_ResetChip           @ -- Begin function SYS_ResetChip
	.globl	SYS_ResetChip
	.p2align	2
	.type	SYS_ResetChip,%function
	.code	16                      @ @SYS_ResetChip
	.thumb_func
SYS_ResetChip:
.Lfunc_begin5:
	.loc	3 95 0 is_stmt 1        @ ../../../Library/StdDriver/src/sys.c:95:0
	.fnstart
	.cfi_startproc
@ %bb.0:
	.loc	3 96 17 prologue_end    @ ../../../Library/StdDriver/src/sys.c:96:17
	ldr	r0, __arm_cp.5_0
	ldr	r1, [r0]
	movs	r2, #1
	orrs	r1, r2
	str	r1, [r0]
	.loc	3 97 1                  @ ../../../Library/StdDriver/src/sys.c:97:1
	bx	lr
.Ltmp6:
	.p2align	2
@ %bb.1:
	.loc	3 0 1 is_stmt 0         @ ../../../Library/StdDriver/src/sys.c:0:1
__arm_cp.5_0:
	.long	1342177288              @ 0x50000008
.Lcpi_end4:
	.size	__arm_cp.5_0, .Lcpi_end4-__arm_cp.5_0
.Lfunc_end5:
	.size	SYS_ResetChip, .Lfunc_end5-SYS_ResetChip
	.cfi_endproc
	.cantunwind
	.fnend
                                        @ -- End function
	.section	.text.SYS_ResetCPU,"ax",%progbits
	.hidden	SYS_ResetCPU            @ -- Begin function SYS_ResetCPU
	.globl	SYS_ResetCPU
	.p2align	2
	.type	SYS_ResetCPU,%function
	.code	16                      @ @SYS_ResetCPU
	.thumb_func
SYS_ResetCPU:
.Lfunc_begin6:
	.loc	3 107 0 is_stmt 1       @ ../../../Library/StdDriver/src/sys.c:107:0
	.fnstart
	.cfi_startproc
@ %bb.0:
	.loc	3 108 17 prologue_end   @ ../../../Library/StdDriver/src/sys.c:108:17
	ldr	r0, __arm_cp.6_0
	ldr	r1, [r0]
	movs	r2, #2
	orrs	r1, r2
	str	r1, [r0]
	.loc	3 109 1                 @ ../../../Library/StdDriver/src/sys.c:109:1
	bx	lr
.Ltmp7:
	.p2align	2
@ %bb.1:
	.loc	3 0 1 is_stmt 0         @ ../../../Library/StdDriver/src/sys.c:0:1
__arm_cp.6_0:
	.long	1342177288              @ 0x50000008
.Lcpi_end5:
	.size	__arm_cp.6_0, .Lcpi_end5-__arm_cp.6_0
.Lfunc_end6:
	.size	SYS_ResetCPU, .Lfunc_end6-SYS_ResetCPU
	.cfi_endproc
	.cantunwind
	.fnend
                                        @ -- End function
	.section	.text.SYS_ResetModule,"ax",%progbits
	.hidden	SYS_ResetModule         @ -- Begin function SYS_ResetModule
	.globl	SYS_ResetModule
	.p2align	2
	.type	SYS_ResetModule,%function
	.code	16                      @ @SYS_ResetModule
	.thumb_func
SYS_ResetModule:
.Lfunc_begin7:
	.loc	3 145 0 is_stmt 1       @ ../../../Library/StdDriver/src/sys.c:145:0
	.fnstart
	.cfi_startproc
@ %bb.0:
	.save	{r4, r5, r6, lr}
	push	{r4, r5, r6, lr}
	.cfi_def_cfa_offset 16
	.cfi_offset lr, -4
	.cfi_offset r6, -8
	.cfi_offset r5, -12
	.cfi_offset r4, -16
	.pad	#8
	sub	sp, #8
	.cfi_def_cfa_offset 24
	mov	r1, r0
	str	r0, [sp, #4]
.Ltmp8:
	.loc	3 147 87 prologue_end   @ ../../../Library/StdDriver/src/sys.c:147:87
	ldr	r0, [sp, #4]
	.loc	3 147 102 is_stmt 0     @ ../../../Library/StdDriver/src/sys.c:147:102
	ldr	r2, __arm_cp.7_0
	mov	r3, r0
	ands	r3, r2
	.loc	3 147 83                @ ../../../Library/StdDriver/src/sys.c:147:83
	movs	r4, #1
	mov	r5, r4
	lsls	r5, r3
	.loc	3 147 69                @ ../../../Library/StdDriver/src/sys.c:147:69
	lsrs	r0, r0, #24
	.loc	3 147 51                @ ../../../Library/StdDriver/src/sys.c:147:51
	ldr	r3, __arm_cp.7_1
	.loc	3 147 78                @ ../../../Library/StdDriver/src/sys.c:147:78
	ldr	r6, [r0, r3]
	orrs	r6, r5
	str	r6, [r0, r3]
	.loc	3 150 89 is_stmt 1      @ ../../../Library/StdDriver/src/sys.c:150:89
	ldr	r0, [sp, #4]
	.loc	3 150 104 is_stmt 0     @ ../../../Library/StdDriver/src/sys.c:150:104
	mov	r5, r0
	ands	r5, r2
	.loc	3 150 85                @ ../../../Library/StdDriver/src/sys.c:150:85
	lsls	r4, r5
	.loc	3 150 69                @ ../../../Library/StdDriver/src/sys.c:150:69
	lsrs	r0, r0, #24
	.loc	3 150 78                @ ../../../Library/StdDriver/src/sys.c:150:78
	ldr	r2, [r0, r3]
	bics	r2, r4
	str	r2, [r0, r3]
	.loc	3 151 1 is_stmt 1       @ ../../../Library/StdDriver/src/sys.c:151:1
	str	r1, [sp]                @ 4-byte Spill
	add	sp, #8
	pop	{r4, r5, r6, pc}
.Ltmp9:
	.p2align	2
@ %bb.1:
	.loc	3 0 1 is_stmt 0         @ ../../../Library/StdDriver/src/sys.c:0:1
__arm_cp.7_0:
	.long	16777215                @ 0xffffff
.Lcpi_end6:
	.size	__arm_cp.7_0, .Lcpi_end6-__arm_cp.7_0
__arm_cp.7_1:
	.long	1342177288              @ 0x50000008
.Lcpi_end7:
	.size	__arm_cp.7_1, .Lcpi_end7-__arm_cp.7_1
.Lfunc_end7:
	.size	SYS_ResetModule, .Lfunc_end7-SYS_ResetModule
	.cfi_endproc
	.cantunwind
	.fnend
                                        @ -- End function
	.section	.text.SYS_EnableBOD,"ax",%progbits
	.hidden	SYS_EnableBOD           @ -- Begin function SYS_EnableBOD
	.globl	SYS_EnableBOD
	.p2align	2
	.type	SYS_EnableBOD,%function
	.code	16                      @ @SYS_EnableBOD
	.thumb_func
SYS_EnableBOD:
.Lfunc_begin8:
	.loc	3 169 0 is_stmt 1       @ ../../../Library/StdDriver/src/sys.c:169:0
	.fnstart
	.cfi_startproc
@ %bb.0:
	.save	{r4, lr}
	push	{r4, lr}
	.cfi_def_cfa_offset 8
	.cfi_offset lr, -4
	.cfi_offset r4, -8
	.pad	#16
	sub	sp, #16
	.cfi_def_cfa_offset 24
	mov	r2, r1
	mov	r3, r0
	str	r0, [sp, #12]
	str	r1, [sp, #8]
.Ltmp10:
	.loc	3 171 17 prologue_end   @ ../../../Library/StdDriver/src/sys.c:171:17
	ldr	r0, __arm_cp.8_0
	ldr	r1, [r0]
	movs	r4, #1
	orrs	r1, r4
	str	r1, [r0]
	.loc	3 174 25                @ ../../../Library/StdDriver/src/sys.c:174:25
	ldr	r1, [r0]
	.loc	3 174 32 is_stmt 0      @ ../../../Library/StdDriver/src/sys.c:174:32
	movs	r4, #8
	bics	r1, r4
	.loc	3 174 62                @ ../../../Library/StdDriver/src/sys.c:174:62
	ldr	r4, [sp, #12]
	.loc	3 174 60                @ ../../../Library/StdDriver/src/sys.c:174:60
	orrs	r1, r4
	.loc	3 174 17                @ ../../../Library/StdDriver/src/sys.c:174:17
	str	r1, [r0]
	.loc	3 177 25 is_stmt 1      @ ../../../Library/StdDriver/src/sys.c:177:25
	ldr	r1, [r0]
	.loc	3 177 32 is_stmt 0      @ ../../../Library/StdDriver/src/sys.c:177:32
	movs	r4, #6
	bics	r1, r4
	.loc	3 177 59                @ ../../../Library/StdDriver/src/sys.c:177:59
	ldr	r4, [sp, #8]
	.loc	3 177 57                @ ../../../Library/StdDriver/src/sys.c:177:57
	orrs	r1, r4
	.loc	3 177 17                @ ../../../Library/StdDriver/src/sys.c:177:17
	str	r1, [r0]
	.loc	3 178 1 is_stmt 1       @ ../../../Library/StdDriver/src/sys.c:178:1
	str	r2, [sp, #4]            @ 4-byte Spill
	str	r3, [sp]                @ 4-byte Spill
	add	sp, #16
	pop	{r4, pc}
.Ltmp11:
	.p2align	2
@ %bb.1:
	.loc	3 0 1 is_stmt 0         @ ../../../Library/StdDriver/src/sys.c:0:1
__arm_cp.8_0:
	.long	1342177304              @ 0x50000018
.Lcpi_end8:
	.size	__arm_cp.8_0, .Lcpi_end8-__arm_cp.8_0
.Lfunc_end8:
	.size	SYS_EnableBOD, .Lfunc_end8-SYS_EnableBOD
	.cfi_endproc
	.cantunwind
	.fnend
                                        @ -- End function
	.section	.text.SYS_DisableBOD,"ax",%progbits
	.hidden	SYS_DisableBOD          @ -- Begin function SYS_DisableBOD
	.globl	SYS_DisableBOD
	.p2align	2
	.type	SYS_DisableBOD,%function
	.code	16                      @ @SYS_DisableBOD
	.thumb_func
SYS_DisableBOD:
.Lfunc_begin9:
	.loc	3 188 0 is_stmt 1       @ ../../../Library/StdDriver/src/sys.c:188:0
	.fnstart
	.cfi_startproc
@ %bb.0:
	.loc	3 189 17 prologue_end   @ ../../../Library/StdDriver/src/sys.c:189:17
	ldr	r0, __arm_cp.9_0
	ldr	r1, [r0]
	movs	r2, #1
	bics	r1, r2
	str	r1, [r0]
	.loc	3 190 1                 @ ../../../Library/StdDriver/src/sys.c:190:1
	bx	lr
.Ltmp12:
	.p2align	2
@ %bb.1:
	.loc	3 0 1 is_stmt 0         @ ../../../Library/StdDriver/src/sys.c:0:1
__arm_cp.9_0:
	.long	1342177304              @ 0x50000018
.Lcpi_end9:
	.size	__arm_cp.9_0, .Lcpi_end9-__arm_cp.9_0
.Lfunc_end9:
	.size	SYS_DisableBOD, .Lfunc_end9-SYS_DisableBOD
	.cfi_endproc
	.cantunwind
	.fnend
                                        @ -- End function
	.section	".note.GNU-stack","",%progbits
	.eabi_attribute	30, 6	@ Tag_ABI_optimization_goals
	.ARM_attribute	16, 1	@ Tag_AV_eba