	.text
	.syntax unified
	.eabi_attribute	67, "2.09"	@ Tag_conformance
	.cpu	cortex-m23
	.eabi_attribute	6, 16	@ Tag_CPU_arch
	.eabi_attribute	7, 77	@ Tag_CPU_arch_profile
	.eabi_attribute	8, 0	@ Tag_ARM_ISA_use
	.eabi_attribute	9, 3	@ Tag_THUMB_ISA_use
	.eabi_attribute	34, 0	@ Tag_CPU_unaligned_access
	.eabi_attribute	17, 1	@ Tag_ABI_PCS_GOT_use
	.eabi_attribute	20, 2	@ Tag_ABI_FP_denormal
	.eabi_attribute	21, 0	@ Tag_ABI_FP_exceptions
	.eabi_attribute	23, 1	@ Tag_ABI_FP_number_model
	.eabi_attribute	24, 1	@ Tag_ABI_align_needed
	.eabi_attribute	25, 1	@ Tag_ABI_align_preserved
	.eabi_attribute	38, 1	@ Tag_ABI_FP_16bit_format
	.eabi_attribute	18, 2	@ Tag_ABI_PCS_wchar_t
	.eabi_attribute	26, 1	@ Tag_ABI_enum_size
	.eabi_attribute	14, 0	@ Tag_ABI_PCS_R9_use
	.file	"system_NUC1262.c"
	.file	1 "C:\\Keil_v5\\ARM\\ARMCLANG\\Bin\\..\\include" "stdint.h"
	.file	2 "../../../Library/Device/Nuvoton/NUC1262/Source" "system_NUC1262.c"
	.file	3 "../../../Library/Device/Nuvoton/NUC1262/Include" "NUC1262.h"
	.section	.text.SystemCoreClockUpdate,"ax",%progbits
	.hidden	SystemCoreClockUpdate   @ -- Begin function SystemCoreClockUpdate
	.globl	SystemCoreClockUpdate
	.p2align	2
	.type	SystemCoreClockUpdate,%function
	.code	16                      @ @SystemCoreClockUpdate
	.thumb_func
SystemCoreClockUpdate:
.Lfunc_begin0:
	.loc	2 35 0                  @ ../../../Library/Device/Nuvoton/NUC1262/Source/system_NUC1262.c:35:0
	.fnstart
	.cfi_sections .debug_frame
	.cfi_startproc
@ %bb.0:
	.save	{r7, lr}
	push	{r7, lr}
	.cfi_def_cfa_offset 8
	.cfi_offset lr, -4
	.cfi_offset r7, -8
	.pad	#16
	sub	sp, #16
	.cfi_def_cfa_offset 24
.Ltmp0:
	.loc	2 39 22 prologue_end    @ ../../../Library/Device/Nuvoton/NUC1262/Source/system_NUC1262.c:39:22
	ldr	r0, __arm_cp.0_0
	ldr	r0, [r0]
	.loc	2 39 30 is_stmt 0       @ ../../../Library/Device/Nuvoton/NUC1262/Source/system_NUC1262.c:39:30
	movs	r1, #7
	ands	r0, r1
	.loc	2 39 15                 @ ../../../Library/Device/Nuvoton/NUC1262/Source/system_NUC1262.c:39:15
	str	r0, [sp, #8]
	.loc	2 42 16 is_stmt 1       @ ../../../Library/Device/Nuvoton/NUC1262/Source/system_NUC1262.c:42:16
	bl	CLK_GetPLLClockFreq
	.loc	2 42 14 is_stmt 0       @ ../../../Library/Device/Nuvoton/NUC1262/Source/system_NUC1262.c:42:14
	ldr	r1, __arm_cp.0_1
	str	r0, [r1]
.Ltmp1:
	.loc	2 44 8 is_stmt 1        @ ../../../Library/Device/Nuvoton/NUC1262/Source/system_NUC1262.c:44:8
	ldr	r0, [sp, #8]
.Ltmp2:
	.loc	2 44 8 is_stmt 0        @ ../../../Library/Device/Nuvoton/NUC1262/Source/system_NUC1262.c:44:8
	cmp	r0, #2
	beq	.LBB0_2
	b	.LBB0_1
.LBB0_1:
.Ltmp3:
	.loc	2 47 34 is_stmt 1       @ ../../../Library/Device/Nuvoton/NUC1262/Source/system_NUC1262.c:47:34
	ldr	r0, [sp, #8]
	.loc	2 47 19 is_stmt 0       @ ../../../Library/Device/Nuvoton/NUC1262/Source/system_NUC1262.c:47:19
	lsls	r0, r0, #2
	ldr	r1, __arm_cp.0_2
	ldr	r0, [r1, r0]
	.loc	2 47 17                 @ ../../../Library/Device/Nuvoton/NUC1262/Source/system_NUC1262.c:47:17
	str	r0, [sp, #12]
	.loc	2 48 5 is_stmt 1        @ ../../../Library/Device/Nuvoton/NUC1262/Source/system_NUC1262.c:48:5
	b	.LBB0_3
.Ltmp4:
.LBB0_2:
	.loc	2 52 20                 @ ../../../Library/Device/Nuvoton/NUC1262/Source/system_NUC1262.c:52:20
	ldr	r0, __arm_cp.0_1
	ldr	r0, [r0]
	.loc	2 52 28 is_stmt 0       @ ../../../Library/Device/Nuvoton/NUC1262/Source/system_NUC1262.c:52:28
	lsrs	r0, r0, #1
	.loc	2 52 17                 @ ../../../Library/Device/Nuvoton/NUC1262/Source/system_NUC1262.c:52:17
	str	r0, [sp, #12]
	b	.LBB0_3
.Ltmp5:
.LBB0_3:
	.loc	2 55 24 is_stmt 1       @ ../../../Library/Device/Nuvoton/NUC1262/Source/system_NUC1262.c:55:24
	ldr	r0, __arm_cp.0_3
	ldr	r0, [r0]
	.loc	2 55 32 is_stmt 0       @ ../../../Library/Device/Nuvoton/NUC1262/Source/system_NUC1262.c:55:32
	movs	r1, #15
	ands	r0, r1
	.loc	2 55 59                 @ ../../../Library/Device/Nuvoton/NUC1262/Source/system_NUC1262.c:55:59
	adds	r0, r0, #1
	.loc	2 55 16                 @ ../../../Library/Device/Nuvoton/NUC1262/Source/system_NUC1262.c:55:16
	str	r0, [sp, #4]
	.loc	2 58 23 is_stmt 1       @ ../../../Library/Device/Nuvoton/NUC1262/Source/system_NUC1262.c:58:23
	ldr	r0, [sp, #12]
	.loc	2 58 33 is_stmt 0       @ ../../../Library/Device/Nuvoton/NUC1262/Source/system_NUC1262.c:58:33
	ldr	r1, [sp, #4]
	.loc	2 58 31                 @ ../../../Library/Device/Nuvoton/NUC1262/Source/system_NUC1262.c:58:31
	udiv	r0, r0, r1
	.loc	2 58 21                 @ ../../../Library/Device/Nuvoton/NUC1262/Source/system_NUC1262.c:58:21
	ldr	r1, __arm_cp.0_4
	str	r0, [r1]
	.loc	2 60 20 is_stmt 1       @ ../../../Library/Device/Nuvoton/NUC1262/Source/system_NUC1262.c:60:20
	ldr	r0, [r1]
	.loc	2 60 36 is_stmt 0       @ ../../../Library/Device/Nuvoton/NUC1262/Source/system_NUC1262.c:60:36
	ldr	r1, __arm_cp.0_5
	adds	r0, r0, r1
	.loc	2 60 46                 @ ../../../Library/Device/Nuvoton/NUC1262/Source/system_NUC1262.c:60:46
	ldr	r1, __arm_cp.0_6
	udiv	r0, r0, r1
	.loc	2 60 17                 @ ../../../Library/Device/Nuvoton/NUC1262/Source/system_NUC1262.c:60:17
	ldr	r1, __arm_cp.0_7
	str	r0, [r1]
	.loc	2 61 1 is_stmt 1        @ ../../../Library/Device/Nuvoton/NUC1262/Source/system_NUC1262.c:61:1
	add	sp, #16
	pop	{r7, pc}
.Ltmp6:
	.p2align	2
@ %bb.4:
	.loc	2 0 1 is_stmt 0         @ ../../../Library/Device/Nuvoton/NUC1262/Source/system_NUC1262.c:0:1
__arm_cp.0_0:
	.long	1342177808              @ 0x50000210
.Lcpi_end0:
	.size	__arm_cp.0_0, .Lcpi_end0-__arm_cp.0_0
__arm_cp.0_1:
	.long	PllClock
.Lcpi_end1:
	.size	__arm_cp.0_1, .Lcpi_end1-__arm_cp.0_1
__arm_cp.0_2:
	.long	gau32ClkSrcTbl
.Lcpi_end2:
	.size	__arm_cp.0_2, .Lcpi_end2-__arm_cp.0_2
__arm_cp.0_3:
	.long	1342177816              @ 0x50000218
.Lcpi_end3:
	.size	__arm_cp.0_3, .Lcpi_end3-__arm_cp.0_3
__arm_cp.0_4:
	.long	SystemCoreClock
.Lcpi_end4:
	.size	__arm_cp.0_4, .Lcpi_end4-__arm_cp.0_4
__arm_cp.0_5:
	.long	500000                  @ 0x7a120
.Lcpi_end5:
	.size	__arm_cp.0_5, .Lcpi_end5-__arm_cp.0_5
__arm_cp.0_6:
	.long	1000000                 @ 0xf4240
.Lcpi_end6:
	.size	__arm_cp.0_6, .Lcpi_end6-__arm_cp.0_6
__arm_cp.0_7:
	.long	CyclesPerUs
.Lcpi_end7:
	.size	__arm_cp.0_7, .Lcpi_end7-__arm_cp.0_7
.Lfunc_end0:
	.size	SystemCoreClockUpdate, .Lfunc_end0-SystemCoreClockUpdate
	.cfi_endproc
	.cantunwind
	.fnend
                                        @ -- End function
	.section	.text.CLK_GetPLLClockFreq,"ax",%progbits
	.p2align	2               @ -- Begin function CLK_GetPLLClockFreq
	.type	CLK_GetPLLClockFreq,%function
	.code	16                      @ @CLK_GetPLLClockFreq
	.thumb_func
CLK_GetPLLClockFreq:
.Lfunc_begin1:
	.file	4 "../../../Library/StdDriver/inc" "clk.h"
	.loc	4 371 0 is_stmt 1       @ ../../../Library/StdDriver/inc\clk.h:371:0
	.fnstart
	.cfi_startproc
@ %bb.0:
	.pad	#32
	sub	sp, #32
	.cfi_def_cfa_offset 32
	movs	r0, #0
.Ltmp7:
	.loc	4 372 14 prologue_end   @ ../../../Library/StdDriver/inc\clk.h:372:14
	str	r0, [sp, #24]
	.loc	4 374 13                @ ../../../Library/StdDriver/inc\clk.h:374:13
	ldr	r0, __arm_cp.1_0
	str	r0, [sp]
	.loc	4 376 22                @ ../../../Library/StdDriver/inc\clk.h:376:22
	ldr	r0, __arm_cp.1_1
	ldr	r0, [r0]
	.loc	4 376 15 is_stmt 0      @ ../../../Library/StdDriver/inc\clk.h:376:15
	str	r0, [sp, #20]
	add	r0, sp, #20
	.loc	4 378 8 is_stmt 1       @ ../../../Library/StdDriver/inc\clk.h:378:8
	ldrb	r0, [r0, #2]
	movs	r1, #5
	tst	r0, r1
	beq	.LBB1_2
	b	.LBB1_1
.LBB1_1:
.Ltmp8:
	.loc	4 379 9                 @ ../../../Library/StdDriver/inc\clk.h:379:9
	movs	r0, #0
	str	r0, [sp, #28]
	b	.LBB1_8
.Ltmp9:
.LBB1_2:
	.loc	4 0 9 is_stmt 0         @ ../../../Library/StdDriver/inc\clk.h:0:9
	add	r0, sp, #20
	.loc	4 381 8 is_stmt 1       @ ../../../Library/StdDriver/inc\clk.h:381:8
	ldrb	r0, [r0, #2]
	lsls	r0, r0, #28
	cmp	r0, #0
	bpl	.LBB1_4
	b	.LBB1_3
.LBB1_3:
.Ltmp10:
	.loc	4 382 16                @ ../../../Library/StdDriver/inc\clk.h:382:16
	ldr	r0, __arm_cp.1_3
	str	r0, [sp, #16]
	.loc	4 382 9 is_stmt 0       @ ../../../Library/StdDriver/inc\clk.h:382:9
	b	.LBB1_5
.LBB1_4:
	.loc	4 384 16 is_stmt 1      @ ../../../Library/StdDriver/inc\clk.h:384:16
	ldr	r0, __arm_cp.1_2
	str	r0, [sp, #16]
	b	.LBB1_5
.Ltmp11:
.LBB1_5:
	.loc	4 0 16 is_stmt 0        @ ../../../Library/StdDriver/inc\clk.h:0:16
	add	r0, sp, #20
	.loc	4 386 8 is_stmt 1       @ ../../../Library/StdDriver/inc\clk.h:386:8
	ldrb	r0, [r0, #2]
	lsls	r0, r0, #30
	cmp	r0, #0
	bpl	.LBB1_7
	b	.LBB1_6
.LBB1_6:
.Ltmp12:
	.loc	4 387 16                @ ../../../Library/StdDriver/inc\clk.h:387:16
	ldr	r0, [sp, #16]
	.loc	4 387 9 is_stmt 0       @ ../../../Library/StdDriver/inc\clk.h:387:9
	str	r0, [sp, #28]
	b	.LBB1_8
.Ltmp13:
.LBB1_7:
	.loc	4 390 24 is_stmt 1      @ ../../../Library/StdDriver/inc\clk.h:390:24
	ldr	r0, [sp, #20]
	.loc	4 390 34 is_stmt 0      @ ../../../Library/StdDriver/inc\clk.h:390:34
	movw	r1, #49152
	ands	r0, r1
	.loc	4 390 59                @ ../../../Library/StdDriver/inc\clk.h:390:59
	lsrs	r0, r0, #14
	mov	r1, sp
	.loc	4 390 13                @ ../../../Library/StdDriver/inc\clk.h:390:13
	orrs	r1, r0
	ldrb	r0, [r1]
	.loc	4 390 11                @ ../../../Library/StdDriver/inc\clk.h:390:11
	str	r0, [sp, #4]
	.loc	4 391 15 is_stmt 1      @ ../../../Library/StdDriver/inc\clk.h:391:15
	ldr	r0, [sp, #20]
	.loc	4 391 25 is_stmt 0      @ ../../../Library/StdDriver/inc\clk.h:391:25
	ldr	r1, __arm_cp.1_4
	ands	r0, r1
	.loc	4 391 74                @ ../../../Library/StdDriver/inc\clk.h:391:74
	adds	r0, r0, #2
	.loc	4 391 11                @ ../../../Library/StdDriver/inc\clk.h:391:11
	str	r0, [sp, #12]
	.loc	4 392 15 is_stmt 1      @ ../../../Library/StdDriver/inc\clk.h:392:15
	ldr	r0, [sp, #20]
	.loc	4 392 25 is_stmt 0      @ ../../../Library/StdDriver/inc\clk.h:392:25
	movw	r1, #15872
	ands	r0, r1
	.loc	4 392 49                @ ../../../Library/StdDriver/inc\clk.h:392:49
	lsrs	r0, r0, #9
	.loc	4 392 74                @ ../../../Library/StdDriver/inc\clk.h:392:74
	adds	r0, r0, #2
	.loc	4 392 11                @ ../../../Library/StdDriver/inc\clk.h:392:11
	str	r0, [sp, #8]
	.loc	4 395 21 is_stmt 1      @ ../../../Library/StdDriver/inc\clk.h:395:21
	ldr	r0, [sp, #16]
	.loc	4 395 28 is_stmt 0      @ ../../../Library/StdDriver/inc\clk.h:395:28
	lsrs	r0, r0, #2
	.loc	4 395 36                @ ../../../Library/StdDriver/inc\clk.h:395:36
	ldr	r1, [sp, #12]
	.loc	4 395 34                @ ../../../Library/StdDriver/inc\clk.h:395:34
	muls	r1, r0, r1
	.loc	4 395 46                @ ../../../Library/StdDriver/inc\clk.h:395:46
	ldr	r0, [sp, #8]
	.loc	4 395 54                @ ../../../Library/StdDriver/inc\clk.h:395:54
	ldr	r2, [sp, #4]
	.loc	4 395 52                @ ../../../Library/StdDriver/inc\clk.h:395:52
	muls	r2, r0, r2
	.loc	4 395 43                @ ../../../Library/StdDriver/inc\clk.h:395:43
	udiv	r0, r1, r2
	.loc	4 395 61                @ ../../../Library/StdDriver/inc\clk.h:395:61
	lsls	r0, r0, #2
	.loc	4 395 16                @ ../../../Library/StdDriver/inc\clk.h:395:16
	str	r0, [sp, #24]
	.loc	4 397 12 is_stmt 1      @ ../../../Library/StdDriver/inc\clk.h:397:12
	ldr	r0, [sp, #24]
	.loc	4 397 5 is_stmt 0       @ ../../../Library/StdDriver/inc\clk.h:397:5
	str	r0, [sp, #28]
	b	.LBB1_8
.LBB1_8:
	.loc	4 398 1 is_stmt 1       @ ../../../Library/StdDriver/inc\clk.h:398:1
	ldr	r0, [sp, #28]
	add	sp, #32
	bx	lr
.Ltmp14:
	.p2align	2
@ %bb.9:
	.loc	4 0 1 is_stmt 0         @ ../../../Library/StdDriver/inc\clk.h:0:1
__arm_cp.1_0:
	.long	67240449                @ 0x4020201
.Lcpi_end8:
	.size	__arm_cp.1_0, .Lcpi_end8-__arm_cp.1_0
__arm_cp.1_1:
	.long	1342177824              @ 0x50000220
.Lcpi_end9:
	.size	__arm_cp.1_1, .Lcpi_end9-__arm_cp.1_1
__arm_cp.1_2:
	.long	12000000                @ 0xb71b00
.Lcpi_end10:
	.size	__arm_cp.1_2, .Lcpi_end10-__arm_cp.1_2
__arm_cp.1_3:
	.long	24000000                @ 0x16e3600
.Lcpi_end11:
	.size	__arm_cp.1_3, .Lcpi_end11-__arm_cp.1_3
__arm_cp.1_4:
	.long	511                     @ 0x1ff
.Lcpi_end12:
	.size	__arm_cp.1_4, .Lcpi_end12-__arm_cp.1_4
.Lfunc_end1:
	.size	CLK_GetPLLClockFreq, .Lfunc_end1-CLK_GetPLLClockFreq
	.cfi_endproc
	.cantunwind
	.fnend
                                        @ -- End function
	.section	.text.SystemInit,"ax",%progbits
	.hidden	SystemInit              @ -- Begin function SystemInit
	.globl	SystemInit
	.p2align	1
	.type	SystemInit,%function
	.code	16                      @ @SystemInit
	.thumb_func
SystemInit:
.Lfunc_begin2:
	.loc	2 74 0 is_stmt 1        @ ../../../Library/Device/Nuvoton/NUC1262/Source/system_NUC1262.c:74:0
	.fnstart
	.cfi_startproc
@ %bb.0:
	.loc	2 122 1 prologue_end    @ ../../../Library/Device/Nuvoton/NUC1262/Source/system_NUC1262.c:122:1
	bx	lr
.Ltmp15:
.Lfunc_end2:
	.size	SystemInit, .Lfunc_end2-SystemInit
	.cfi_endproc
	.cantunwind
	.fnend
                                        @ -- End function
	.hidden	SystemCoreClock         @ @SystemCoreClock
	.type	SystemCoreClock,%object
	.section	.data.SystemCoreClock,"aw",%progbits
	.globl	SystemCoreClock
	.p2align	2
SystemCoreClock:
	.long	144000000               @ 0x8954400
	.size	SystemCoreClock, 4

	.hidden	CyclesPerUs             @ @CyclesPerUs
	.type	CyclesPerUs,%object
	.section	.data.CyclesPerUs,"aw",%progbits
	.globl	CyclesPerUs
	.p2align	2
CyclesPerUs:
	.long	144                     @ 0x90
	.size	CyclesPerUs, 4

	.hidden	PllClock                @ @PllClock
	.type	PllClock,%object
	.section	.data.PllClock,"aw",%progbits
	.globl	PllClock
	.p2align	2
PllClock:
	.long	144000000               @ 0x8954400
	.size	PllClock, 4

	.hidden	gau32ClkSrcTbl          @ @gau32ClkSrcTbl
	.type	gau32ClkSrcTbl,%object
	.section	.rodata.gau32ClkSrcTbl,"a",%progbits
	.globl	gau32ClkSrcTbl
	.p2align	2
gau32ClkSrcTbl:
	.long	12000000                @ 0xb71b00
	.long	32768                   @ 0x8000
	.long	144000000               @ 0x8954400
	.long	10000                   @ 0x2710
	.long	48000000                @ 0x2dc6c00
	.long	0                       @ 0x0
	.long	0                       @ 0x0
	.long	24000000                @ 0x16e3600
	.size	gau32ClkSrcTbl, 32

	.type	.LCLK_GetPLLClockFreq.au8NoTbl,%object @ @CLK_GetPLLClockFreq.au8NoTbl
	.section	.rodata.cst4,"aM",%progbits,4
.LCLK_GetPLLClockFreq.au8NoTbl:
	.ascii	"\001\002\002\004"
	.size	.LCLK_GetPLLClockFreq.au8NoTbl, 4

	.section	".note.GNU-stack","",%progbits
	.eabi_attribute	30, 6	@ Tag_ABI_optimization_goals
	.ARM_attribute	16, 1	@ Tag_AV_eba