	.text
	.syntax unified
	.eabi_attribute	67, "2.09"	@ Tag_conformance
	.cpu	cortex-m23
	.eabi_attribute	6, 16	@ Tag_CPU_arch
	.eabi_attribute	7, 77	@ Tag_CPU_arch_profile
	.eabi_attribute	8, 0	@ Tag_ARM_ISA_use
	.eabi_attribute	9, 3	@ Tag_THUMB_ISA_use
	.eabi_attribute	34, 0	@ Tag_CPU_unaligned_access
	.eabi_attribute	17, 1	@ Tag_ABI_PCS_GOT_use
	.eabi_attribute	20, 2	@ Tag_ABI_FP_denormal
	.eabi_attribute	21, 0	@ Tag_ABI_FP_exceptions
	.eabi_attribute	23, 1	@ Tag_ABI_FP_number_model
	.eabi_attribute	24, 1	@ Tag_ABI_align_needed
	.eabi_attribute	25, 1	@ Tag_ABI_align_preserved
	.eabi_attribute	38, 1	@ Tag_ABI_FP_16bit_format
	.eabi_attribute	18, 2	@ Tag_ABI_PCS_wchar_t
	.eabi_attribute	26, 1	@ Tag_ABI_enum_size
	.eabi_attribute	14, 0	@ Tag_ABI_PCS_R9_use
	.file	"timer.c"
	.file	1 "C:\\Keil_v5\\ARM\\ARMCLANG\\Bin\\..\\include" "stdint.h"
	.file	2 "../../../Library/StdDriver/src" "timer.c"
	.file	3 "../../../Library/Device/Nuvoton/NUC1262/Include" "NUC1262.h"
	.section	.text.TIMER_Open,"ax",%progbits
	.hidden	TIMER_Open              @ -- Begin function TIMER_Open
	.globl	TIMER_Open
	.p2align	2
	.type	TIMER_Open,%function
	.code	16                      @ @TIMER_Open
	.thumb_func
TIMER_Open:
.Lfunc_begin0:
	.loc	2 45 0                  @ ../../../Library/StdDriver/src/timer.c:45:0
	.fnstart
	.cfi_sections .debug_frame
	.cfi_startproc
@ %bb.0:
	.save	{r4, r5, r7, lr}
	push	{r4, r5, r7, lr}
	.cfi_def_cfa_offset 16
	.cfi_offset lr, -4
	.cfi_offset r7, -8
	.cfi_offset r5, -12
	.cfi_offset r4, -16
	.pad	#40
	sub	sp, #40
	.cfi_def_cfa_offset 56
	mov	r3, r2
	mov	r4, r1
	mov	r5, r0
	str	r0, [sp, #36]
	str	r1, [sp, #32]
	str	r2, [sp, #28]
.Ltmp0:
	.loc	2 46 44 prologue_end    @ ../../../Library/StdDriver/src/timer.c:46:44
	ldr	r0, [sp, #36]
	.loc	2 46 23 is_stmt 0       @ ../../../Library/StdDriver/src/timer.c:46:23
	str	r3, [sp, #12]           @ 4-byte Spill
	str	r4, [sp, #8]            @ 4-byte Spill
	str	r5, [sp, #4]            @ 4-byte Spill
	bl	TIMER_GetModuleClock
	.loc	2 46 14                 @ ../../../Library/StdDriver/src/timer.c:46:14
	str	r0, [sp, #24]
	movs	r0, #0
	.loc	2 47 14 is_stmt 1       @ ../../../Library/StdDriver/src/timer.c:47:14
	str	r0, [sp, #20]
	.loc	2 47 27 is_stmt 0       @ ../../../Library/StdDriver/src/timer.c:47:27
	str	r0, [sp, #16]
.Ltmp1:
	.loc	2 50 8 is_stmt 1        @ ../../../Library/StdDriver/src/timer.c:50:8
	ldr	r0, [sp, #28]
	.loc	2 50 19 is_stmt 0       @ ../../../Library/StdDriver/src/timer.c:50:19
	ldr	r1, [sp, #24]
	.loc	2 50 26                 @ ../../../Library/StdDriver/src/timer.c:50:26
	lsrs	r1, r1, #1
.Ltmp2:
	.loc	2 50 8                  @ ../../../Library/StdDriver/src/timer.c:50:8
	cmp	r0, r1
	bls	.LBB0_2
	b	.LBB0_1
.LBB0_1:
.Ltmp3:
	.loc	2 52 17 is_stmt 1       @ ../../../Library/StdDriver/src/timer.c:52:17
	movs	r0, #2
	str	r0, [sp, #20]
	.loc	2 53 5                  @ ../../../Library/StdDriver/src/timer.c:53:5
	b	.LBB0_11
.Ltmp4:
.LBB0_2:
	.loc	2 56 12                 @ ../../../Library/StdDriver/src/timer.c:56:12
	ldr	r0, [sp, #24]
.Ltmp5:
	.loc	2 56 12 is_stmt 0       @ ../../../Library/StdDriver/src/timer.c:56:12
	ldr	r1, __arm_cp.0_0
	cmp	r0, r1
	blo	.LBB0_4
	b	.LBB0_3
.LBB0_3:
.Ltmp6:
	.loc	2 58 25 is_stmt 1       @ ../../../Library/StdDriver/src/timer.c:58:25
	movs	r0, #7
	str	r0, [sp, #16]
	.loc	2 59 20                 @ ../../../Library/StdDriver/src/timer.c:59:20
	ldr	r0, [sp, #24]
	lsrs	r0, r0, #3
	str	r0, [sp, #24]
	.loc	2 60 9                  @ ../../../Library/StdDriver/src/timer.c:60:9
	b	.LBB0_10
.Ltmp7:
.LBB0_4:
	.loc	2 61 17                 @ ../../../Library/StdDriver/src/timer.c:61:17
	ldr	r0, [sp, #24]
.Ltmp8:
	.loc	2 61 17 is_stmt 0       @ ../../../Library/StdDriver/src/timer.c:61:17
	ldr	r1, __arm_cp.0_1
	cmp	r0, r1
	blo	.LBB0_6
	b	.LBB0_5
.LBB0_5:
.Ltmp9:
	.loc	2 63 25 is_stmt 1       @ ../../../Library/StdDriver/src/timer.c:63:25
	movs	r0, #3
	str	r0, [sp, #16]
	.loc	2 64 20                 @ ../../../Library/StdDriver/src/timer.c:64:20
	ldr	r0, [sp, #24]
	lsrs	r0, r0, #2
	str	r0, [sp, #24]
	.loc	2 65 9                  @ ../../../Library/StdDriver/src/timer.c:65:9
	b	.LBB0_9
.Ltmp10:
.LBB0_6:
	.loc	2 66 17                 @ ../../../Library/StdDriver/src/timer.c:66:17
	ldr	r0, [sp, #24]
.Ltmp11:
	.loc	2 66 17 is_stmt 0       @ ../../../Library/StdDriver/src/timer.c:66:17
	ldr	r1, __arm_cp.0_2
	cmp	r0, r1
	blo	.LBB0_8
	b	.LBB0_7
.LBB0_7:
.Ltmp12:
	.loc	2 68 25 is_stmt 1       @ ../../../Library/StdDriver/src/timer.c:68:25
	movs	r0, #1
	str	r0, [sp, #16]
	.loc	2 69 20                 @ ../../../Library/StdDriver/src/timer.c:69:20
	ldr	r0, [sp, #24]
	lsrs	r0, r0, #1
	str	r0, [sp, #24]
	.loc	2 70 9                  @ ../../../Library/StdDriver/src/timer.c:70:9
	b	.LBB0_8
.Ltmp13:
.LBB0_8:
	.loc	2 0 9 is_stmt 0         @ ../../../Library/StdDriver/src/timer.c:0:9
	b	.LBB0_9
.LBB0_9:
	b	.LBB0_10
.LBB0_10:
	.loc	2 72 19 is_stmt 1       @ ../../../Library/StdDriver/src/timer.c:72:19
	ldr	r0, [sp, #24]
	.loc	2 72 28 is_stmt 0       @ ../../../Library/StdDriver/src/timer.c:72:28
	ldr	r1, [sp, #28]
	.loc	2 72 26                 @ ../../../Library/StdDriver/src/timer.c:72:26
	udiv	r0, r0, r1
	.loc	2 72 17                 @ ../../../Library/StdDriver/src/timer.c:72:17
	str	r0, [sp, #20]
	b	.LBB0_11
.Ltmp14:
.LBB0_11:
	.loc	2 75 18 is_stmt 1       @ ../../../Library/StdDriver/src/timer.c:75:18
	ldr	r0, [sp, #32]
	.loc	2 75 28 is_stmt 0       @ ../../../Library/StdDriver/src/timer.c:75:28
	ldr	r1, [sp, #16]
	.loc	2 75 26                 @ ../../../Library/StdDriver/src/timer.c:75:26
	orrs	r0, r1
	.loc	2 75 5                  @ ../../../Library/StdDriver/src/timer.c:75:5
	ldr	r1, [sp, #36]
	.loc	2 75 16                 @ ../../../Library/StdDriver/src/timer.c:75:16
	str	r0, [r1]
	.loc	2 76 18 is_stmt 1       @ ../../../Library/StdDriver/src/timer.c:76:18
	ldr	r0, [sp, #20]
	.loc	2 76 5 is_stmt 0        @ ../../../Library/StdDriver/src/timer.c:76:5
	ldr	r1, [sp, #36]
	.loc	2 76 16                 @ ../../../Library/StdDriver/src/timer.c:76:16
	str	r0, [r1, #4]
	.loc	2 78 12 is_stmt 1       @ ../../../Library/StdDriver/src/timer.c:78:12
	ldr	r0, [sp, #24]
	.loc	2 78 22 is_stmt 0       @ ../../../Library/StdDriver/src/timer.c:78:22
	ldr	r1, [sp, #20]
	.loc	2 78 33                 @ ../../../Library/StdDriver/src/timer.c:78:33
	ldr	r2, [sp, #16]
	.loc	2 78 45                 @ ../../../Library/StdDriver/src/timer.c:78:45
	adds	r2, r2, #1
	.loc	2 78 30                 @ ../../../Library/StdDriver/src/timer.c:78:30
	muls	r2, r1, r2
	.loc	2 78 19                 @ ../../../Library/StdDriver/src/timer.c:78:19
	udiv	r0, r0, r2
	.loc	2 78 5                  @ ../../../Library/StdDriver/src/timer.c:78:5
	add	sp, #40
	pop	{r4, r5, r7, pc}
.Ltmp15:
	.p2align	2
@ %bb.12:
	.loc	2 0 5                   @ ../../../Library/StdDriver/src/timer.c:0:5
__arm_cp.0_0:
	.long	64000001                @ 0x3d09001
.Lcpi_end0:
	.size	__arm_cp.0_0, .Lcpi_end0-__arm_cp.0_0
__arm_cp.0_1:
	.long	32000001                @ 0x1e84801
.Lcpi_end1:
	.size	__arm_cp.0_1, .Lcpi_end1-__arm_cp.0_1
__arm_cp.0_2:
	.long	16000001                @ 0xf42401
.Lcpi_end2:
	.size	__arm_cp.0_2, .Lcpi_end2-__arm_cp.0_2
.Lfunc_end0:
	.size	TIMER_Open, .Lfunc_end0-TIMER_Open
	.cfi_endproc
	.cantunwind
	.fnend
                                        @ -- End function
	.section	.text.TIMER_GetModuleClock,"ax",%progbits
	.hidden	TIMER_GetModuleClock    @ -- Begin function TIMER_GetModuleClock
	.globl	TIMER_GetModuleClock
	.p2align	2
	.type	TIMER_GetModuleClock,%function
	.code	16                      @ @TIMER_GetModuleClock
	.thumb_func
TIMER_GetModuleClock:
.Lfunc_begin1:
	.loc	2 265 0 is_stmt 1       @ ../../../Library/StdDriver/src/timer.c:265:0
	.fnstart
	.cfi_startproc
@ %bb.0:
	.pad	#16
	sub	sp, #16
	.cfi_def_cfa_offset 16
	mov	r1, r0
	str	r0, [sp, #8]
.Ltmp16:
	.loc	2 269 8 prologue_end    @ ../../../Library/StdDriver/src/timer.c:269:8
	ldr	r0, [sp, #8]
	.loc	2 269 14 is_stmt 0      @ ../../../Library/StdDriver/src/timer.c:269:14
	ldr	r2, __arm_cp.1_0
.Ltmp17:
	.loc	2 269 8                 @ ../../../Library/StdDriver/src/timer.c:269:8
	cmp	r0, r2
	str	r1, [sp]                @ 4-byte Spill
	bne	.LBB1_2
	b	.LBB1_1
.LBB1_1:
.Ltmp18:
	.loc	2 270 24 is_stmt 1      @ ../../../Library/StdDriver/src/timer.c:270:24
	ldr	r0, __arm_cp.1_3
	ldr	r0, [r0]
	.loc	2 270 32 is_stmt 0      @ ../../../Library/StdDriver/src/timer.c:270:32
	movw	r1, #1792
	ands	r0, r1
	.loc	2 270 59                @ ../../../Library/StdDriver/src/timer.c:270:59
	lsrs	r0, r0, #8
	.loc	2 270 16                @ ../../../Library/StdDriver/src/timer.c:270:16
	str	r0, [sp, #4]
	.loc	2 270 9                 @ ../../../Library/StdDriver/src/timer.c:270:9
	b	.LBB1_9
.LBB1_2:
.Ltmp19:
	.loc	2 271 13 is_stmt 1      @ ../../../Library/StdDriver/src/timer.c:271:13
	ldr	r0, [sp, #8]
	.loc	2 271 19 is_stmt 0      @ ../../../Library/StdDriver/src/timer.c:271:19
	ldr	r1, __arm_cp.1_1
.Ltmp20:
	.loc	2 271 13                @ ../../../Library/StdDriver/src/timer.c:271:13
	cmp	r0, r1
	bne	.LBB1_4
	b	.LBB1_3
.LBB1_3:
.Ltmp21:
	.loc	2 272 24 is_stmt 1      @ ../../../Library/StdDriver/src/timer.c:272:24
	ldr	r0, __arm_cp.1_3
	ldr	r0, [r0]
	.loc	2 272 32 is_stmt 0      @ ../../../Library/StdDriver/src/timer.c:272:32
	movw	r1, #28672
	ands	r0, r1
	.loc	2 272 59                @ ../../../Library/StdDriver/src/timer.c:272:59
	lsrs	r0, r0, #12
	.loc	2 272 16                @ ../../../Library/StdDriver/src/timer.c:272:16
	str	r0, [sp, #4]
	.loc	2 272 9                 @ ../../../Library/StdDriver/src/timer.c:272:9
	b	.LBB1_8
.LBB1_4:
.Ltmp22:
	.loc	2 273 13 is_stmt 1      @ ../../../Library/StdDriver/src/timer.c:273:13
	ldr	r0, [sp, #8]
	.loc	2 273 19 is_stmt 0      @ ../../../Library/StdDriver/src/timer.c:273:19
	ldr	r1, __arm_cp.1_2
.Ltmp23:
	.loc	2 273 13                @ ../../../Library/StdDriver/src/timer.c:273:13
	cmp	r0, r1
	bne	.LBB1_6
	b	.LBB1_5
.LBB1_5:
.Ltmp24:
	.loc	2 274 24 is_stmt 1      @ ../../../Library/StdDriver/src/timer.c:274:24
	ldr	r0, __arm_cp.1_3
	ldr	r0, [r0]
	.loc	2 274 32 is_stmt 0      @ ../../../Library/StdDriver/src/timer.c:274:32
	movs	r1, #7
	lsls	r1, r1, #16
	ands	r0, r1
	.loc	2 274 59                @ ../../../Library/StdDriver/src/timer.c:274:59
	lsrs	r0, r0, #16
	.loc	2 274 16                @ ../../../Library/StdDriver/src/timer.c:274:16
	str	r0, [sp, #4]
	.loc	2 274 9                 @ ../../../Library/StdDriver/src/timer.c:274:9
	b	.LBB1_7
.LBB1_6:
	.loc	2 276 24 is_stmt 1      @ ../../../Library/StdDriver/src/timer.c:276:24
	ldr	r0, __arm_cp.1_3
	ldr	r0, [r0]
	.loc	2 276 32 is_stmt 0      @ ../../../Library/StdDriver/src/timer.c:276:32
	movs	r1, #7
	lsls	r1, r1, #20
	ands	r0, r1
	.loc	2 276 59                @ ../../../Library/StdDriver/src/timer.c:276:59
	lsrs	r0, r0, #20
	.loc	2 276 16                @ ../../../Library/StdDriver/src/timer.c:276:16
	str	r0, [sp, #4]
	b	.LBB1_7
.Ltmp25:
.LBB1_7:
	.loc	2 0 16                  @ ../../../Library/StdDriver/src/timer.c:0:16
	b	.LBB1_8
.LBB1_8:
	b	.LBB1_9
.LBB1_9:
.Ltmp26:
	.loc	2 278 8 is_stmt 1       @ ../../../Library/StdDriver/src/timer.c:278:8
	ldr	r0, [sp, #4]
.Ltmp27:
	.loc	2 278 8 is_stmt 0       @ ../../../Library/StdDriver/src/timer.c:278:8
	cmp	r0, #2
	bne	.LBB1_11
	b	.LBB1_10
.LBB1_10:
.Ltmp28:
	.loc	2 280 17 is_stmt 1      @ ../../../Library/StdDriver/src/timer.c:280:17
	ldr	r0, __arm_cp.1_5
	ldr	r0, [r0]
	.loc	2 280 9 is_stmt 0       @ ../../../Library/StdDriver/src/timer.c:280:9
	str	r0, [sp, #12]
	b	.LBB1_12
.Ltmp29:
.LBB1_11:
	.loc	2 283 21 is_stmt 1      @ ../../../Library/StdDriver/src/timer.c:283:21
	ldr	r0, [sp, #4]
	.loc	2 283 13 is_stmt 0      @ ../../../Library/StdDriver/src/timer.c:283:13
	lsls	r0, r0, #2
	ldr	r1, __arm_cp.1_4
	ldr	r0, [r1, r0]
	.loc	2 283 5                 @ ../../../Library/StdDriver/src/timer.c:283:5
	str	r0, [sp, #12]
	b	.LBB1_12
.LBB1_12:
	.loc	2 284 1 is_stmt 1       @ ../../../Library/StdDriver/src/timer.c:284:1
	ldr	r0, [sp, #12]
	add	sp, #16
	bx	lr
.Ltmp30:
	.p2align	2
@ %bb.13:
	.loc	2 0 1 is_stmt 0         @ ../../../Library/StdDriver/src/timer.c:0:1
__arm_cp.1_0:
	.long	1073807360              @ 0x40010000
.Lcpi_end3:
	.size	__arm_cp.1_0, .Lcpi_end3-__arm_cp.1_0
__arm_cp.1_1:
	.long	1073807392              @ 0x40010020
.Lcpi_end4:
	.size	__arm_cp.1_1, .Lcpi_end4-__arm_cp.1_1
__arm_cp.1_2:
	.long	1074855936              @ 0x40110000
.Lcpi_end5:
	.size	__arm_cp.1_2, .Lcpi_end5-__arm_cp.1_2
__arm_cp.1_3:
	.long	1342177812              @ 0x50000214
.Lcpi_end6:
	.size	__arm_cp.1_3, .Lcpi_end6-__arm_cp.1_3
__arm_cp.1_4:
	.long	TIMER_GetModuleClock.au32Clk
.Lcpi_end7:
	.size	__arm_cp.1_4, .Lcpi_end7-__arm_cp.1_4
__arm_cp.1_5:
	.long	SystemCoreClock
.Lcpi_end8:
	.size	__arm_cp.1_5, .Lcpi_end8-__arm_cp.1_5
.Lfunc_end1:
	.size	TIMER_GetModuleClock, .Lfunc_end1-TIMER_GetModuleClock
	.cfi_endproc
	.cantunwind
	.fnend
                                        @ -- End function
	.section	.text.TIMER_Close,"ax",%progbits
	.hidden	TIMER_Close             @ -- Begin function TIMER_Close
	.globl	TIMER_Close
	.p2align	1
	.type	TIMER_Close,%function
	.code	16                      @ @TIMER_Close
	.thumb_func
TIMER_Close:
.Lfunc_begin2:
	.loc	2 91 0 is_stmt 1        @ ../../../Library/StdDriver/src/timer.c:91:0
	.fnstart
	.cfi_startproc
@ %bb.0:
	.pad	#8
	sub	sp, #8
	.cfi_def_cfa_offset 8
	mov	r1, r0
	str	r0, [sp, #4]
.Ltmp31:
	.loc	2 92 5 prologue_end     @ ../../../Library/StdDriver/src/timer.c:92:5
	ldr	r0, [sp, #4]
	movs	r2, #0
	.loc	2 92 16 is_stmt 0       @ ../../../Library/StdDriver/src/timer.c:92:16
	str	r2, [r0]
	.loc	2 93 5 is_stmt 1        @ ../../../Library/StdDriver/src/timer.c:93:5
	ldr	r0, [sp, #4]
	.loc	2 93 19 is_stmt 0       @ ../../../Library/StdDriver/src/timer.c:93:19
	str	r2, [r0, #20]
	.loc	2 94 1 is_stmt 1        @ ../../../Library/StdDriver/src/timer.c:94:1
	str	r1, [sp]                @ 4-byte Spill
	add	sp, #8
	bx	lr
.Ltmp32:
.Lfunc_end2:
	.size	TIMER_Close, .Lfunc_end2-TIMER_Close
	.cfi_endproc
	.cantunwind
	.fnend
                                        @ -- End function
	.section	.text.TIMER_Delay,"ax",%progbits
	.hidden	TIMER_Delay             @ -- Begin function TIMER_Delay
	.globl	TIMER_Delay
	.p2align	2
	.type	TIMER_Delay,%function
	.code	16                      @ @TIMER_Delay
	.thumb_func
TIMER_Delay:
.Lfunc_begin3:
	.loc	2 109 0                 @ ../../../Library/StdDriver/src/timer.c:109:0
	.fnstart
	.cfi_startproc
@ %bb.0:
	.save	{r7, lr}
	push	{r7, lr}
	.cfi_def_cfa_offset 8
	.cfi_offset lr, -4
	.cfi_offset r7, -8
	.pad	#40
	sub	sp, #40
	.cfi_def_cfa_offset 48
	mov	r2, r1
	mov	r3, r0
	str	r0, [sp, #36]
	str	r1, [sp, #32]
.Ltmp33:
	.loc	2 110 44 prologue_end   @ ../../../Library/StdDriver/src/timer.c:110:44
	ldr	r0, [sp, #36]
	.loc	2 110 23 is_stmt 0      @ ../../../Library/StdDriver/src/timer.c:110:23
	str	r2, [sp, #8]            @ 4-byte Spill
	str	r3, [sp, #4]            @ 4-byte Spill
	bl	TIMER_GetModuleClock
	.loc	2 110 14                @ ../../../Library/StdDriver/src/timer.c:110:14
	str	r0, [sp, #28]
	movs	r0, #0
	.loc	2 111 14 is_stmt 1      @ ../../../Library/StdDriver/src/timer.c:111:14
	str	r0, [sp, #24]
	.loc	2 111 40 is_stmt 0      @ ../../../Library/StdDriver/src/timer.c:111:40
	ldr	r1, __arm_cp.3_0
	ldr	r1, [r1]
	.loc	2 111 58                @ ../../../Library/StdDriver/src/timer.c:111:58
	ldr	r2, [sp, #28]
	.loc	2 111 56                @ ../../../Library/StdDriver/src/timer.c:111:56
	udiv	r1, r1, r2
	.loc	2 111 66                @ ../../../Library/StdDriver/src/timer.c:111:66
	adds	r1, r1, #1
	.loc	2 111 31                @ ../../../Library/StdDriver/src/timer.c:111:31
	str	r1, [sp, #20]
	.loc	2 115 5 is_stmt 1       @ ../../../Library/StdDriver/src/timer.c:115:5
	ldr	r1, [sp, #36]
	.loc	2 115 16 is_stmt 0      @ ../../../Library/StdDriver/src/timer.c:115:16
	str	r0, [r1]
	.loc	2 116 5 is_stmt 1       @ ../../../Library/StdDriver/src/timer.c:116:5
	ldr	r1, [sp, #36]
	.loc	2 116 19 is_stmt 0      @ ../../../Library/StdDriver/src/timer.c:116:19
	str	r0, [r1, #20]
.Ltmp34:
	.loc	2 118 8 is_stmt 1       @ ../../../Library/StdDriver/src/timer.c:118:8
	ldr	r0, [sp, #28]
	.loc	2 118 15 is_stmt 0      @ ../../../Library/StdDriver/src/timer.c:118:15
	ldr	r1, __arm_cp.3_1
.Ltmp35:
	.loc	2 118 8                 @ ../../../Library/StdDriver/src/timer.c:118:8
	cmp	r0, r1
	bhi	.LBB3_6
	b	.LBB3_1
.LBB3_1:
.Ltmp36:
	.loc	2 120 12 is_stmt 1      @ ../../../Library/StdDriver/src/timer.c:120:12
	ldr	r0, [sp, #32]
.Ltmp37:
	.loc	2 120 12 is_stmt 0      @ ../../../Library/StdDriver/src/timer.c:120:12
	lsrs	r0, r0, #3
	cmp	r0, #124
	bhi	.LBB3_3
	b	.LBB3_2
.LBB3_2:
.Ltmp38:
	.loc	2 121 21 is_stmt 1      @ ../../../Library/StdDriver/src/timer.c:121:21
	movw	r0, #1000
	str	r0, [sp, #32]
	.loc	2 121 13 is_stmt 0      @ ../../../Library/StdDriver/src/timer.c:121:13
	b	.LBB3_3
.Ltmp39:
.LBB3_3:
	.loc	2 122 12 is_stmt 1      @ ../../../Library/StdDriver/src/timer.c:122:12
	ldr	r0, [sp, #32]
.Ltmp40:
	.loc	2 122 12 is_stmt 0      @ ../../../Library/StdDriver/src/timer.c:122:12
	ldr	r1, __arm_cp.3_2
	cmp	r0, r1
	blo	.LBB3_5
	b	.LBB3_4
.LBB3_4:
.Ltmp41:
	.loc	2 123 21 is_stmt 1      @ ../../../Library/StdDriver/src/timer.c:123:21
	ldr	r0, __arm_cp.3_1
	str	r0, [sp, #32]
	.loc	2 123 13 is_stmt 0      @ ../../../Library/StdDriver/src/timer.c:123:13
	b	.LBB3_5
.Ltmp42:
.LBB3_5:
	.loc	2 124 5 is_stmt 1       @ ../../../Library/StdDriver/src/timer.c:124:5
	b	.LBB3_11
.Ltmp43:
.LBB3_6:
	.loc	2 127 12                @ ../../../Library/StdDriver/src/timer.c:127:12
	ldr	r0, [sp, #32]
.Ltmp44:
	.loc	2 127 12 is_stmt 0      @ ../../../Library/StdDriver/src/timer.c:127:12
	cmp	r0, #99
	bhi	.LBB3_8
	b	.LBB3_7
.LBB3_7:
.Ltmp45:
	.loc	2 128 21 is_stmt 1      @ ../../../Library/StdDriver/src/timer.c:128:21
	movs	r0, #100
	str	r0, [sp, #32]
	.loc	2 128 13 is_stmt 0      @ ../../../Library/StdDriver/src/timer.c:128:13
	b	.LBB3_8
.Ltmp46:
.LBB3_8:
	.loc	2 129 12 is_stmt 1      @ ../../../Library/StdDriver/src/timer.c:129:12
	ldr	r0, [sp, #32]
.Ltmp47:
	.loc	2 129 12 is_stmt 0      @ ../../../Library/StdDriver/src/timer.c:129:12
	ldr	r1, __arm_cp.3_2
	cmp	r0, r1
	blo	.LBB3_10
	b	.LBB3_9
.LBB3_9:
.Ltmp48:
	.loc	2 130 21 is_stmt 1      @ ../../../Library/StdDriver/src/timer.c:130:21
	ldr	r0, __arm_cp.3_1
	str	r0, [sp, #32]
	.loc	2 130 13 is_stmt 0      @ ../../../Library/StdDriver/src/timer.c:130:13
	b	.LBB3_10
.Ltmp49:
.LBB3_10:
	.loc	2 0 13                  @ ../../../Library/StdDriver/src/timer.c:0:13
	b	.LBB3_11
.LBB3_11:
.Ltmp50:
	.loc	2 133 8 is_stmt 1       @ ../../../Library/StdDriver/src/timer.c:133:8
	ldr	r0, [sp, #28]
	.loc	2 133 15 is_stmt 0      @ ../../../Library/StdDriver/src/timer.c:133:15
	ldr	r1, __arm_cp.3_1
.Ltmp51:
	.loc	2 133 8                 @ ../../../Library/StdDriver/src/timer.c:133:8
	cmp	r0, r1
	bhi	.LBB3_13
	b	.LBB3_12
.LBB3_12:
	.loc	2 0 8                   @ ../../../Library/StdDriver/src/timer.c:0:8
	movs	r0, #0
.Ltmp52:
	.loc	2 135 21 is_stmt 1      @ ../../../Library/StdDriver/src/timer.c:135:21
	str	r0, [sp, #24]
	.loc	2 136 39                @ ../../../Library/StdDriver/src/timer.c:136:39
	ldr	r0, [sp, #28]
	.loc	2 136 37 is_stmt 0      @ ../../../Library/StdDriver/src/timer.c:136:37
	ldr	r1, __arm_cp.3_6
	udiv	r0, r1, r0
	.loc	2 136 24                @ ../../../Library/StdDriver/src/timer.c:136:24
	str	r0, [sp, #12]
	.loc	2 137 20 is_stmt 1      @ ../../../Library/StdDriver/src/timer.c:137:20
	ldr	r0, [sp, #32]
	.loc	2 137 28 is_stmt 0      @ ../../../Library/StdDriver/src/timer.c:137:28
	movw	r1, #1000
	muls	r1, r0, r1
	.loc	2 137 38                @ ../../../Library/StdDriver/src/timer.c:137:38
	ldr	r0, [sp, #12]
	.loc	2 137 36                @ ../../../Library/StdDriver/src/timer.c:137:36
	udiv	r0, r1, r0
	.loc	2 137 17                @ ../../../Library/StdDriver/src/timer.c:137:17
	str	r0, [sp, #16]
	.loc	2 138 5 is_stmt 1       @ ../../../Library/StdDriver/src/timer.c:138:5
	b	.LBB3_25
.Ltmp53:
.LBB3_13:
	.loc	2 141 12                @ ../../../Library/StdDriver/src/timer.c:141:12
	ldr	r0, [sp, #28]
.Ltmp54:
	.loc	2 141 12 is_stmt 0      @ ../../../Library/StdDriver/src/timer.c:141:12
	ldr	r1, __arm_cp.3_3
	cmp	r0, r1
	blo	.LBB3_15
	b	.LBB3_14
.LBB3_14:
.Ltmp55:
	.loc	2 143 25 is_stmt 1      @ ../../../Library/StdDriver/src/timer.c:143:25
	movs	r0, #7
	str	r0, [sp, #24]
	.loc	2 144 20                @ ../../../Library/StdDriver/src/timer.c:144:20
	ldr	r0, [sp, #28]
	lsrs	r0, r0, #3
	str	r0, [sp, #28]
	.loc	2 145 9                 @ ../../../Library/StdDriver/src/timer.c:145:9
	b	.LBB3_21
.Ltmp56:
.LBB3_15:
	.loc	2 146 17                @ ../../../Library/StdDriver/src/timer.c:146:17
	ldr	r0, [sp, #28]
.Ltmp57:
	.loc	2 146 17 is_stmt 0      @ ../../../Library/StdDriver/src/timer.c:146:17
	ldr	r1, __arm_cp.3_4
	cmp	r0, r1
	blo	.LBB3_17
	b	.LBB3_16
.LBB3_16:
.Ltmp58:
	.loc	2 148 25 is_stmt 1      @ ../../../Library/StdDriver/src/timer.c:148:25
	movs	r0, #3
	str	r0, [sp, #24]
	.loc	2 149 20                @ ../../../Library/StdDriver/src/timer.c:149:20
	ldr	r0, [sp, #28]
	lsrs	r0, r0, #2
	str	r0, [sp, #28]
	.loc	2 150 9                 @ ../../../Library/StdDriver/src/timer.c:150:9
	b	.LBB3_20
.Ltmp59:
.LBB3_17:
	.loc	2 151 17                @ ../../../Library/StdDriver/src/timer.c:151:17
	ldr	r0, [sp, #28]
.Ltmp60:
	.loc	2 151 17 is_stmt 0      @ ../../../Library/StdDriver/src/timer.c:151:17
	ldr	r1, __arm_cp.3_5
	cmp	r0, r1
	blo	.LBB3_19
	b	.LBB3_18
.LBB3_18:
.Ltmp61:
	.loc	2 153 25 is_stmt 1      @ ../../../Library/StdDriver/src/timer.c:153:25
	movs	r0, #1
	str	r0, [sp, #24]
	.loc	2 154 20                @ ../../../Library/StdDriver/src/timer.c:154:20
	ldr	r0, [sp, #28]
	lsrs	r0, r0, #1
	str	r0, [sp, #28]
	.loc	2 155 9                 @ ../../../Library/StdDriver/src/timer.c:155:9
	b	.LBB3_19
.Ltmp62:
.LBB3_19:
	.loc	2 0 9 is_stmt 0         @ ../../../Library/StdDriver/src/timer.c:0:9
	b	.LBB3_20
.LBB3_20:
	b	.LBB3_21
.LBB3_21:
.Ltmp63:
	.loc	2 157 12 is_stmt 1      @ ../../../Library/StdDriver/src/timer.c:157:12
	ldr	r0, [sp, #32]
.Ltmp64:
	.loc	2 157 12 is_stmt 0      @ ../../../Library/StdDriver/src/timer.c:157:12
	cmp	r0, #249
	bhi	.LBB3_23
	b	.LBB3_22
.LBB3_22:
.Ltmp65:
	.loc	2 159 24 is_stmt 1      @ ../../../Library/StdDriver/src/timer.c:159:24
	ldr	r0, [sp, #32]
	.loc	2 159 34 is_stmt 0      @ ../../../Library/StdDriver/src/timer.c:159:34
	ldr	r1, [sp, #28]
	.loc	2 159 32                @ ../../../Library/StdDriver/src/timer.c:159:32
	muls	r1, r0, r1
	.loc	2 159 42                @ ../../../Library/StdDriver/src/timer.c:159:42
	ldr	r0, __arm_cp.3_1
	udiv	r0, r1, r0
	.loc	2 159 21                @ ../../../Library/StdDriver/src/timer.c:159:21
	str	r0, [sp, #16]
	.loc	2 160 9 is_stmt 1       @ ../../../Library/StdDriver/src/timer.c:160:9
	b	.LBB3_24
.Ltmp66:
.LBB3_23:
	.loc	2 163 43                @ ../../../Library/StdDriver/src/timer.c:163:43
	ldr	r0, [sp, #28]
	.loc	2 163 41 is_stmt 0      @ ../../../Library/StdDriver/src/timer.c:163:41
	ldr	r1, __arm_cp.3_6
	udiv	r0, r1, r0
	.loc	2 163 28                @ ../../../Library/StdDriver/src/timer.c:163:28
	str	r0, [sp, #12]
	.loc	2 164 24 is_stmt 1      @ ../../../Library/StdDriver/src/timer.c:164:24
	ldr	r0, [sp, #32]
	.loc	2 164 32 is_stmt 0      @ ../../../Library/StdDriver/src/timer.c:164:32
	movw	r1, #1000
	muls	r1, r0, r1
	.loc	2 164 42                @ ../../../Library/StdDriver/src/timer.c:164:42
	ldr	r0, [sp, #12]
	.loc	2 164 40                @ ../../../Library/StdDriver/src/timer.c:164:40
	udiv	r0, r1, r0
	.loc	2 164 21                @ ../../../Library/StdDriver/src/timer.c:164:21
	str	r0, [sp, #16]
	b	.LBB3_24
.Ltmp67:
.LBB3_24:
	.loc	2 0 21                  @ ../../../Library/StdDriver/src/timer.c:0:21
	b	.LBB3_25
.LBB3_25:
	.loc	2 168 18 is_stmt 1      @ ../../../Library/StdDriver/src/timer.c:168:18
	ldr	r0, [sp, #16]
	.loc	2 168 5 is_stmt 0       @ ../../../Library/StdDriver/src/timer.c:168:5
	ldr	r1, [sp, #36]
	.loc	2 168 16                @ ../../../Library/StdDriver/src/timer.c:168:16
	str	r0, [r1, #4]
	.loc	2 169 61 is_stmt 1      @ ../../../Library/StdDriver/src/timer.c:169:61
	ldr	r0, [sp, #24]
	.loc	2 169 59 is_stmt 0      @ ../../../Library/StdDriver/src/timer.c:169:59
	movs	r1, #1
	lsls	r1, r1, #30
	orrs	r0, r1
	.loc	2 169 5                 @ ../../../Library/StdDriver/src/timer.c:169:5
	ldr	r1, [sp, #36]
	.loc	2 169 16                @ ../../../Library/StdDriver/src/timer.c:169:16
	str	r0, [r1]
	.loc	2 173 5 is_stmt 1       @ ../../../Library/StdDriver/src/timer.c:173:5
	b	.LBB3_26
.LBB3_26:                               @ =>This Inner Loop Header: Depth=1
.Ltmp68:
	.loc	2 173 11 is_stmt 0      @ ../../../Library/StdDriver/src/timer.c:173:11
	ldr	r0, [sp, #20]
.Ltmp69:
	.loc	2 173 5                 @ ../../../Library/StdDriver/src/timer.c:173:5
	cmp	r0, #0
	beq	.LBB3_29
	b	.LBB3_27
.LBB3_27:                               @   in Loop: Header=BB3_26 Depth=1
.Ltmp70:
	.loc	2 175 9 is_stmt 1       @ ../../../Library/StdDriver/src/timer.c:175:9
	nop
	.loc	2 176 5                 @ ../../../Library/StdDriver/src/timer.c:176:5
	b	.LBB3_28
.Ltmp71:
.LBB3_28:                               @   in Loop: Header=BB3_26 Depth=1
	.loc	2 173 27                @ ../../../Library/StdDriver/src/timer.c:173:27
	ldr	r0, [sp, #20]
	subs	r0, r0, #1
	str	r0, [sp, #20]
	.loc	2 173 5 is_stmt 0       @ ../../../Library/StdDriver/src/timer.c:173:5
	b	.LBB3_26
.Ltmp72:
.LBB3_29:
	.loc	2 178 5 is_stmt 1       @ ../../../Library/StdDriver/src/timer.c:178:5
	b	.LBB3_30
.LBB3_30:                               @ =>This Inner Loop Header: Depth=1
	.loc	2 178 11 is_stmt 0      @ ../../../Library/StdDriver/src/timer.c:178:11
	ldr	r0, [sp, #36]
	.loc	2 178 18                @ ../../../Library/StdDriver/src/timer.c:178:18
	ldr	r0, [r0]
	.loc	2 178 22                @ ../../../Library/StdDriver/src/timer.c:178:22
	movs	r1, #1
	lsls	r1, r1, #25
	.loc	2 178 5                 @ ../../../Library/StdDriver/src/timer.c:178:5
	tst	r0, r1
	beq	.LBB3_32
	b	.LBB3_31
.LBB3_31:                               @   in Loop: Header=BB3_30 Depth=1
	b	.LBB3_30
.LBB3_32:
	.loc	2 179 1 is_stmt 1       @ ../../../Library/StdDriver/src/timer.c:179:1
	add	sp, #40
	pop	{r7, pc}
.Ltmp73:
	.p2align	2
@ %bb.33:
	.loc	2 0 1 is_stmt 0         @ ../../../Library/StdDriver/src/timer.c:0:1
__arm_cp.3_0:
	.long	SystemCoreClock
.Lcpi_end9:
	.size	__arm_cp.3_0, .Lcpi_end9-__arm_cp.3_0
__arm_cp.3_1:
	.long	1000000                 @ 0xf4240
.Lcpi_end10:
	.size	__arm_cp.3_1, .Lcpi_end10-__arm_cp.3_1
__arm_cp.3_2:
	.long	1000001                 @ 0xf4241
.Lcpi_end11:
	.size	__arm_cp.3_2, .Lcpi_end11-__arm_cp.3_2
__arm_cp.3_3:
	.long	64000001                @ 0x3d09001
.Lcpi_end12:
	.size	__arm_cp.3_3, .Lcpi_end12-__arm_cp.3_3
__arm_cp.3_4:
	.long	32000001                @ 0x1e84801
.Lcpi_end13:
	.size	__arm_cp.3_4, .Lcpi_end13-__arm_cp.3_4
__arm_cp.3_5:
	.long	16000001                @ 0xf42401
.Lcpi_end14:
	.size	__arm_cp.3_5, .Lcpi_end14-__arm_cp.3_5
__arm_cp.3_6:
	.long	1000000000              @ 0x3b9aca00
.Lcpi_end15:
	.size	__arm_cp.3_6, .Lcpi_end15-__arm_cp.3_6
.Lfunc_end3:
	.size	TIMER_Delay, .Lfunc_end3-TIMER_Delay
	.cfi_endproc
	.cantunwind
	.fnend
                                        @ -- End function
	.section	.text.TIMER_EnableCapture,"ax",%progbits
	.hidden	TIMER_EnableCapture     @ -- Begin function TIMER_EnableCapture
	.globl	TIMER_EnableCapture
	.p2align	1
	.type	TIMER_EnableCapture,%function
	.code	16                      @ @TIMER_EnableCapture
	.thumb_func
TIMER_EnableCapture:
.Lfunc_begin4:
	.loc	2 200 0 is_stmt 1       @ ../../../Library/StdDriver/src/timer.c:200:0
	.fnstart
	.cfi_startproc
@ %bb.0:
	.save	{r4, r5, r7, lr}
	push	{r4, r5, r7, lr}
	.cfi_def_cfa_offset 16
	.cfi_offset lr, -4
	.cfi_offset r7, -8
	.cfi_offset r5, -12
	.cfi_offset r4, -16
	.pad	#24
	sub	sp, #24
	.cfi_def_cfa_offset 40
	mov	r3, r2
	mov	r4, r1
	mov	r5, r0
	str	r0, [sp, #20]
	str	r1, [sp, #16]
	str	r2, [sp, #12]
.Ltmp74:
	.loc	2 201 22 prologue_end   @ ../../../Library/StdDriver/src/timer.c:201:22
	ldr	r0, [sp, #20]
	.loc	2 201 29 is_stmt 0      @ ../../../Library/StdDriver/src/timer.c:201:29
	ldr	r0, [r0, #20]
	.loc	2 201 36                @ ../../../Library/StdDriver/src/timer.c:201:36
	movs	r1, #30
	bics	r0, r1
	.loc	2 202 21 is_stmt 1      @ ../../../Library/StdDriver/src/timer.c:202:21
	ldr	r1, [sp, #16]
	.loc	2 201 95                @ ../../../Library/StdDriver/src/timer.c:201:95
	orrs	r0, r1
	.loc	2 202 34                @ ../../../Library/StdDriver/src/timer.c:202:34
	ldr	r1, [sp, #12]
	.loc	2 202 32 is_stmt 0      @ ../../../Library/StdDriver/src/timer.c:202:32
	orrs	r0, r1
	.loc	2 202 42                @ ../../../Library/StdDriver/src/timer.c:202:42
	movs	r1, #8
	orrs	r0, r1
	.loc	2 201 5 is_stmt 1       @ ../../../Library/StdDriver/src/timer.c:201:5
	ldr	r1, [sp, #20]
	.loc	2 201 19 is_stmt 0      @ ../../../Library/StdDriver/src/timer.c:201:19
	str	r0, [r1, #20]
	.loc	2 203 1 is_stmt 1       @ ../../../Library/StdDriver/src/timer.c:203:1
	str	r3, [sp, #8]            @ 4-byte Spill
	str	r4, [sp, #4]            @ 4-byte Spill
	str	r5, [sp]                @ 4-byte Spill
	add	sp, #24
	pop	{r4, r5, r7, pc}
.Ltmp75:
.Lfunc_end4:
	.size	TIMER_EnableCapture, .Lfunc_end4-TIMER_EnableCapture
	.cfi_endproc
	.cantunwind
	.fnend
                                        @ -- End function
	.section	.text.TIMER_DisableCapture,"ax",%progbits
	.hidden	TIMER_DisableCapture    @ -- Begin function TIMER_DisableCapture
	.globl	TIMER_DisableCapture
	.p2align	1
	.type	TIMER_DisableCapture,%function
	.code	16                      @ @TIMER_DisableCapture
	.thumb_func
TIMER_DisableCapture:
.Lfunc_begin5:
	.loc	2 215 0                 @ ../../../Library/StdDriver/src/timer.c:215:0
	.fnstart
	.cfi_startproc
@ %bb.0:
	.pad	#8
	sub	sp, #8
	.cfi_def_cfa_offset 8
	mov	r1, r0
	str	r0, [sp, #4]
.Ltmp76:
	.loc	2 216 5 prologue_end    @ ../../../Library/StdDriver/src/timer.c:216:5
	ldr	r0, [sp, #4]
	.loc	2 216 19 is_stmt 0      @ ../../../Library/StdDriver/src/timer.c:216:19
	ldr	r2, [r0, #20]
	movs	r3, #8
	bics	r2, r3
	str	r2, [r0, #20]
	.loc	2 217 1 is_stmt 1       @ ../../../Library/StdDriver/src/timer.c:217:1
	str	r1, [sp]                @ 4-byte Spill
	add	sp, #8
	bx	lr
.Ltmp77:
.Lfunc_end5:
	.size	TIMER_DisableCapture, .Lfunc_end5-TIMER_DisableCapture
	.cfi_endproc
	.cantunwind
	.fnend
                                        @ -- End function
	.section	.text.TIMER_EnableEventCounter,"ax",%progbits
	.hidden	TIMER_EnableEventCounter @ -- Begin function TIMER_EnableEventCounter
	.globl	TIMER_EnableEventCounter
	.p2align	1
	.type	TIMER_EnableEventCounter,%function
	.code	16                      @ @TIMER_EnableEventCounter
	.thumb_func
TIMER_EnableEventCounter:
.Lfunc_begin6:
	.loc	2 234 0                 @ ../../../Library/StdDriver/src/timer.c:234:0
	.fnstart
	.cfi_startproc
@ %bb.0:
	.save	{r4, r5, r7, lr}
	push	{r4, r5, r7, lr}
	.cfi_def_cfa_offset 16
	.cfi_offset lr, -4
	.cfi_offset r7, -8
	.cfi_offset r5, -12
	.cfi_offset r4, -16
	.pad	#16
	sub	sp, #16
	.cfi_def_cfa_offset 32
	mov	r2, r1
	mov	r3, r0
	str	r0, [sp, #12]
	str	r1, [sp, #8]
.Ltmp78:
	.loc	2 235 22 prologue_end   @ ../../../Library/StdDriver/src/timer.c:235:22
	ldr	r0, [sp, #12]
	.loc	2 235 29 is_stmt 0      @ ../../../Library/StdDriver/src/timer.c:235:29
	ldr	r0, [r0, #20]
	movs	r1, #1
	.loc	2 235 36                @ ../../../Library/StdDriver/src/timer.c:235:36
	bics	r0, r1
	.loc	2 235 68                @ ../../../Library/StdDriver/src/timer.c:235:68
	ldr	r4, [sp, #8]
	.loc	2 235 66                @ ../../../Library/StdDriver/src/timer.c:235:66
	orrs	r0, r4
	.loc	2 235 5                 @ ../../../Library/StdDriver/src/timer.c:235:5
	ldr	r4, [sp, #12]
	.loc	2 235 19                @ ../../../Library/StdDriver/src/timer.c:235:19
	str	r0, [r4, #20]
	.loc	2 236 5 is_stmt 1       @ ../../../Library/StdDriver/src/timer.c:236:5
	ldr	r0, [sp, #12]
	.loc	2 236 16 is_stmt 0      @ ../../../Library/StdDriver/src/timer.c:236:16
	ldr	r4, [r0]
	lsls	r5, r1, #24
	orrs	r4, r5
	str	r4, [r0]
	.loc	2 237 5 is_stmt 1       @ ../../../Library/StdDriver/src/timer.c:237:5
	ldr	r0, [sp, #12]
	.loc	2 237 16 is_stmt 0      @ ../../../Library/StdDriver/src/timer.c:237:16
	ldr	r4, [r0]
	lsls	r1, r1, #26
	orrs	r4, r1
	str	r4, [r0]
	.loc	2 238 1 is_stmt 1       @ ../../../Library/StdDriver/src/timer.c:238:1
	str	r2, [sp, #4]            @ 4-byte Spill
	str	r3, [sp]                @ 4-byte Spill
	add	sp, #16
	pop	{r4, r5, r7, pc}
.Ltmp79:
.Lfunc_end6:
	.size	TIMER_EnableEventCounter, .Lfunc_end6-TIMER_EnableEventCounter
	.cfi_endproc
	.cantunwind
	.fnend
                                        @ -- End function
	.section	.text.TIMER_DisableEventCounter,"ax",%progbits
	.hidden	TIMER_DisableEventCounter @ -- Begin function TIMER_DisableEventCounter
	.globl	TIMER_DisableEventCounter
	.p2align	1
	.type	TIMER_DisableEventCounter,%function
	.code	16                      @ @TIMER_DisableEventCounter
	.thumb_func
TIMER_DisableEventCounter:
.Lfunc_begin7:
	.loc	2 250 0                 @ ../../../Library/StdDriver/src/timer.c:250:0
	.fnstart
	.cfi_startproc
@ %bb.0:
	.pad	#8
	sub	sp, #8
	.cfi_def_cfa_offset 8
	mov	r1, r0
	str	r0, [sp, #4]
.Ltmp80:
	.loc	2 251 5 prologue_end    @ ../../../Library/StdDriver/src/timer.c:251:5
	ldr	r0, [sp, #4]
	.loc	2 251 16 is_stmt 0      @ ../../../Library/StdDriver/src/timer.c:251:16
	ldr	r2, [r0]
	movs	r3, #1
	lsls	r3, r3, #24
	bics	r2, r3
	str	r2, [r0]
	.loc	2 252 1 is_stmt 1       @ ../../../Library/StdDriver/src/timer.c:252:1
	str	r1, [sp]                @ 4-byte Spill
	add	sp, #8
	bx	lr
.Ltmp81:
.Lfunc_end7:
	.size	TIMER_DisableEventCounter, .Lfunc_end7-TIMER_DisableEventCounter
	.cfi_endproc
	.cantunwind
	.fnend
                                        @ -- End function
	.section	.text.TIMER_EnableFreqCounter,"ax",%progbits
	.hidden	TIMER_EnableFreqCounter @ -- Begin function TIMER_EnableFreqCounter
	.globl	TIMER_EnableFreqCounter
	.p2align	2
	.type	TIMER_EnableFreqCounter,%function
	.code	16                      @ @TIMER_EnableFreqCounter
	.thumb_func
TIMER_EnableFreqCounter:
.Lfunc_begin8:
	.loc	2 303 0                 @ ../../../Library/StdDriver/src/timer.c:303:0
	.fnstart
	.cfi_startproc
@ %bb.0:
	.save	{r4, r5, r6, r7, lr}
	push	{r4, r5, r6, r7, lr}
	.cfi_def_cfa_offset 20
	.cfi_offset lr, -4
	.cfi_offset r7, -8
	.cfi_offset r6, -12
	.cfi_offset r5, -16
	.cfi_offset r4, -20
	.pad	#52
	sub	sp, #52
	.cfi_def_cfa_offset 72
	mov	r4, r3
	mov	r5, r2
	mov	r6, r1
	mov	r7, r0
	str	r0, [sp, #48]
	str	r1, [sp, #44]
	str	r2, [sp, #40]
	str	r3, [sp, #36]
.Ltmp82:
	.loc	2 306 10 prologue_end   @ ../../../Library/StdDriver/src/timer.c:306:10
	ldr	r0, [sp, #48]
	.loc	2 306 16 is_stmt 0      @ ../../../Library/StdDriver/src/timer.c:306:16
	ldr	r1, __arm_cp.8_0
	.loc	2 306 9                 @ ../../../Library/StdDriver/src/timer.c:306:9
	ldr	r2, __arm_cp.8_1
	ldr	r3, __arm_cp.8_2
	cmp	r0, r1
	str	r4, [sp, #28]           @ 4-byte Spill
	str	r5, [sp, #24]           @ 4-byte Spill
	str	r6, [sp, #20]           @ 4-byte Spill
	str	r7, [sp, #16]           @ 4-byte Spill
	str	r3, [sp, #12]           @ 4-byte Spill
	str	r2, [sp, #8]            @ 4-byte Spill
	beq	.LBB8_2
@ %bb.1:
	ldr	r0, [sp, #12]           @ 4-byte Reload
	str	r0, [sp, #8]            @ 4-byte Spill
.LBB8_2:
	ldr	r0, [sp, #8]            @ 4-byte Reload
	.loc	2 306 7                 @ ../../../Library/StdDriver/src/timer.c:306:7
	str	r0, [sp, #32]
	.loc	2 308 5 is_stmt 1       @ ../../../Library/StdDriver/src/timer.c:308:5
	ldr	r0, [sp, #32]
	.loc	2 308 12 is_stmt 0      @ ../../../Library/StdDriver/src/timer.c:308:12
	ldr	r1, __arm_cp.8_3
	str	r1, [r0, #4]
	.loc	2 309 17 is_stmt 1      @ ../../../Library/StdDriver/src/timer.c:309:17
	ldr	r0, [sp, #36]
	movs	r1, #1
	cmp	r0, #0
	str	r0, [sp, #4]            @ 4-byte Spill
	str	r1, [sp]                @ 4-byte Spill
	bne	.LBB8_4
@ %bb.3:
	ldr	r0, [sp, #4]            @ 4-byte Reload
	str	r0, [sp]                @ 4-byte Spill
.LBB8_4:
	ldr	r0, [sp]                @ 4-byte Reload
	lsls	r0, r0, #5
	.loc	2 309 5 is_stmt 0       @ ../../../Library/StdDriver/src/timer.c:309:5
	ldr	r1, [sp, #32]
	.loc	2 309 15                @ ../../../Library/StdDriver/src/timer.c:309:15
	str	r0, [r1, #20]
	.loc	2 310 5 is_stmt 1       @ ../../../Library/StdDriver/src/timer.c:310:5
	ldr	r0, [sp, #48]
	.loc	2 310 16 is_stmt 0      @ ../../../Library/StdDriver/src/timer.c:310:16
	ldr	r1, __arm_cp.8_4
	str	r1, [r0]
	.loc	2 312 5 is_stmt 1       @ ../../../Library/StdDriver/src/timer.c:312:5
	add	sp, #52
	pop	{r4, r5, r6, r7, pc}
.Ltmp83:
	.p2align	2
@ %bb.5:
	.loc	2 0 5 is_stmt 0         @ ../../../Library/StdDriver/src/timer.c:0:5
__arm_cp.8_0:
	.long	1073807360              @ 0x40010000
.Lcpi_end16:
	.size	__arm_cp.8_0, .Lcpi_end16-__arm_cp.8_0
__arm_cp.8_1:
	.long	1073807392              @ 0x40010020
.Lcpi_end17:
	.size	__arm_cp.8_1, .Lcpi_end17-__arm_cp.8_1
__arm_cp.8_2:
	.long	1074855968              @ 0x40110020
.Lcpi_end18:
	.size	__arm_cp.8_2, .Lcpi_end18-__arm_cp.8_2
__arm_cp.8_3:
	.long	16777215                @ 0xffffff
.Lcpi_end19:
	.size	__arm_cp.8_3, .Lcpi_end19-__arm_cp.8_3
__arm_cp.8_4:
	.long	1073742848              @ 0x40000400
.Lcpi_end20:
	.size	__arm_cp.8_4, .Lcpi_end20-__arm_cp.8_4
.Lfunc_end8:
	.size	TIMER_EnableFreqCounter, .Lfunc_end8-TIMER_EnableFreqCounter
	.cfi_endproc
	.cantunwind
	.fnend
                                        @ -- End function
	.section	.text.TIMER_DisableFreqCounter,"ax",%progbits
	.hidden	TIMER_DisableFreqCounter @ -- Begin function TIMER_DisableFreqCounter
	.globl	TIMER_DisableFreqCounter
	.p2align	1
	.type	TIMER_DisableFreqCounter,%function
	.code	16                      @ @TIMER_DisableFreqCounter
	.thumb_func
TIMER_DisableFreqCounter:
.Lfunc_begin9:
	.loc	2 323 0 is_stmt 1       @ ../../../Library/StdDriver/src/timer.c:323:0
	.fnstart
	.cfi_startproc
@ %bb.0:
	.pad	#8
	sub	sp, #8
	.cfi_def_cfa_offset 8
	mov	r1, r0
	str	r0, [sp, #4]
.Ltmp84:
	.loc	2 324 5 prologue_end    @ ../../../Library/StdDriver/src/timer.c:324:5
	ldr	r0, [sp, #4]
	.loc	2 324 16 is_stmt 0      @ ../../../Library/StdDriver/src/timer.c:324:16
	ldr	r2, [r0]
	movw	r3, #1024
	bics	r2, r3
	str	r2, [r0]
	.loc	2 325 1 is_stmt 1       @ ../../../Library/StdDriver/src/timer.c:325:1
	str	r1, [sp]                @ 4-byte Spill
	add	sp, #8
	bx	lr
.Ltmp85:
.Lfunc_end9:
	.size	TIMER_DisableFreqCounter, .Lfunc_end9-TIMER_DisableFreqCounter
	.cfi_endproc
	.cantunwind
	.fnend
                                        @ -- End function
	.section	.text.TIMER_SetTriggerSource,"ax",%progbits
	.hidden	TIMER_SetTriggerSource  @ -- Begin function TIMER_SetTriggerSource
	.globl	TIMER_SetTriggerSource
	.p2align	1
	.type	TIMER_SetTriggerSource,%function
	.code	16                      @ @TIMER_SetTriggerSource
	.thumb_func
TIMER_SetTriggerSource:
.Lfunc_begin10:
	.loc	2 338 0                 @ ../../../Library/StdDriver/src/timer.c:338:0
	.fnstart
	.cfi_startproc
@ %bb.0:
	.pad	#16
	sub	sp, #16
	.cfi_def_cfa_offset 16
	mov	r2, r1
	mov	r3, r0
	str	r0, [sp, #12]
	str	r1, [sp, #8]
.Ltmp86:
	.loc	2 339 19 prologue_end   @ ../../../Library/StdDriver/src/timer.c:339:19
	ldr	r0, [sp, #12]
	.loc	2 339 26 is_stmt 0      @ ../../../Library/StdDriver/src/timer.c:339:26
	ldr	r0, [r0]
	.loc	2 339 30                @ ../../../Library/StdDriver/src/timer.c:339:30
	movs	r1, #1
	lsls	r1, r1, #18
	bics	r0, r1
	.loc	2 339 58                @ ../../../Library/StdDriver/src/timer.c:339:58
	ldr	r1, [sp, #8]
	.loc	2 339 56                @ ../../../Library/StdDriver/src/timer.c:339:56
	orrs	r0, r1
	.loc	2 339 5                 @ ../../../Library/StdDriver/src/timer.c:339:5
	ldr	r1, [sp, #12]
	.loc	2 339 16                @ ../../../Library/StdDriver/src/timer.c:339:16
	str	r0, [r1]
	.loc	2 340 1 is_stmt 1       @ ../../../Library/StdDriver/src/timer.c:340:1
	str	r2, [sp, #4]            @ 4-byte Spill
	str	r3, [sp]                @ 4-byte Spill
	add	sp, #16
	bx	lr
.Ltmp87:
.Lfunc_end10:
	.size	TIMER_SetTriggerSource, .Lfunc_end10-TIMER_SetTriggerSource
	.cfi_endproc
	.cantunwind
	.fnend
                                        @ -- End function
	.section	.text.TIMER_SetTriggerTarget,"ax",%progbits
	.hidden	TIMER_SetTriggerTarget  @ -- Begin function TIMER_SetTriggerTarget
	.globl	TIMER_SetTriggerTarget
	.p2align	2
	.type	TIMER_SetTriggerTarget,%function
	.code	16                      @ @TIMER_SetTriggerTarget
	.thumb_func
TIMER_SetTriggerTarget:
.Lfunc_begin11:
	.loc	2 355 0                 @ ../../../Library/StdDriver/src/timer.c:355:0
	.fnstart
	.cfi_startproc
@ %bb.0:
	.pad	#16
	sub	sp, #16
	.cfi_def_cfa_offset 16
	mov	r2, r1
	mov	r3, r0
	str	r0, [sp, #12]
	str	r1, [sp, #8]
.Ltmp88:
	.loc	2 356 19 prologue_end   @ ../../../Library/StdDriver/src/timer.c:356:19
	ldr	r0, [sp, #12]
	.loc	2 356 26 is_stmt 0      @ ../../../Library/StdDriver/src/timer.c:356:26
	ldr	r0, [r0]
	.loc	2 356 30                @ ../../../Library/StdDriver/src/timer.c:356:30
	ldr	r1, __arm_cp.11_0
	ands	r0, r1
	.loc	2 356 136               @ ../../../Library/StdDriver/src/timer.c:356:136
	ldr	r1, [sp, #8]
	.loc	2 356 133               @ ../../../Library/StdDriver/src/timer.c:356:133
	orrs	r0, r1
	.loc	2 356 5                 @ ../../../Library/StdDriver/src/timer.c:356:5
	ldr	r1, [sp, #12]
	.loc	2 356 16                @ ../../../Library/StdDriver/src/timer.c:356:16
	str	r0, [r1]
	.loc	2 357 1 is_stmt 1       @ ../../../Library/StdDriver/src/timer.c:357:1
	str	r2, [sp, #4]            @ 4-byte Spill
	str	r3, [sp]                @ 4-byte Spill
	add	sp, #16
	bx	lr
.Ltmp89:
	.p2align	2
@ %bb.1:
	.loc	2 0 1 is_stmt 0         @ ../../../Library/StdDriver/src/timer.c:0:1
__arm_cp.11_0:
	.long	4292345087              @ 0xffd7fcff
.Lcpi_end21:
	.size	__arm_cp.11_0, .Lcpi_end21-__arm_cp.11_0
.Lfunc_end11:
	.size	TIMER_SetTriggerTarget, .Lfunc_end11-TIMER_SetTriggerTarget
	.cfi_endproc
	.cantunwind
	.fnend
                                        @ -- End function
	.type	TIMER_GetModuleClock.au32Clk,%object @ @TIMER_GetModuleClock.au32Clk
	.section	.rodata.TIMER_GetModuleClock.au32Clk,"a",%progbits
	.p2align	2
TIMER_GetModuleClock.au32Clk:
	.long	12000000                @ 0xb71b00
	.long	32768                   @ 0x8000
	.long	0                       @ 0x0
	.long	0                       @ 0x0
	.long	0                       @ 0x0
	.long	10000                   @ 0x2710
	.long	0                       @ 0x0
	.long	24000000                @ 0x16e3600
	.size	TIMER_GetModuleClock.au32Clk, 32

	.section	".note.GNU-stack","",%progbits
	.eabi_attribute	30, 6	@ Tag_ABI_optimization_goals
	.ARM_attribute	16, 1	@ Tag_AV_eba