	.text
	.syntax unified
	.eabi_attribute	67, "2.09"	@ Tag_conformance
	.cpu	cortex-m23
	.eabi_attribute	6, 16	@ Tag_CPU_arch
	.eabi_attribute	7, 77	@ Tag_CPU_arch_profile
	.eabi_attribute	8, 0	@ Tag_ARM_ISA_use
	.eabi_attribute	9, 3	@ Tag_THUMB_ISA_use
	.eabi_attribute	34, 0	@ Tag_CPU_unaligned_access
	.eabi_attribute	17, 1	@ Tag_ABI_PCS_GOT_use
	.eabi_attribute	20, 2	@ Tag_ABI_FP_denormal
	.eabi_attribute	21, 0	@ Tag_ABI_FP_exceptions
	.eabi_attribute	23, 1	@ Tag_ABI_FP_number_model
	.eabi_attribute	24, 1	@ Tag_ABI_align_needed
	.eabi_attribute	25, 1	@ Tag_ABI_align_preserved
	.eabi_attribute	38, 1	@ Tag_ABI_FP_16bit_format
	.eabi_attribute	18, 2	@ Tag_ABI_PCS_wchar_t
	.eabi_attribute	26, 1	@ Tag_ABI_enum_size
	.eabi_attribute	14, 0	@ Tag_ABI_PCS_R9_use
	.file	"uart.c"
	.file	1 "../../../Library/Device/Nuvoton/NUC1262/Include" "NUC1262.h"
	.file	2 "C:\\Keil_v5\\ARM\\ARMCLANG\\Bin\\..\\include" "stdint.h"
	.file	3 "../../../Library/CMSIS/Include" "core_cm0.h"
	.section	.text.UART_ClearIntFlag,"ax",%progbits
	.hidden	UART_ClearIntFlag       @ -- Begin function UART_ClearIntFlag
	.globl	UART_ClearIntFlag
	.p2align	2
	.type	UART_ClearIntFlag,%function
	.code	16                      @ @UART_ClearIntFlag
	.thumb_func
UART_ClearIntFlag:
.Lfunc_begin0:
	.file	4 "../../../Library/StdDriver/src" "uart.c"
	.loc	4 40 0                  @ ../../../Library/StdDriver/src/uart.c:40:0
	.fnstart
	.cfi_sections .debug_frame
	.cfi_startproc
@ %bb.0:
	.pad	#16
	sub	sp, #16
	.cfi_def_cfa_offset 16
	mov	r2, r1
	mov	r3, r0
	str	r0, [sp, #12]
	str	r1, [sp, #8]
	add	r0, sp, #8
.Ltmp0:
	.loc	4 42 8 prologue_end     @ ../../../Library/StdDriver/src/uart.c:42:8
	ldrb	r0, [r0, #1]
	lsls	r0, r0, #29
	cmp	r0, #0
	str	r2, [sp, #4]            @ 4-byte Spill
	str	r3, [sp]                @ 4-byte Spill
	bpl	.LBB0_2
	b	.LBB0_1
.LBB0_1:
.Ltmp1:
	.loc	4 43 9                  @ ../../../Library/StdDriver/src/uart.c:43:9
	ldr	r0, [sp, #12]
	.loc	4 43 23 is_stmt 0       @ ../../../Library/StdDriver/src/uart.c:43:23
	movs	r1, #104
	str	r1, [r0, #24]
	.loc	4 43 9                  @ ../../../Library/StdDriver/src/uart.c:43:9
	b	.LBB0_2
.Ltmp2:
.LBB0_2:
	.loc	4 0 9                   @ ../../../Library/StdDriver/src/uart.c:0:9
	add	r0, sp, #8
	.loc	4 45 8 is_stmt 1        @ ../../../Library/StdDriver/src/uart.c:45:8
	ldrb	r0, [r0, #1]
	lsls	r0, r0, #28
	cmp	r0, #0
	bpl	.LBB0_4
	b	.LBB0_3
.LBB0_3:
.Ltmp3:
	.loc	4 46 9                  @ ../../../Library/StdDriver/src/uart.c:46:9
	ldr	r0, [sp, #12]
	.loc	4 46 24 is_stmt 0       @ ../../../Library/StdDriver/src/uart.c:46:24
	ldr	r1, [r0, #20]
	movs	r2, #1
	orrs	r1, r2
	str	r1, [r0, #20]
	.loc	4 46 9                  @ ../../../Library/StdDriver/src/uart.c:46:9
	b	.LBB0_4
.Ltmp4:
.LBB0_4:
	.loc	4 0 9                   @ ../../../Library/StdDriver/src/uart.c:0:9
	add	r0, sp, #8
	.loc	4 48 8 is_stmt 1        @ ../../../Library/StdDriver/src/uart.c:48:8
	ldrb	r0, [r0, #1]
	lsls	r0, r0, #26
	cmp	r0, #0
	bpl	.LBB0_6
	b	.LBB0_5
.LBB0_5:
.Ltmp5:
	.loc	4 49 9                  @ ../../../Library/StdDriver/src/uart.c:49:9
	ldr	r0, [sp, #12]
	.loc	4 49 23 is_stmt 0       @ ../../../Library/StdDriver/src/uart.c:49:23
	ldr	r1, __arm_cp.0_0
	str	r1, [r0, #24]
	.loc	4 49 9                  @ ../../../Library/StdDriver/src/uart.c:49:9
	b	.LBB0_6
.Ltmp6:
.LBB0_6:
	.loc	4 0 9                   @ ../../../Library/StdDriver/src/uart.c:0:9
	add	r0, sp, #8
	.loc	4 51 8 is_stmt 1        @ ../../../Library/StdDriver/src/uart.c:51:8
	ldrb	r0, [r0, #1]
	lsls	r0, r0, #25
	cmp	r0, #0
	bpl	.LBB0_8
	b	.LBB0_7
.LBB0_7:
.Ltmp7:
	.loc	4 52 23                 @ ../../../Library/StdDriver/src/uart.c:52:23
	ldr	r0, [sp, #12]
	.loc	4 52 29 is_stmt 0       @ ../../../Library/StdDriver/src/uart.c:52:29
	ldr	r0, [r0, #68]
	.loc	4 52 9                  @ ../../../Library/StdDriver/src/uart.c:52:9
	ldr	r1, [sp, #12]
	.loc	4 52 21                 @ ../../../Library/StdDriver/src/uart.c:52:21
	str	r0, [r1, #68]
	.loc	4 52 9                  @ ../../../Library/StdDriver/src/uart.c:52:9
	b	.LBB0_8
.Ltmp8:
.LBB0_8:
	.loc	4 54 1 is_stmt 1        @ ../../../Library/StdDriver/src/uart.c:54:1
	add	sp, #16
	bx	lr
.Ltmp9:
	.p2align	2
@ %bb.9:
	.loc	4 0 1 is_stmt 0         @ ../../../Library/StdDriver/src/uart.c:0:1
__arm_cp.0_0:
	.long	16777217                @ 0x1000001
.Lcpi_end0:
	.size	__arm_cp.0_0, .Lcpi_end0-__arm_cp.0_0
.Lfunc_end0:
	.size	UART_ClearIntFlag, .Lfunc_end0-UART_ClearIntFlag
	.cfi_endproc
	.cantunwind
	.fnend
                                        @ -- End function
	.section	.text.UART_Close,"ax",%progbits
	.hidden	UART_Close              @ -- Begin function UART_Close
	.globl	UART_Close
	.p2align	1
	.type	UART_Close,%function
	.code	16                      @ @UART_Close
	.thumb_func
UART_Close:
.Lfunc_begin1:
	.loc	4 67 0 is_stmt 1        @ ../../../Library/StdDriver/src/uart.c:67:0
	.fnstart
	.cfi_startproc
@ %bb.0:
	.pad	#8
	sub	sp, #8
	.cfi_def_cfa_offset 8
	mov	r1, r0
	str	r0, [sp, #4]
.Ltmp10:
	.loc	4 68 5 prologue_end     @ ../../../Library/StdDriver/src/uart.c:68:5
	ldr	r0, [sp, #4]
	movs	r2, #0
	.loc	4 68 17 is_stmt 0       @ ../../../Library/StdDriver/src/uart.c:68:17
	str	r2, [r0, #4]
	.loc	4 69 1 is_stmt 1        @ ../../../Library/StdDriver/src/uart.c:69:1
	str	r1, [sp]                @ 4-byte Spill
	add	sp, #8
	bx	lr
.Ltmp11:
.Lfunc_end1:
	.size	UART_Close, .Lfunc_end1-UART_Close
	.cfi_endproc
	.cantunwind
	.fnend
                                        @ -- End function
	.section	.text.UART_DisableFlowCtrl,"ax",%progbits
	.hidden	UART_DisableFlowCtrl    @ -- Begin function UART_DisableFlowCtrl
	.globl	UART_DisableFlowCtrl
	.p2align	1
	.type	UART_DisableFlowCtrl,%function
	.code	16                      @ @UART_DisableFlowCtrl
	.thumb_func
UART_DisableFlowCtrl:
.Lfunc_begin2:
	.loc	4 82 0                  @ ../../../Library/StdDriver/src/uart.c:82:0
	.fnstart
	.cfi_startproc
@ %bb.0:
	.pad	#8
	sub	sp, #8
	.cfi_def_cfa_offset 8
	mov	r1, r0
	str	r0, [sp, #4]
.Ltmp12:
	.loc	4 83 5 prologue_end     @ ../../../Library/StdDriver/src/uart.c:83:5
	ldr	r0, [sp, #4]
	.loc	4 83 17 is_stmt 0       @ ../../../Library/StdDriver/src/uart.c:83:17
	ldr	r2, [r0, #4]
	movw	r3, #12288
	bics	r2, r3
	str	r2, [r0, #4]
	.loc	4 84 1 is_stmt 1        @ ../../../Library/StdDriver/src/uart.c:84:1
	str	r1, [sp]                @ 4-byte Spill
	add	sp, #8
	bx	lr
.Ltmp13:
.Lfunc_end2:
	.size	UART_DisableFlowCtrl, .Lfunc_end2-UART_DisableFlowCtrl
	.cfi_endproc
	.cantunwind
	.fnend
                                        @ -- End function
	.section	.text.UART_DisableInt,"ax",%progbits
	.hidden	UART_DisableInt         @ -- Begin function UART_DisableInt
	.globl	UART_DisableInt
	.p2align	2
	.type	UART_DisableInt,%function
	.code	16                      @ @UART_DisableInt
	.thumb_func
UART_DisableInt:
.Lfunc_begin3:
	.loc	4 107 0                 @ ../../../Library/StdDriver/src/uart.c:107:0
	.fnstart
	.cfi_startproc
@ %bb.0:
	.save	{r4, lr}
	push	{r4, lr}
	.cfi_def_cfa_offset 8
	.cfi_offset lr, -4
	.cfi_offset r4, -8
	.pad	#16
	sub	sp, #16
	.cfi_def_cfa_offset 24
	mov	r2, r1
	mov	r3, r0
	str	r0, [sp, #12]
	str	r1, [sp, #8]
.Ltmp14:
	.loc	4 109 5 prologue_end    @ ../../../Library/StdDriver/src/uart.c:109:5
	ldr	r0, [sp, #8]
	ldr	r1, [sp, #12]
	ldr	r4, [r1, #4]
	bics	r4, r0
	str	r4, [r1, #4]
.Ltmp15:
	.loc	4 112 8                 @ ../../../Library/StdDriver/src/uart.c:112:8
	ldr	r0, [sp, #12]
	.loc	4 112 13 is_stmt 0      @ ../../../Library/StdDriver/src/uart.c:112:13
	ldr	r1, __arm_cp.3_0
.Ltmp16:
	.loc	4 112 8                 @ ../../../Library/StdDriver/src/uart.c:112:8
	cmp	r0, r1
	str	r2, [sp, #4]            @ 4-byte Spill
	str	r3, [sp]                @ 4-byte Spill
	bne	.LBB3_2
	b	.LBB3_1
.LBB3_1:
.Ltmp17:
	.loc	4 113 9 is_stmt 1       @ ../../../Library/StdDriver/src/uart.c:113:9
	movs	r0, #12
	bl	NVIC_DisableIRQ
	b	.LBB3_5
.LBB3_2:
.Ltmp18:
	.loc	4 114 13                @ ../../../Library/StdDriver/src/uart.c:114:13
	ldr	r0, [sp, #12]
	.loc	4 114 18 is_stmt 0      @ ../../../Library/StdDriver/src/uart.c:114:18
	ldr	r1, __arm_cp.3_1
.Ltmp19:
	.loc	4 114 13                @ ../../../Library/StdDriver/src/uart.c:114:13
	cmp	r0, r1
	bne	.LBB3_4
	b	.LBB3_3
.LBB3_3:
.Ltmp20:
	.loc	4 115 9 is_stmt 1       @ ../../../Library/StdDriver/src/uart.c:115:9
	movs	r0, #13
	bl	NVIC_DisableIRQ
	b	.LBB3_4
.Ltmp21:
.LBB3_4:
	.loc	4 0 9 is_stmt 0         @ ../../../Library/StdDriver/src/uart.c:0:9
	b	.LBB3_5
.LBB3_5:
	.loc	4 116 1 is_stmt 1       @ ../../../Library/StdDriver/src/uart.c:116:1
	add	sp, #16
	pop	{r4, pc}
.Ltmp22:
	.p2align	2
@ %bb.6:
	.loc	4 0 1 is_stmt 0         @ ../../../Library/StdDriver/src/uart.c:0:1
__arm_cp.3_0:
	.long	1074069504              @ 0x40050000
.Lcpi_end1:
	.size	__arm_cp.3_0, .Lcpi_end1-__arm_cp.3_0
__arm_cp.3_1:
	.long	1075118080              @ 0x40150000
.Lcpi_end2:
	.size	__arm_cp.3_1, .Lcpi_end2-__arm_cp.3_1
.Lfunc_end3:
	.size	UART_DisableInt, .Lfunc_end3-UART_DisableInt
	.cfi_endproc
	.cantunwind
	.fnend
                                        @ -- End function
	.section	.text.NVIC_DisableIRQ,"ax",%progbits
	.p2align	2               @ -- Begin function NVIC_DisableIRQ
	.type	NVIC_DisableIRQ,%function
	.code	16                      @ @NVIC_DisableIRQ
	.thumb_func
NVIC_DisableIRQ:
.Lfunc_begin4:
	.loc	3 644 0 is_stmt 1       @ ../../../Library/CMSIS/Include\core_cm0.h:644:0
	.fnstart
	.cfi_startproc
@ %bb.0:
	.pad	#8
	sub	sp, #8
	.cfi_def_cfa_offset 8
	mov	r1, r0
	add	r2, sp, #4
	strb	r0, [r2]
.Ltmp23:
	.loc	3 645 8 prologue_end    @ ../../../Library/CMSIS/Include\core_cm0.h:645:8
	ldrb	r0, [r2]
	sxtb	r0, r0
.Ltmp24:
	.loc	3 645 8 is_stmt 0       @ ../../../Library/CMSIS/Include\core_cm0.h:645:8
	cmp	r0, #0
	str	r1, [sp]                @ 4-byte Spill
	blt	.LBB4_2
	b	.LBB4_1
.LBB4_1:
	.loc	3 0 8                   @ ../../../Library/CMSIS/Include\core_cm0.h:0:8
	add	r0, sp, #4
.Ltmp25:
	.loc	3 647 88 is_stmt 1      @ ../../../Library/CMSIS/Include\core_cm0.h:647:88
	ldrb	r0, [r0]
	sxtb	r0, r0
	.loc	3 647 103 is_stmt 0     @ ../../../Library/CMSIS/Include\core_cm0.h:647:103
	movs	r1, #31
	mov	r2, r0
	ands	r2, r1
	.loc	3 647 73                @ ../../../Library/CMSIS/Include\core_cm0.h:647:73
	movs	r1, #1
	lsls	r1, r2
	.loc	3 647 9                 @ ../../../Library/CMSIS/Include\core_cm0.h:647:9
	lsrs	r0, r0, #3
	.loc	3 647 47                @ ../../../Library/CMSIS/Include\core_cm0.h:647:47
	ldr	r2, __arm_cp.4_0
	ands	r0, r2
	.loc	3 647 9                 @ ../../../Library/CMSIS/Include\core_cm0.h:647:9
	ldr	r2, __arm_cp.4_1
	.loc	3 647 56                @ ../../../Library/CMSIS/Include\core_cm0.h:647:56
	str	r1, [r0, r2]
	.loc	3 648 5 is_stmt 1       @ ../../../Library/CMSIS/Include\core_cm0.h:648:5
	b	.LBB4_2
.Ltmp26:
.LBB4_2:
	.loc	3 649 1                 @ ../../../Library/CMSIS/Include\core_cm0.h:649:1
	add	sp, #8
	bx	lr
.Ltmp27:
	.p2align	2
@ %bb.3:
	.loc	3 0 1 is_stmt 0         @ ../../../Library/CMSIS/Include\core_cm0.h:0:1
__arm_cp.4_0:
	.long	536870908               @ 0x1ffffffc
.Lcpi_end3:
	.size	__arm_cp.4_0, .Lcpi_end3-__arm_cp.4_0
__arm_cp.4_1:
	.long	3758154112              @ 0xe000e180
.Lcpi_end4:
	.size	__arm_cp.4_1, .Lcpi_end4-__arm_cp.4_1
.Lfunc_end4:
	.size	NVIC_DisableIRQ, .Lfunc_end4-NVIC_DisableIRQ
	.cfi_endproc
	.cantunwind
	.fnend
                                        @ -- End function
	.section	.text.UART_EnableFlowCtrl,"ax",%progbits
	.hidden	UART_EnableFlowCtrl     @ -- Begin function UART_EnableFlowCtrl
	.globl	UART_EnableFlowCtrl
	.p2align	1
	.type	UART_EnableFlowCtrl,%function
	.code	16                      @ @UART_EnableFlowCtrl
	.thumb_func
UART_EnableFlowCtrl:
.Lfunc_begin5:
	.loc	4 138 0 is_stmt 1       @ ../../../Library/StdDriver/src/uart.c:138:0
	.fnstart
	.cfi_startproc
@ %bb.0:
	.pad	#8
	sub	sp, #8
	.cfi_def_cfa_offset 8
	mov	r1, r0
	str	r0, [sp, #4]
.Ltmp28:
	.loc	4 140 5 prologue_end    @ ../../../Library/StdDriver/src/uart.c:140:5
	ldr	r0, [sp, #4]
	.loc	4 140 17 is_stmt 0      @ ../../../Library/StdDriver/src/uart.c:140:17
	ldr	r2, [r0, #16]
	movw	r3, #512
	orrs	r2, r3
	str	r2, [r0, #16]
	.loc	4 143 5 is_stmt 1       @ ../../../Library/StdDriver/src/uart.c:143:5
	ldr	r0, [sp, #4]
	.loc	4 143 20 is_stmt 0      @ ../../../Library/StdDriver/src/uart.c:143:20
	ldr	r2, [r0, #20]
	movw	r3, #256
	orrs	r2, r3
	str	r2, [r0, #20]
	.loc	4 146 5 is_stmt 1       @ ../../../Library/StdDriver/src/uart.c:146:5
	ldr	r0, [sp, #4]
	.loc	4 146 17 is_stmt 0      @ ../../../Library/StdDriver/src/uart.c:146:17
	ldr	r2, [r0, #4]
	movw	r3, #12288
	orrs	r2, r3
	str	r2, [r0, #4]
	.loc	4 147 1 is_stmt 1       @ ../../../Library/StdDriver/src/uart.c:147:1
	str	r1, [sp]                @ 4-byte Spill
	add	sp, #8
	bx	lr
.Ltmp29:
.Lfunc_end5:
	.size	UART_EnableFlowCtrl, .Lfunc_end5-UART_EnableFlowCtrl
	.cfi_endproc
	.cantunwind
	.fnend
                                        @ -- End function
	.section	.text.UART_EnableInt,"ax",%progbits
	.hidden	UART_EnableInt          @ -- Begin function UART_EnableInt
	.globl	UART_EnableInt
	.p2align	2
	.type	UART_EnableInt,%function
	.code	16                      @ @UART_EnableInt
	.thumb_func
UART_EnableInt:
.Lfunc_begin6:
	.loc	4 170 0                 @ ../../../Library/StdDriver/src/uart.c:170:0
	.fnstart
	.cfi_startproc
@ %bb.0:
	.save	{r4, lr}
	push	{r4, lr}
	.cfi_def_cfa_offset 8
	.cfi_offset lr, -4
	.cfi_offset r4, -8
	.pad	#16
	sub	sp, #16
	.cfi_def_cfa_offset 24
	mov	r2, r1
	mov	r3, r0
	str	r0, [sp, #12]
	str	r1, [sp, #8]
.Ltmp30:
	.loc	4 172 5 prologue_end    @ ../../../Library/StdDriver/src/uart.c:172:5
	ldr	r0, [sp, #8]
	ldr	r1, [sp, #12]
	ldr	r4, [r1, #4]
	orrs	r4, r0
	str	r4, [r1, #4]
.Ltmp31:
	.loc	4 175 8                 @ ../../../Library/StdDriver/src/uart.c:175:8
	ldr	r0, [sp, #12]
	.loc	4 175 13 is_stmt 0      @ ../../../Library/StdDriver/src/uart.c:175:13
	ldr	r1, __arm_cp.6_0
.Ltmp32:
	.loc	4 175 8                 @ ../../../Library/StdDriver/src/uart.c:175:8
	cmp	r0, r1
	str	r2, [sp, #4]            @ 4-byte Spill
	str	r3, [sp]                @ 4-byte Spill
	bne	.LBB6_2
	b	.LBB6_1
.LBB6_1:
.Ltmp33:
	.loc	4 176 9 is_stmt 1       @ ../../../Library/StdDriver/src/uart.c:176:9
	movs	r0, #12
	bl	NVIC_EnableIRQ
	b	.LBB6_5
.LBB6_2:
.Ltmp34:
	.loc	4 177 13                @ ../../../Library/StdDriver/src/uart.c:177:13
	ldr	r0, [sp, #12]
	.loc	4 177 18 is_stmt 0      @ ../../../Library/StdDriver/src/uart.c:177:18
	ldr	r1, __arm_cp.6_1
.Ltmp35:
	.loc	4 177 13                @ ../../../Library/StdDriver/src/uart.c:177:13
	cmp	r0, r1
	bne	.LBB6_4
	b	.LBB6_3
.LBB6_3:
.Ltmp36:
	.loc	4 178 9 is_stmt 1       @ ../../../Library/StdDriver/src/uart.c:178:9
	movs	r0, #13
	bl	NVIC_EnableIRQ
	b	.LBB6_4
.Ltmp37:
.LBB6_4:
	.loc	4 0 9 is_stmt 0         @ ../../../Library/StdDriver/src/uart.c:0:9
	b	.LBB6_5
.LBB6_5:
	.loc	4 179 1 is_stmt 1       @ ../../../Library/StdDriver/src/uart.c:179:1
	add	sp, #16
	pop	{r4, pc}
.Ltmp38:
	.p2align	2
@ %bb.6:
	.loc	4 0 1 is_stmt 0         @ ../../../Library/StdDriver/src/uart.c:0:1
__arm_cp.6_0:
	.long	1074069504              @ 0x40050000
.Lcpi_end5:
	.size	__arm_cp.6_0, .Lcpi_end5-__arm_cp.6_0
__arm_cp.6_1:
	.long	1075118080              @ 0x40150000
.Lcpi_end6:
	.size	__arm_cp.6_1, .Lcpi_end6-__arm_cp.6_1
.Lfunc_end6:
	.size	UART_EnableInt, .Lfunc_end6-UART_EnableInt
	.cfi_endproc
	.cantunwind
	.fnend
                                        @ -- End function
	.section	.text.NVIC_EnableIRQ,"ax",%progbits
	.p2align	2               @ -- Begin function NVIC_EnableIRQ
	.type	NVIC_EnableIRQ,%function
	.code	16                      @ @NVIC_EnableIRQ
	.thumb_func
NVIC_EnableIRQ:
.Lfunc_begin7:
	.loc	3 630 0 is_stmt 1       @ ../../../Library/CMSIS/Include\core_cm0.h:630:0
	.fnstart
	.cfi_startproc
@ %bb.0:
	.pad	#8
	sub	sp, #8
	.cfi_def_cfa_offset 8
	mov	r1, r0
	add	r2, sp, #4
	strb	r0, [r2]
.Ltmp39:
	.loc	3 631 8 prologue_end    @ ../../../Library/CMSIS/Include\core_cm0.h:631:8
	ldrb	r0, [r2]
	sxtb	r0, r0
.Ltmp40:
	.loc	3 631 8 is_stmt 0       @ ../../../Library/CMSIS/Include\core_cm0.h:631:8
	cmp	r0, #0
	str	r1, [sp]                @ 4-byte Spill
	blt	.LBB7_2
	b	.LBB7_1
.LBB7_1:
	.loc	3 0 8                   @ ../../../Library/CMSIS/Include\core_cm0.h:0:8
	add	r0, sp, #4
.Ltmp41:
	.loc	3 633 88 is_stmt 1      @ ../../../Library/CMSIS/Include\core_cm0.h:633:88
	ldrb	r0, [r0]
	sxtb	r0, r0
	.loc	3 633 103 is_stmt 0     @ ../../../Library/CMSIS/Include\core_cm0.h:633:103
	movs	r1, #31
	mov	r2, r0
	ands	r2, r1
	.loc	3 633 73                @ ../../../Library/CMSIS/Include\core_cm0.h:633:73
	movs	r1, #1
	lsls	r1, r2
	.loc	3 633 9                 @ ../../../Library/CMSIS/Include\core_cm0.h:633:9
	lsrs	r0, r0, #3
	.loc	3 633 47                @ ../../../Library/CMSIS/Include\core_cm0.h:633:47
	ldr	r2, __arm_cp.7_0
	ands	r0, r2
	.loc	3 633 9                 @ ../../../Library/CMSIS/Include\core_cm0.h:633:9
	ldr	r2, __arm_cp.7_1
	.loc	3 633 56                @ ../../../Library/CMSIS/Include\core_cm0.h:633:56
	str	r1, [r0, r2]
	.loc	3 634 5 is_stmt 1       @ ../../../Library/CMSIS/Include\core_cm0.h:634:5
	b	.LBB7_2
.Ltmp42:
.LBB7_2:
	.loc	3 635 1                 @ ../../../Library/CMSIS/Include\core_cm0.h:635:1
	add	sp, #8
	bx	lr
.Ltmp43:
	.p2align	2
@ %bb.3:
	.loc	3 0 1 is_stmt 0         @ ../../../Library/CMSIS/Include\core_cm0.h:0:1
__arm_cp.7_0:
	.long	536870908               @ 0x1ffffffc
.Lcpi_end7:
	.size	__arm_cp.7_0, .Lcpi_end7-__arm_cp.7_0
__arm_cp.7_1:
	.long	3758153984              @ 0xe000e100
.Lcpi_end8:
	.size	__arm_cp.7_1, .Lcpi_end8-__arm_cp.7_1
.Lfunc_end7:
	.size	NVIC_EnableIRQ, .Lfunc_end7-NVIC_EnableIRQ
	.cfi_endproc
	.cantunwind
	.fnend
                                        @ -- End function
	.section	.text.UART_Open,"ax",%progbits
	.hidden	UART_Open               @ -- Begin function UART_Open
	.globl	UART_Open
	.p2align	2
	.type	UART_Open,%function
	.code	16                      @ @UART_Open
	.thumb_func
UART_Open:
.Lfunc_begin8:
	.loc	4 193 0 is_stmt 1       @ ../../../Library/StdDriver/src/uart.c:193:0
	.fnstart
	.cfi_startproc
@ %bb.0:
	.save	{r7, lr}
	push	{r7, lr}
	.cfi_def_cfa_offset 8
	.cfi_offset lr, -4
	.cfi_offset r7, -8
	.pad	#48
	sub	sp, #48
	.cfi_def_cfa_offset 56
	mov	r2, r1
	mov	r3, r0
	str	r0, [sp, #44]
	str	r1, [sp, #40]
.Ltmp44:
	.loc	4 195 14 prologue_end   @ ../../../Library/StdDriver/src/uart.c:195:14
	ldr	r0, __arm_cp.8_0
	ldr	r1, [r0, #12]
	str	r1, [sp, #28]
	ldr	r1, [r0, #8]
	str	r1, [sp, #24]
	ldr	r1, [r0, #4]
	str	r1, [sp, #20]
	ldr	r0, [r0]
	str	r0, [sp, #16]
	movs	r0, #0
	.loc	4 196 14                @ ../../../Library/StdDriver/src/uart.c:196:14
	str	r0, [sp, #12]
	.loc	4 199 22                @ ../../../Library/StdDriver/src/uart.c:199:22
	ldr	r0, [sp, #44]
	.loc	4 199 5 is_stmt 0       @ ../../../Library/StdDriver/src/uart.c:199:5
	ldr	r1, __arm_cp.8_1
	cmp	r0, r1
	str	r2, [sp, #8]            @ 4-byte Spill
	str	r3, [sp, #4]            @ 4-byte Spill
	str	r0, [sp]                @ 4-byte Spill
	beq	.LBB8_2
	b	.LBB8_1
.LBB8_1:
	.loc	4 0 5                   @ ../../../Library/StdDriver/src/uart.c:0:5
	ldr	r0, __arm_cp.8_2
	.loc	4 199 5                 @ ../../../Library/StdDriver/src/uart.c:199:5
	ldr	r1, [sp]                @ 4-byte Reload
	cmp	r1, r0
	beq	.LBB8_3
	b	.LBB8_4
.LBB8_2:
.Ltmp45:
	.loc	4 202 37 is_stmt 1      @ ../../../Library/StdDriver/src/uart.c:202:37
	ldr	r0, __arm_cp.8_3
	ldr	r0, [r0]
	.loc	4 202 45 is_stmt 0      @ ../../../Library/StdDriver/src/uart.c:202:45
	movs	r1, #3
	lsls	r1, r1, #24
	ands	r0, r1
	.loc	4 202 73                @ ../../../Library/StdDriver/src/uart.c:202:73
	lsrs	r0, r0, #24
	add	r1, sp, #36
	.loc	4 202 29                @ ../../../Library/StdDriver/src/uart.c:202:29
	strb	r0, [r1]
	.loc	4 203 37 is_stmt 1      @ ../../../Library/StdDriver/src/uart.c:203:37
	ldr	r0, __arm_cp.8_4
	ldr	r0, [r0]
	.loc	4 203 45 is_stmt 0      @ ../../../Library/StdDriver/src/uart.c:203:45
	movw	r1, #3840
	ands	r0, r1
	.loc	4 203 73                @ ../../../Library/StdDriver/src/uart.c:203:73
	lsrs	r0, r0, #8
	add	r1, sp, #32
	.loc	4 203 29                @ ../../../Library/StdDriver/src/uart.c:203:29
	strb	r0, [r1]
	.loc	4 204 13 is_stmt 1      @ ../../../Library/StdDriver/src/uart.c:204:13
	b	.LBB8_4
.LBB8_3:
	.loc	4 207 37                @ ../../../Library/StdDriver/src/uart.c:207:37
	ldr	r0, __arm_cp.8_3
	ldr	r0, [r0]
	.loc	4 207 45 is_stmt 0      @ ../../../Library/StdDriver/src/uart.c:207:45
	movs	r1, #3
	lsls	r1, r1, #26
	ands	r0, r1
	.loc	4 207 73                @ ../../../Library/StdDriver/src/uart.c:207:73
	lsrs	r0, r0, #26
	add	r1, sp, #36
	.loc	4 207 29                @ ../../../Library/StdDriver/src/uart.c:207:29
	strb	r0, [r1]
	.loc	4 208 37 is_stmt 1      @ ../../../Library/StdDriver/src/uart.c:208:37
	ldr	r0, __arm_cp.8_4
	ldr	r0, [r0]
	.loc	4 208 45 is_stmt 0      @ ../../../Library/StdDriver/src/uart.c:208:45
	movw	r1, #61440
	ands	r0, r1
	.loc	4 208 73                @ ../../../Library/StdDriver/src/uart.c:208:73
	lsrs	r0, r0, #12
	add	r1, sp, #32
	.loc	4 208 29                @ ../../../Library/StdDriver/src/uart.c:208:29
	strb	r0, [r1]
	.loc	4 209 13 is_stmt 1      @ ../../../Library/StdDriver/src/uart.c:209:13
	b	.LBB8_4
.Ltmp46:
.LBB8_4:
	.loc	4 0 13 is_stmt 0        @ ../../../Library/StdDriver/src/uart.c:0:13
	add	r0, sp, #36
.Ltmp47:
	.loc	4 214 8 is_stmt 1       @ ../../../Library/StdDriver/src/uart.c:214:8
	ldrb	r0, [r0]
.Ltmp48:
	.loc	4 214 8 is_stmt 0       @ ../../../Library/StdDriver/src/uart.c:214:8
	cmp	r0, #1
	bne	.LBB8_6
	b	.LBB8_5
.LBB8_5:
.Ltmp49:
	.loc	4 216 40 is_stmt 1      @ ../../../Library/StdDriver/src/uart.c:216:40
	bl	CLK_GetPLLClockFreq
	.loc	4 216 61 is_stmt 0      @ ../../../Library/StdDriver/src/uart.c:216:61
	lsrs	r0, r0, #1
	add	r1, sp, #36
	.loc	4 216 9                 @ ../../../Library/StdDriver/src/uart.c:216:9
	ldrb	r1, [r1]
	lsls	r1, r1, #2
	add	r2, sp, #16
	.loc	4 216 37                @ ../../../Library/StdDriver/src/uart.c:216:37
	str	r0, [r2, r1]
	.loc	4 217 5 is_stmt 1       @ ../../../Library/StdDriver/src/uart.c:217:5
	b	.LBB8_6
.Ltmp50:
.LBB8_6:
	.loc	4 220 5                 @ ../../../Library/StdDriver/src/uart.c:220:5
	ldr	r0, [sp, #44]
	movs	r1, #0
	.loc	4 220 19 is_stmt 0      @ ../../../Library/StdDriver/src/uart.c:220:19
	str	r1, [r0, #48]
	.loc	4 223 5 is_stmt 1       @ ../../../Library/StdDriver/src/uart.c:223:5
	ldr	r0, [sp, #44]
	.loc	4 223 16 is_stmt 0      @ ../../../Library/StdDriver/src/uart.c:223:16
	movs	r1, #3
	str	r1, [r0, #12]
	.loc	4 226 5 is_stmt 1       @ ../../../Library/StdDriver/src/uart.c:226:5
	ldr	r0, [sp, #44]
	.loc	4 226 16 is_stmt 0      @ ../../../Library/StdDriver/src/uart.c:226:16
	ldr	r1, [r0, #8]
	ldr	r2, __arm_cp.8_5
	ands	r1, r2
	str	r1, [r0, #8]
	add	r0, sp, #36
.Ltmp51:
	.loc	4 229 8 is_stmt 1       @ ../../../Library/StdDriver/src/uart.c:229:8
	ldrb	r0, [r0]
.Ltmp52:
	.loc	4 229 8 is_stmt 0       @ ../../../Library/StdDriver/src/uart.c:229:8
	cmp	r0, #1
	bne	.LBB8_8
	b	.LBB8_7
.LBB8_7:
.Ltmp53:
	.loc	4 230 40 is_stmt 1      @ ../../../Library/StdDriver/src/uart.c:230:40
	bl	CLK_GetPLLClockFreq
	.loc	4 230 61 is_stmt 0      @ ../../../Library/StdDriver/src/uart.c:230:61
	lsrs	r0, r0, #1
	add	r1, sp, #36
	.loc	4 230 9                 @ ../../../Library/StdDriver/src/uart.c:230:9
	ldrb	r1, [r1]
	lsls	r1, r1, #2
	add	r2, sp, #16
	.loc	4 230 37                @ ../../../Library/StdDriver/src/uart.c:230:37
	str	r0, [r2, r1]
	.loc	4 230 9                 @ ../../../Library/StdDriver/src/uart.c:230:9
	b	.LBB8_8
.Ltmp54:
.LBB8_8:
	.loc	4 233 8 is_stmt 1       @ ../../../Library/StdDriver/src/uart.c:233:8
	ldr	r0, [sp, #40]
.Ltmp55:
	.loc	4 233 8 is_stmt 0       @ ../../../Library/StdDriver/src/uart.c:233:8
	cmp	r0, #0
	beq	.LBB8_13
	b	.LBB8_9
.LBB8_9:
	.loc	4 0 8                   @ ../../../Library/StdDriver/src/uart.c:0:8
	add	r0, sp, #36
.Ltmp56:
	.loc	4 235 23 is_stmt 1      @ ../../../Library/StdDriver/src/uart.c:235:23
	ldrb	r0, [r0]
	lsls	r0, r0, #2
	add	r1, sp, #16
	ldr	r0, [r1, r0]
	add	r1, sp, #32
	ldrb	r1, [r1]
	adds	r1, r1, #1
	udiv	r0, r0, r1
	ldr	r1, [sp, #40]
	lsrs	r2, r1, #1
	adds	r0, r0, r2
	udiv	r0, r0, r1
	subs	r0, r0, #2
	.loc	4 235 21 is_stmt 0      @ ../../../Library/StdDriver/src/uart.c:235:21
	str	r0, [sp, #12]
	add	r0, sp, #12
.Ltmp57:
	.loc	4 237 12 is_stmt 1      @ ../../../Library/StdDriver/src/uart.c:237:12
	ldrh	r0, [r0, #2]
.Ltmp58:
	.loc	4 237 12 is_stmt 0      @ ../../../Library/StdDriver/src/uart.c:237:12
	cmp	r0, #0
	beq	.LBB8_11
	b	.LBB8_10
.LBB8_10:
	.loc	4 0 12                  @ ../../../Library/StdDriver/src/uart.c:0:12
	add	r0, sp, #36
.Ltmp59:
	.loc	4 238 45 is_stmt 1      @ ../../../Library/StdDriver/src/uart.c:238:45
	ldrb	r0, [r0]
	lsls	r0, r0, #2
	add	r1, sp, #16
	ldr	r0, [r1, r0]
	add	r1, sp, #32
	ldrb	r1, [r1]
	adds	r1, r1, #1
	udiv	r0, r0, r1
	ldr	r1, [sp, #40]
	lsls	r2, r1, #3
	adds	r0, r0, r2
	udiv	r0, r0, r1
	lsrs	r0, r0, #4
	subs	r0, r0, #2
	.loc	4 238 13 is_stmt 0      @ ../../../Library/StdDriver/src/uart.c:238:13
	ldr	r1, [sp, #44]
	.loc	4 238 24                @ ../../../Library/StdDriver/src/uart.c:238:24
	str	r0, [r1, #36]
	.loc	4 238 13                @ ../../../Library/StdDriver/src/uart.c:238:13
	b	.LBB8_12
.LBB8_11:
	.loc	4 240 45 is_stmt 1      @ ../../../Library/StdDriver/src/uart.c:240:45
	ldr	r0, [sp, #12]
	.loc	4 240 43 is_stmt 0      @ ../../../Library/StdDriver/src/uart.c:240:43
	movs	r1, #3
	lsls	r1, r1, #28
	orrs	r0, r1
	.loc	4 240 13                @ ../../../Library/StdDriver/src/uart.c:240:13
	ldr	r1, [sp, #44]
	.loc	4 240 24                @ ../../../Library/StdDriver/src/uart.c:240:24
	str	r0, [r1, #36]
	b	.LBB8_12
.Ltmp60:
.LBB8_12:
	.loc	4 241 5 is_stmt 1       @ ../../../Library/StdDriver/src/uart.c:241:5
	b	.LBB8_13
.Ltmp61:
.LBB8_13:
	.loc	4 242 1                 @ ../../../Library/StdDriver/src/uart.c:242:1
	add	sp, #48
	pop	{r7, pc}
.Ltmp62:
	.p2align	2
@ %bb.14:
	.loc	4 0 1 is_stmt 0         @ ../../../Library/StdDriver/src/uart.c:0:1
__arm_cp.8_0:
	.long	.LUART_Open.au32ClkTbl
.Lcpi_end9:
	.size	__arm_cp.8_0, .Lcpi_end9-__arm_cp.8_0
__arm_cp.8_1:
	.long	1074069504              @ 0x40050000
.Lcpi_end10:
	.size	__arm_cp.8_1, .Lcpi_end10-__arm_cp.8_1
__arm_cp.8_2:
	.long	1075118080              @ 0x40150000
.Lcpi_end11:
	.size	__arm_cp.8_2, .Lcpi_end11-__arm_cp.8_2
__arm_cp.8_3:
	.long	1342177812              @ 0x50000214
.Lcpi_end12:
	.size	__arm_cp.8_3, .Lcpi_end12-__arm_cp.8_3
__arm_cp.8_4:
	.long	1342177816              @ 0x50000218
.Lcpi_end13:
	.size	__arm_cp.8_4, .Lcpi_end13-__arm_cp.8_4
__arm_cp.8_5:
	.long	4293984015              @ 0xfff0ff0f
.Lcpi_end14:
	.size	__arm_cp.8_5, .Lcpi_end14-__arm_cp.8_5
.Lfunc_end8:
	.size	UART_Open, .Lfunc_end8-UART_Open
	.cfi_endproc
	.cantunwind
	.fnend
                                        @ -- End function
	.section	.text.CLK_GetPLLClockFreq,"ax",%progbits
	.p2align	2               @ -- Begin function CLK_GetPLLClockFreq
	.type	CLK_GetPLLClockFreq,%function
	.code	16                      @ @CLK_GetPLLClockFreq
	.thumb_func
CLK_GetPLLClockFreq:
.Lfunc_begin9:
	.file	5 "../../../Library/StdDriver/inc" "clk.h"
	.loc	5 371 0 is_stmt 1       @ ../../../Library/StdDriver/inc\clk.h:371:0
	.fnstart
	.cfi_startproc
@ %bb.0:
	.pad	#32
	sub	sp, #32
	.cfi_def_cfa_offset 32
	movs	r0, #0
.Ltmp63:
	.loc	5 372 14 prologue_end   @ ../../../Library/StdDriver/inc\clk.h:372:14
	str	r0, [sp, #24]
	.loc	5 374 13                @ ../../../Library/StdDriver/inc\clk.h:374:13
	ldr	r0, __arm_cp.9_0
	str	r0, [sp]
	.loc	5 376 22                @ ../../../Library/StdDriver/inc\clk.h:376:22
	ldr	r0, __arm_cp.9_1
	ldr	r0, [r0]
	.loc	5 376 15 is_stmt 0      @ ../../../Library/StdDriver/inc\clk.h:376:15
	str	r0, [sp, #20]
	add	r0, sp, #20
	.loc	5 378 8 is_stmt 1       @ ../../../Library/StdDriver/inc\clk.h:378:8
	ldrb	r0, [r0, #2]
	movs	r1, #5
	tst	r0, r1
	beq	.LBB9_2
	b	.LBB9_1
.LBB9_1:
.Ltmp64:
	.loc	5 379 9                 @ ../../../Library/StdDriver/inc\clk.h:379:9
	movs	r0, #0
	str	r0, [sp, #28]
	b	.LBB9_8
.Ltmp65:
.LBB9_2:
	.loc	5 0 9 is_stmt 0         @ ../../../Library/StdDriver/inc\clk.h:0:9
	add	r0, sp, #20
	.loc	5 381 8 is_stmt 1       @ ../../../Library/StdDriver/inc\clk.h:381:8
	ldrb	r0, [r0, #2]
	lsls	r0, r0, #28
	cmp	r0, #0
	bpl	.LBB9_4
	b	.LBB9_3
.LBB9_3:
.Ltmp66:
	.loc	5 382 16                @ ../../../Library/StdDriver/inc\clk.h:382:16
	ldr	r0, __arm_cp.9_3
	str	r0, [sp, #16]
	.loc	5 382 9 is_stmt 0       @ ../../../Library/StdDriver/inc\clk.h:382:9
	b	.LBB9_5
.LBB9_4:
	.loc	5 384 16 is_stmt 1      @ ../../../Library/StdDriver/inc\clk.h:384:16
	ldr	r0, __arm_cp.9_2
	str	r0, [sp, #16]
	b	.LBB9_5
.Ltmp67:
.LBB9_5:
	.loc	5 0 16 is_stmt 0        @ ../../../Library/StdDriver/inc\clk.h:0:16
	add	r0, sp, #20
	.loc	5 386 8 is_stmt 1       @ ../../../Library/StdDriver/inc\clk.h:386:8
	ldrb	r0, [r0, #2]
	lsls	r0, r0, #30
	cmp	r0, #0
	bpl	.LBB9_7
	b	.LBB9_6
.LBB9_6:
.Ltmp68:
	.loc	5 387 16                @ ../../../Library/StdDriver/inc\clk.h:387:16
	ldr	r0, [sp, #16]
	.loc	5 387 9 is_stmt 0       @ ../../../Library/StdDriver/inc\clk.h:387:9
	str	r0, [sp, #28]
	b	.LBB9_8
.Ltmp69:
.LBB9_7:
	.loc	5 390 24 is_stmt 1      @ ../../../Library/StdDriver/inc\clk.h:390:24
	ldr	r0, [sp, #20]
	.loc	5 390 34 is_stmt 0      @ ../../../Library/StdDriver/inc\clk.h:390:34
	movw	r1, #49152
	ands	r0, r1
	.loc	5 390 59                @ ../../../Library/StdDriver/inc\clk.h:390:59
	lsrs	r0, r0, #14
	mov	r1, sp
	.loc	5 390 13                @ ../../../Library/StdDriver/inc\clk.h:390:13
	orrs	r1, r0
	ldrb	r0, [r1]
	.loc	5 390 11                @ ../../../Library/StdDriver/inc\clk.h:390:11
	str	r0, [sp, #4]
	.loc	5 391 15 is_stmt 1      @ ../../../Library/StdDriver/inc\clk.h:391:15
	ldr	r0, [sp, #20]
	.loc	5 391 25 is_stmt 0      @ ../../../Library/StdDriver/inc\clk.h:391:25
	ldr	r1, __arm_cp.9_4
	ands	r0, r1
	.loc	5 391 74                @ ../../../Library/StdDriver/inc\clk.h:391:74
	adds	r0, r0, #2
	.loc	5 391 11                @ ../../../Library/StdDriver/inc\clk.h:391:11
	str	r0, [sp, #12]
	.loc	5 392 15 is_stmt 1      @ ../../../Library/StdDriver/inc\clk.h:392:15
	ldr	r0, [sp, #20]
	.loc	5 392 25 is_stmt 0      @ ../../../Library/StdDriver/inc\clk.h:392:25
	movw	r1, #15872
	ands	r0, r1
	.loc	5 392 49                @ ../../../Library/StdDriver/inc\clk.h:392:49
	lsrs	r0, r0, #9
	.loc	5 392 74                @ ../../../Library/StdDriver/inc\clk.h:392:74
	adds	r0, r0, #2
	.loc	5 392 11                @ ../../../Library/StdDriver/inc\clk.h:392:11
	str	r0, [sp, #8]
	.loc	5 395 21 is_stmt 1      @ ../../../Library/StdDriver/inc\clk.h:395:21
	ldr	r0, [sp, #16]
	.loc	5 395 28 is_stmt 0      @ ../../../Library/StdDriver/inc\clk.h:395:28
	lsrs	r0, r0, #2
	.loc	5 395 36                @ ../../../Library/StdDriver/inc\clk.h:395:36
	ldr	r1, [sp, #12]
	.loc	5 395 34                @ ../../../Library/StdDriver/inc\clk.h:395:34
	muls	r1, r0, r1
	.loc	5 395 46                @ ../../../Library/StdDriver/inc\clk.h:395:46
	ldr	r0, [sp, #8]
	.loc	5 395 54                @ ../../../Library/StdDriver/inc\clk.h:395:54
	ldr	r2, [sp, #4]
	.loc	5 395 52                @ ../../../Library/StdDriver/inc\clk.h:395:52
	muls	r2, r0, r2
	.loc	5 395 43                @ ../../../Library/StdDriver/inc\clk.h:395:43
	udiv	r0, r1, r2
	.loc	5 395 61                @ ../../../Library/StdDriver/inc\clk.h:395:61
	lsls	r0, r0, #2
	.loc	5 395 16                @ ../../../Library/StdDriver/inc\clk.h:395:16
	str	r0, [sp, #24]
	.loc	5 397 12 is_stmt 1      @ ../../../Library/StdDriver/inc\clk.h:397:12
	ldr	r0, [sp, #24]
	.loc	5 397 5 is_stmt 0       @ ../../../Library/StdDriver/inc\clk.h:397:5
	str	r0, [sp, #28]
	b	.LBB9_8
.LBB9_8:
	.loc	5 398 1 is_stmt 1       @ ../../../Library/StdDriver/inc\clk.h:398:1
	ldr	r0, [sp, #28]
	add	sp, #32
	bx	lr
.Ltmp70:
	.p2align	2
@ %bb.9:
	.loc	5 0 1 is_stmt 0         @ ../../../Library/StdDriver/inc\clk.h:0:1
__arm_cp.9_0:
	.long	67240449                @ 0x4020201
.Lcpi_end15:
	.size	__arm_cp.9_0, .Lcpi_end15-__arm_cp.9_0
__arm_cp.9_1:
	.long	1342177824              @ 0x50000220
.Lcpi_end16:
	.size	__arm_cp.9_1, .Lcpi_end16-__arm_cp.9_1
__arm_cp.9_2:
	.long	12000000                @ 0xb71b00
.Lcpi_end17:
	.size	__arm_cp.9_2, .Lcpi_end17-__arm_cp.9_2
__arm_cp.9_3:
	.long	24000000                @ 0x16e3600
.Lcpi_end18:
	.size	__arm_cp.9_3, .Lcpi_end18-__arm_cp.9_3
__arm_cp.9_4:
	.long	511                     @ 0x1ff
.Lcpi_end19:
	.size	__arm_cp.9_4, .Lcpi_end19-__arm_cp.9_4
.Lfunc_end9:
	.size	CLK_GetPLLClockFreq, .Lfunc_end9-CLK_GetPLLClockFreq
	.cfi_endproc
	.cantunwind
	.fnend
                                        @ -- End function
	.section	.text.UART_Read,"ax",%progbits
	.hidden	UART_Read               @ -- Begin function UART_Read
	.globl	UART_Read
	.p2align	1
	.type	UART_Read,%function
	.code	16                      @ @UART_Read
	.thumb_func
UART_Read:
.Lfunc_begin10:
	.loc	4 257 0 is_stmt 1       @ ../../../Library/StdDriver/src/uart.c:257:0
	.fnstart
	.cfi_startproc
@ %bb.0:
	.save	{r4, r5, r7, lr}
	push	{r4, r5, r7, lr}
	.cfi_def_cfa_offset 16
	.cfi_offset lr, -4
	.cfi_offset r7, -8
	.cfi_offset r5, -12
	.cfi_offset r4, -16
	.pad	#36
	sub	sp, #36
	.cfi_def_cfa_offset 52
	mov	r3, r2
	mov	r4, r1
	mov	r5, r0
	str	r0, [sp, #28]
	str	r1, [sp, #24]
	str	r2, [sp, #20]
	movs	r0, #0
.Ltmp71:
	.loc	4 260 18 prologue_end   @ ../../../Library/StdDriver/src/uart.c:260:18
	str	r0, [sp, #16]
	.loc	4 260 9 is_stmt 0       @ ../../../Library/StdDriver/src/uart.c:260:9
	str	r3, [sp, #8]            @ 4-byte Spill
	str	r4, [sp, #4]            @ 4-byte Spill
	str	r5, [sp]                @ 4-byte Spill
	b	.LBB10_1
.LBB10_1:                               @ =>This Loop Header: Depth=1
                                        @     Child Loop BB10_3 Depth 2
.Ltmp72:
	.loc	4 260 23                @ ../../../Library/StdDriver/src/uart.c:260:23
	ldr	r0, [sp, #16]
	.loc	4 260 34                @ ../../../Library/StdDriver/src/uart.c:260:34
	ldr	r1, [sp, #20]
.Ltmp73:
	.loc	4 260 5                 @ ../../../Library/StdDriver/src/uart.c:260:5
	cmp	r0, r1
	bhs	.LBB10_9
	b	.LBB10_2
.LBB10_2:                               @   in Loop: Header=BB10_1 Depth=1
.Ltmp74:
	.loc	4 262 20 is_stmt 1      @ ../../../Library/StdDriver/src/uart.c:262:20
	movs	r0, #0
	str	r0, [sp, #12]
	.loc	4 264 9                 @ ../../../Library/StdDriver/src/uart.c:264:9
	b	.LBB10_3
.LBB10_3:                               @   Parent Loop BB10_1 Depth=1
                                        @ =>  This Inner Loop Header: Depth=2
	.loc	4 264 15 is_stmt 0      @ ../../../Library/StdDriver/src/uart.c:264:15
	ldr	r0, [sp, #28]
	.loc	4 264 21                @ ../../../Library/StdDriver/src/uart.c:264:21
	ldr	r0, [r0, #24]
	.loc	4 264 29                @ ../../../Library/StdDriver/src/uart.c:264:29
	movw	r1, #16384
	.loc	4 264 9                 @ ../../../Library/StdDriver/src/uart.c:264:9
	tst	r0, r1
	beq	.LBB10_7
	b	.LBB10_4
.LBB10_4:                               @   in Loop: Header=BB10_3 Depth=2
.Ltmp75:
	.loc	4 266 23 is_stmt 1      @ ../../../Library/StdDriver/src/uart.c:266:23
	ldr	r0, [sp, #12]
	adds	r0, r0, #1
	str	r0, [sp, #12]
.Ltmp76:
	.loc	4 267 16                @ ../../../Library/StdDriver/src/uart.c:267:16
	ldr	r0, [sp, #12]
.Ltmp77:
	.loc	4 267 16 is_stmt 0      @ ../../../Library/StdDriver/src/uart.c:267:16
	lsrs	r0, r0, #30
	cmp	r0, #0
	beq	.LBB10_6
	b	.LBB10_5
.LBB10_5:
.Ltmp78:
	.loc	4 268 17 is_stmt 1      @ ../../../Library/StdDriver/src/uart.c:268:17
	movs	r0, #0
	str	r0, [sp, #32]
	b	.LBB10_10
.Ltmp79:
.LBB10_6:                               @   in Loop: Header=BB10_3 Depth=2
	.loc	4 264 9                 @ ../../../Library/StdDriver/src/uart.c:264:9
	b	.LBB10_3
.LBB10_7:                               @   in Loop: Header=BB10_1 Depth=1
	.loc	4 270 30                @ ../../../Library/StdDriver/src/uart.c:270:30
	ldr	r0, [sp, #28]
	.loc	4 270 36 is_stmt 0      @ ../../../Library/StdDriver/src/uart.c:270:36
	ldr	r0, [r0]
	.loc	4 270 9                 @ ../../../Library/StdDriver/src/uart.c:270:9
	ldr	r1, [sp, #24]
	.loc	4 270 18                @ ../../../Library/StdDriver/src/uart.c:270:18
	ldr	r2, [sp, #16]
	.loc	4 270 28                @ ../../../Library/StdDriver/src/uart.c:270:28
	strb	r0, [r1, r2]
	.loc	4 271 5 is_stmt 1       @ ../../../Library/StdDriver/src/uart.c:271:5
	b	.LBB10_8
.Ltmp80:
.LBB10_8:                               @   in Loop: Header=BB10_1 Depth=1
	.loc	4 260 56                @ ../../../Library/StdDriver/src/uart.c:260:56
	ldr	r0, [sp, #16]
	adds	r0, r0, #1
	str	r0, [sp, #16]
	.loc	4 260 5 is_stmt 0       @ ../../../Library/StdDriver/src/uart.c:260:5
	b	.LBB10_1
.Ltmp81:
.LBB10_9:
	.loc	4 273 12 is_stmt 1      @ ../../../Library/StdDriver/src/uart.c:273:12
	ldr	r0, [sp, #16]
	.loc	4 273 5 is_stmt 0       @ ../../../Library/StdDriver/src/uart.c:273:5
	str	r0, [sp, #32]
	b	.LBB10_10
.LBB10_10:
	.loc	4 275 1 is_stmt 1       @ ../../../Library/StdDriver/src/uart.c:275:1
	ldr	r0, [sp, #32]
	add	sp, #36
	pop	{r4, r5, r7, pc}
.Ltmp82:
.Lfunc_end10:
	.size	UART_Read, .Lfunc_end10-UART_Read
	.cfi_endproc
	.cantunwind
	.fnend
                                        @ -- End function
	.section	.text.UART_SetLine_Config,"ax",%progbits
	.hidden	UART_SetLine_Config     @ -- Begin function UART_SetLine_Config
	.globl	UART_SetLine_Config
	.p2align	2
	.type	UART_SetLine_Config,%function
	.code	16                      @ @UART_SetLine_Config
	.thumb_func
UART_SetLine_Config:
.Lfunc_begin11:
	.loc	4 305 0                 @ ../../../Library/StdDriver/src/uart.c:305:0
	.fnstart
	.cfi_startproc
@ %bb.0:
	.save	{r4, r5, r6, r7, lr}
	push	{r4, r5, r6, r7, lr}
	.cfi_def_cfa_offset 20
	.cfi_offset lr, -4
	.cfi_offset r7, -8
	.cfi_offset r6, -12
	.cfi_offset r5, -16
	.cfi_offset r4, -20
	.pad	#76
	sub	sp, #76
	.cfi_def_cfa_offset 96
	ldr	r4, [sp, #96]
	mov	r5, r3
	mov	r6, r2
	mov	r7, r1
	str	r0, [sp, #28]           @ 4-byte Spill
	str	r0, [sp, #24]           @ 4-byte Spill
	ldr	r0, [sp, #28]           @ 4-byte Reload
	str	r0, [sp, #72]
	str	r1, [sp, #68]
	str	r2, [sp, #64]
	str	r3, [sp, #60]
.Ltmp83:
	.loc	4 307 14 prologue_end   @ ../../../Library/StdDriver/src/uart.c:307:14
	ldr	r1, __arm_cp.11_0
	ldr	r2, [r1, #12]
	str	r2, [sp, #48]
	ldr	r2, [r1, #8]
	str	r2, [sp, #44]
	ldr	r2, [r1, #4]
	str	r2, [sp, #40]
	ldr	r1, [r1]
	str	r1, [sp, #36]
	movs	r1, #0
	.loc	4 308 14                @ ../../../Library/StdDriver/src/uart.c:308:14
	str	r1, [sp, #32]
	.loc	4 311 22                @ ../../../Library/StdDriver/src/uart.c:311:22
	ldr	r1, [sp, #72]
	.loc	4 311 5 is_stmt 0       @ ../../../Library/StdDriver/src/uart.c:311:5
	ldr	r2, __arm_cp.11_1
	cmp	r1, r2
	str	r5, [sp, #20]           @ 4-byte Spill
	str	r6, [sp, #16]           @ 4-byte Spill
	str	r7, [sp, #12]           @ 4-byte Spill
	str	r4, [sp, #8]            @ 4-byte Spill
	str	r1, [sp, #4]            @ 4-byte Spill
	beq	.LBB11_2
	b	.LBB11_1
.LBB11_1:
	.loc	4 0 5                   @ ../../../Library/StdDriver/src/uart.c:0:5
	ldr	r0, __arm_cp.11_2
	.loc	4 311 5                 @ ../../../Library/StdDriver/src/uart.c:311:5
	ldr	r1, [sp, #4]            @ 4-byte Reload
	cmp	r1, r0
	beq	.LBB11_3
	b	.LBB11_4
.LBB11_2:
.Ltmp84:
	.loc	4 314 37 is_stmt 1      @ ../../../Library/StdDriver/src/uart.c:314:37
	ldr	r0, __arm_cp.11_3
	ldr	r0, [r0]
	.loc	4 314 45 is_stmt 0      @ ../../../Library/StdDriver/src/uart.c:314:45
	movs	r1, #3
	lsls	r1, r1, #24
	ands	r0, r1
	.loc	4 314 73                @ ../../../Library/StdDriver/src/uart.c:314:73
	lsrs	r0, r0, #24
	add	r1, sp, #56
	.loc	4 314 29                @ ../../../Library/StdDriver/src/uart.c:314:29
	strb	r0, [r1]
	.loc	4 315 37 is_stmt 1      @ ../../../Library/StdDriver/src/uart.c:315:37
	ldr	r0, __arm_cp.11_4
	ldr	r0, [r0]
	.loc	4 315 45 is_stmt 0      @ ../../../Library/StdDriver/src/uart.c:315:45
	movw	r1, #3840
	ands	r0, r1
	.loc	4 315 73                @ ../../../Library/StdDriver/src/uart.c:315:73
	lsrs	r0, r0, #8
	add	r1, sp, #52
	.loc	4 315 29                @ ../../../Library/StdDriver/src/uart.c:315:29
	strb	r0, [r1]
	.loc	4 316 13 is_stmt 1      @ ../../../Library/StdDriver/src/uart.c:316:13
	b	.LBB11_4
.LBB11_3:
	.loc	4 319 37                @ ../../../Library/StdDriver/src/uart.c:319:37
	ldr	r0, __arm_cp.11_3
	ldr	r0, [r0]
	.loc	4 319 45 is_stmt 0      @ ../../../Library/StdDriver/src/uart.c:319:45
	movs	r1, #3
	lsls	r1, r1, #26
	ands	r0, r1
	.loc	4 319 73                @ ../../../Library/StdDriver/src/uart.c:319:73
	lsrs	r0, r0, #26
	add	r1, sp, #56
	.loc	4 319 29                @ ../../../Library/StdDriver/src/uart.c:319:29
	strb	r0, [r1]
	.loc	4 320 37 is_stmt 1      @ ../../../Library/StdDriver/src/uart.c:320:37
	ldr	r0, __arm_cp.11_4
	ldr	r0, [r0]
	.loc	4 320 45 is_stmt 0      @ ../../../Library/StdDriver/src/uart.c:320:45
	movw	r1, #61440
	ands	r0, r1
	.loc	4 320 73                @ ../../../Library/StdDriver/src/uart.c:320:73
	lsrs	r0, r0, #12
	add	r1, sp, #52
	.loc	4 320 29                @ ../../../Library/StdDriver/src/uart.c:320:29
	strb	r0, [r1]
	.loc	4 321 13 is_stmt 1      @ ../../../Library/StdDriver/src/uart.c:321:13
	b	.LBB11_4
.Ltmp85:
.LBB11_4:
	.loc	4 0 13 is_stmt 0        @ ../../../Library/StdDriver/src/uart.c:0:13
	add	r0, sp, #56
.Ltmp86:
	.loc	4 326 8 is_stmt 1       @ ../../../Library/StdDriver/src/uart.c:326:8
	ldrb	r0, [r0]
.Ltmp87:
	.loc	4 326 8 is_stmt 0       @ ../../../Library/StdDriver/src/uart.c:326:8
	cmp	r0, #1
	bne	.LBB11_6
	b	.LBB11_5
.LBB11_5:
.Ltmp88:
	.loc	4 328 40 is_stmt 1      @ ../../../Library/StdDriver/src/uart.c:328:40
	bl	CLK_GetPLLClockFreq
	.loc	4 328 61 is_stmt 0      @ ../../../Library/StdDriver/src/uart.c:328:61
	lsrs	r0, r0, #1
	add	r1, sp, #56
	.loc	4 328 9                 @ ../../../Library/StdDriver/src/uart.c:328:9
	ldrb	r1, [r1]
	lsls	r1, r1, #2
	add	r2, sp, #36
	.loc	4 328 37                @ ../../../Library/StdDriver/src/uart.c:328:37
	str	r0, [r2, r1]
	.loc	4 329 5 is_stmt 1       @ ../../../Library/StdDriver/src/uart.c:329:5
	b	.LBB11_6
.Ltmp89:
.LBB11_6:
	.loc	4 332 8                 @ ../../../Library/StdDriver/src/uart.c:332:8
	ldr	r0, [sp, #68]
.Ltmp90:
	.loc	4 332 8 is_stmt 0       @ ../../../Library/StdDriver/src/uart.c:332:8
	cmp	r0, #0
	beq	.LBB11_11
	b	.LBB11_7
.LBB11_7:
	.loc	4 0 8                   @ ../../../Library/StdDriver/src/uart.c:0:8
	add	r0, sp, #56
.Ltmp91:
	.loc	4 334 23 is_stmt 1      @ ../../../Library/StdDriver/src/uart.c:334:23
	ldrb	r0, [r0]
	lsls	r0, r0, #2
	add	r1, sp, #36
	ldr	r0, [r1, r0]
	add	r1, sp, #52
	ldrb	r1, [r1]
	adds	r1, r1, #1
	udiv	r0, r0, r1
	ldr	r1, [sp, #68]
	lsrs	r2, r1, #1
	adds	r0, r0, r2
	udiv	r0, r0, r1
	subs	r0, r0, #2
	.loc	4 334 21 is_stmt 0      @ ../../../Library/StdDriver/src/uart.c:334:21
	str	r0, [sp, #32]
	add	r0, sp, #32
.Ltmp92:
	.loc	4 336 12 is_stmt 1      @ ../../../Library/StdDriver/src/uart.c:336:12
	ldrh	r0, [r0, #2]
.Ltmp93:
	.loc	4 336 12 is_stmt 0      @ ../../../Library/StdDriver/src/uart.c:336:12
	cmp	r0, #0
	beq	.LBB11_9
	b	.LBB11_8
.LBB11_8:
	.loc	4 0 12                  @ ../../../Library/StdDriver/src/uart.c:0:12
	add	r0, sp, #56
.Ltmp94:
	.loc	4 337 45 is_stmt 1      @ ../../../Library/StdDriver/src/uart.c:337:45
	ldrb	r0, [r0]
	lsls	r0, r0, #2
	add	r1, sp, #36
	ldr	r0, [r1, r0]
	add	r1, sp, #52
	ldrb	r1, [r1]
	adds	r1, r1, #1
	udiv	r0, r0, r1
	ldr	r1, [sp, #68]
	lsls	r2, r1, #3
	adds	r0, r0, r2
	udiv	r0, r0, r1
	lsrs	r0, r0, #4
	subs	r0, r0, #2
	.loc	4 337 13 is_stmt 0      @ ../../../Library/StdDriver/src/uart.c:337:13
	ldr	r1, [sp, #72]
	.loc	4 337 24                @ ../../../Library/StdDriver/src/uart.c:337:24
	str	r0, [r1, #36]
	.loc	4 337 13                @ ../../../Library/StdDriver/src/uart.c:337:13
	b	.LBB11_10
.LBB11_9:
	.loc	4 339 45 is_stmt 1      @ ../../../Library/StdDriver/src/uart.c:339:45
	ldr	r0, [sp, #32]
	.loc	4 339 43 is_stmt 0      @ ../../../Library/StdDriver/src/uart.c:339:43
	movs	r1, #3
	lsls	r1, r1, #28
	orrs	r0, r1
	.loc	4 339 13                @ ../../../Library/StdDriver/src/uart.c:339:13
	ldr	r1, [sp, #72]
	.loc	4 339 24                @ ../../../Library/StdDriver/src/uart.c:339:24
	str	r0, [r1, #36]
	b	.LBB11_10
.Ltmp95:
.LBB11_10:
	.loc	4 340 5 is_stmt 1       @ ../../../Library/StdDriver/src/uart.c:340:5
	b	.LBB11_11
.Ltmp96:
.LBB11_11:
	.loc	4 343 18                @ ../../../Library/StdDriver/src/uart.c:343:18
	ldr	r0, [sp, #64]
	.loc	4 343 34 is_stmt 0      @ ../../../Library/StdDriver/src/uart.c:343:34
	ldr	r1, [sp, #60]
	.loc	4 343 32                @ ../../../Library/StdDriver/src/uart.c:343:32
	orrs	r0, r1
	.loc	4 343 46                @ ../../../Library/StdDriver/src/uart.c:343:46
	ldr	r1, [sp, #96]
	.loc	4 343 44                @ ../../../Library/StdDriver/src/uart.c:343:44
	orrs	r0, r1
	.loc	4 343 5                 @ ../../../Library/StdDriver/src/uart.c:343:5
	ldr	r1, [sp, #72]
	.loc	4 343 16                @ ../../../Library/StdDriver/src/uart.c:343:16
	str	r0, [r1, #12]
	.loc	4 344 1 is_stmt 1       @ ../../../Library/StdDriver/src/uart.c:344:1
	add	sp, #76
	pop	{r4, r5, r6, r7, pc}
.Ltmp97:
	.p2align	2
@ %bb.12:
	.loc	4 0 1 is_stmt 0         @ ../../../Library/StdDriver/src/uart.c:0:1
__arm_cp.11_0:
	.long	.LUART_SetLine_Config.au32ClkTbl
.Lcpi_end20:
	.size	__arm_cp.11_0, .Lcpi_end20-__arm_cp.11_0
__arm_cp.11_1:
	.long	1074069504              @ 0x40050000
.Lcpi_end21:
	.size	__arm_cp.11_1, .Lcpi_end21-__arm_cp.11_1
__arm_cp.11_2:
	.long	1075118080              @ 0x40150000
.Lcpi_end22:
	.size	__arm_cp.11_2, .Lcpi_end22-__arm_cp.11_2
__arm_cp.11_3:
	.long	1342177812              @ 0x50000214
.Lcpi_end23:
	.size	__arm_cp.11_3, .Lcpi_end23-__arm_cp.11_3
__arm_cp.11_4:
	.long	1342177816              @ 0x50000218
.Lcpi_end24:
	.size	__arm_cp.11_4, .Lcpi_end24-__arm_cp.11_4
.Lfunc_end11:
	.size	UART_SetLine_Config, .Lfunc_end11-UART_SetLine_Config
	.cfi_endproc
	.cantunwind
	.fnend
                                        @ -- End function
	.section	.text.UART_SetTimeoutCnt,"ax",%progbits
	.hidden	UART_SetTimeoutCnt      @ -- Begin function UART_SetTimeoutCnt
	.globl	UART_SetTimeoutCnt
	.p2align	1
	.type	UART_SetTimeoutCnt,%function
	.code	16                      @ @UART_SetTimeoutCnt
	.thumb_func
UART_SetTimeoutCnt:
.Lfunc_begin12:
	.loc	4 358 0 is_stmt 1       @ ../../../Library/StdDriver/src/uart.c:358:0
	.fnstart
	.cfi_startproc
@ %bb.0:
	.save	{r4, lr}
	push	{r4, lr}
	.cfi_def_cfa_offset 8
	.cfi_offset lr, -4
	.cfi_offset r4, -8
	.pad	#16
	sub	sp, #16
	.cfi_def_cfa_offset 24
	mov	r2, r1
	mov	r3, r0
	str	r0, [sp, #12]
	str	r1, [sp, #8]
.Ltmp98:
	.loc	4 360 19 prologue_end   @ ../../../Library/StdDriver/src/uart.c:360:19
	ldr	r0, [sp, #12]
	.loc	4 360 25 is_stmt 0      @ ../../../Library/StdDriver/src/uart.c:360:25
	ldr	r0, [r0, #32]
	.loc	4 360 30                @ ../../../Library/StdDriver/src/uart.c:360:30
	movs	r1, #255
	bics	r0, r1
	.loc	4 360 56                @ ../../../Library/StdDriver/src/uart.c:360:56
	ldr	r1, [sp, #8]
	.loc	4 360 53                @ ../../../Library/StdDriver/src/uart.c:360:53
	orrs	r0, r1
	.loc	4 360 5                 @ ../../../Library/StdDriver/src/uart.c:360:5
	ldr	r1, [sp, #12]
	.loc	4 360 16                @ ../../../Library/StdDriver/src/uart.c:360:16
	str	r0, [r1, #32]
	.loc	4 363 5 is_stmt 1       @ ../../../Library/StdDriver/src/uart.c:363:5
	ldr	r0, [sp, #12]
	.loc	4 363 17 is_stmt 0      @ ../../../Library/StdDriver/src/uart.c:363:17
	ldr	r1, [r0, #4]
	movw	r4, #2048
	orrs	r1, r4
	str	r1, [r0, #4]
	.loc	4 364 1 is_stmt 1       @ ../../../Library/StdDriver/src/uart.c:364:1
	str	r2, [sp, #4]            @ 4-byte Spill
	str	r3, [sp]                @ 4-byte Spill
	add	sp, #16
	pop	{r4, pc}
.Ltmp99:
.Lfunc_end12:
	.size	UART_SetTimeoutCnt, .Lfunc_end12-UART_SetTimeoutCnt
	.cfi_endproc
	.cantunwind
	.fnend
                                        @ -- End function
	.section	.text.UART_SelectIrDAMode,"ax",%progbits
	.hidden	UART_SelectIrDAMode     @ -- Begin function UART_SelectIrDAMode
	.globl	UART_SelectIrDAMode
	.p2align	2
	.type	UART_SelectIrDAMode,%function
	.code	16                      @ @UART_SelectIrDAMode
	.thumb_func
UART_SelectIrDAMode:
.Lfunc_begin13:
	.loc	4 381 0                 @ ../../../Library/StdDriver/src/uart.c:381:0
	.fnstart
	.cfi_startproc
@ %bb.0:
	.save	{r4, r5, r7, lr}
	push	{r4, r5, r7, lr}
	.cfi_def_cfa_offset 16
	.cfi_offset lr, -4
	.cfi_offset r7, -8
	.cfi_offset r5, -12
	.cfi_offset r4, -16
	.pad	#56
	sub	sp, #56
	.cfi_def_cfa_offset 72
	mov	r3, r2
	mov	r4, r1
	mov	r5, r0
	str	r0, [sp, #52]
	str	r1, [sp, #48]
	str	r2, [sp, #44]
.Ltmp100:
	.loc	4 383 14 prologue_end   @ ../../../Library/StdDriver/src/uart.c:383:14
	ldr	r0, __arm_cp.13_0
	ldr	r1, [r0, #12]
	str	r1, [sp, #32]
	ldr	r1, [r0, #8]
	str	r1, [sp, #28]
	ldr	r1, [r0, #4]
	str	r1, [sp, #24]
	ldr	r0, [r0]
	str	r0, [sp, #20]
	.loc	4 387 5                 @ ../../../Library/StdDriver/src/uart.c:387:5
	ldr	r0, [sp, #52]
	.loc	4 387 19 is_stmt 0      @ ../../../Library/StdDriver/src/uart.c:387:19
	movs	r1, #2
	str	r1, [r0, #48]
	.loc	4 390 22 is_stmt 1      @ ../../../Library/StdDriver/src/uart.c:390:22
	ldr	r0, [sp, #52]
	.loc	4 390 5 is_stmt 0       @ ../../../Library/StdDriver/src/uart.c:390:5
	ldr	r1, __arm_cp.13_1
	cmp	r0, r1
	str	r3, [sp, #12]           @ 4-byte Spill
	str	r4, [sp, #8]            @ 4-byte Spill
	str	r5, [sp, #4]            @ 4-byte Spill
	str	r0, [sp]                @ 4-byte Spill
	beq	.LBB13_2
	b	.LBB13_1
.LBB13_1:
	.loc	4 0 5                   @ ../../../Library/StdDriver/src/uart.c:0:5
	ldr	r0, __arm_cp.13_2
	.loc	4 390 5                 @ ../../../Library/StdDriver/src/uart.c:390:5
	ldr	r1, [sp]                @ 4-byte Reload
	cmp	r1, r0
	beq	.LBB13_3
	b	.LBB13_4
.LBB13_2:
.Ltmp101:
	.loc	4 393 37 is_stmt 1      @ ../../../Library/StdDriver/src/uart.c:393:37
	ldr	r0, __arm_cp.13_3
	ldr	r0, [r0]
	.loc	4 393 45 is_stmt 0      @ ../../../Library/StdDriver/src/uart.c:393:45
	movs	r1, #3
	lsls	r1, r1, #24
	ands	r0, r1
	.loc	4 393 73                @ ../../../Library/StdDriver/src/uart.c:393:73
	lsrs	r0, r0, #24
	add	r1, sp, #40
	.loc	4 393 29                @ ../../../Library/StdDriver/src/uart.c:393:29
	strb	r0, [r1]
	.loc	4 394 37 is_stmt 1      @ ../../../Library/StdDriver/src/uart.c:394:37
	ldr	r0, __arm_cp.13_4
	ldr	r0, [r0]
	.loc	4 394 45 is_stmt 0      @ ../../../Library/StdDriver/src/uart.c:394:45
	movw	r1, #3840
	ands	r0, r1
	.loc	4 394 73                @ ../../../Library/StdDriver/src/uart.c:394:73
	lsrs	r0, r0, #8
	add	r1, sp, #36
	.loc	4 394 29                @ ../../../Library/StdDriver/src/uart.c:394:29
	strb	r0, [r1]
	.loc	4 395 13 is_stmt 1      @ ../../../Library/StdDriver/src/uart.c:395:13
	b	.LBB13_4
.LBB13_3:
	.loc	4 398 37                @ ../../../Library/StdDriver/src/uart.c:398:37
	ldr	r0, __arm_cp.13_3
	ldr	r0, [r0]
	.loc	4 398 45 is_stmt 0      @ ../../../Library/StdDriver/src/uart.c:398:45
	movs	r1, #3
	lsls	r1, r1, #26
	ands	r0, r1
	.loc	4 398 73                @ ../../../Library/StdDriver/src/uart.c:398:73
	lsrs	r0, r0, #26
	add	r1, sp, #40
	.loc	4 398 29                @ ../../../Library/StdDriver/src/uart.c:398:29
	strb	r0, [r1]
	.loc	4 399 37 is_stmt 1      @ ../../../Library/StdDriver/src/uart.c:399:37
	ldr	r0, __arm_cp.13_4
	ldr	r0, [r0]
	.loc	4 399 45 is_stmt 0      @ ../../../Library/StdDriver/src/uart.c:399:45
	movw	r1, #61440
	ands	r0, r1
	.loc	4 399 73                @ ../../../Library/StdDriver/src/uart.c:399:73
	lsrs	r0, r0, #12
	add	r1, sp, #36
	.loc	4 399 29                @ ../../../Library/StdDriver/src/uart.c:399:29
	strb	r0, [r1]
	.loc	4 400 13 is_stmt 1      @ ../../../Library/StdDriver/src/uart.c:400:13
	b	.LBB13_4
.Ltmp102:
.LBB13_4:
	.loc	4 0 13 is_stmt 0        @ ../../../Library/StdDriver/src/uart.c:0:13
	add	r0, sp, #40
.Ltmp103:
	.loc	4 405 8 is_stmt 1       @ ../../../Library/StdDriver/src/uart.c:405:8
	ldrb	r0, [r0]
.Ltmp104:
	.loc	4 405 8 is_stmt 0       @ ../../../Library/StdDriver/src/uart.c:405:8
	cmp	r0, #1
	bne	.LBB13_6
	b	.LBB13_5
.LBB13_5:
.Ltmp105:
	.loc	4 407 40 is_stmt 1      @ ../../../Library/StdDriver/src/uart.c:407:40
	bl	CLK_GetPLLClockFreq
	.loc	4 407 61 is_stmt 0      @ ../../../Library/StdDriver/src/uart.c:407:61
	lsrs	r0, r0, #1
	add	r1, sp, #40
	.loc	4 407 9                 @ ../../../Library/StdDriver/src/uart.c:407:9
	ldrb	r1, [r1]
	lsls	r1, r1, #2
	add	r2, sp, #20
	.loc	4 407 37                @ ../../../Library/StdDriver/src/uart.c:407:37
	str	r0, [r2, r1]
	.loc	4 408 5 is_stmt 1       @ ../../../Library/StdDriver/src/uart.c:408:5
	b	.LBB13_6
.Ltmp106:
.LBB13_6:
	.loc	4 411 8                 @ ../../../Library/StdDriver/src/uart.c:411:8
	ldr	r0, [sp, #48]
.Ltmp107:
	.loc	4 411 8 is_stmt 0       @ ../../../Library/StdDriver/src/uart.c:411:8
	cmp	r0, #0
	beq	.LBB13_10
	b	.LBB13_7
.LBB13_7:
	.loc	4 0 8                   @ ../../../Library/StdDriver/src/uart.c:0:8
	add	r0, sp, #40
.Ltmp108:
	.loc	4 413 23 is_stmt 1      @ ../../../Library/StdDriver/src/uart.c:413:23
	ldrb	r0, [r0]
	lsls	r0, r0, #2
	add	r1, sp, #20
	ldr	r0, [r1, r0]
	add	r1, sp, #36
	ldrb	r1, [r1]
	adds	r1, r1, #1
	udiv	r0, r0, r1
	ldr	r1, [sp, #48]
	lsls	r2, r1, #3
	adds	r0, r0, r2
	udiv	r0, r0, r1
	lsrs	r0, r0, #4
	subs	r0, r0, #2
	.loc	4 413 21 is_stmt 0      @ ../../../Library/StdDriver/src/uart.c:413:21
	str	r0, [sp, #16]
.Ltmp109:
	.loc	4 415 12 is_stmt 1      @ ../../../Library/StdDriver/src/uart.c:415:12
	ldr	r0, [sp, #16]
.Ltmp110:
	.loc	4 415 12 is_stmt 0      @ ../../../Library/StdDriver/src/uart.c:415:12
	ldr	r1, __arm_cp.13_5
	cmp	r0, r1
	bhi	.LBB13_9
	b	.LBB13_8
.LBB13_8:
.Ltmp111:
	.loc	4 416 45 is_stmt 1      @ ../../../Library/StdDriver/src/uart.c:416:45
	ldr	r0, [sp, #16]
	.loc	4 416 13 is_stmt 0      @ ../../../Library/StdDriver/src/uart.c:416:13
	ldr	r1, [sp, #52]
	.loc	4 416 24                @ ../../../Library/StdDriver/src/uart.c:416:24
	str	r0, [r1, #36]
	.loc	4 416 13                @ ../../../Library/StdDriver/src/uart.c:416:13
	b	.LBB13_9
.Ltmp112:
.LBB13_9:
	.loc	4 417 5 is_stmt 1       @ ../../../Library/StdDriver/src/uart.c:417:5
	b	.LBB13_10
.Ltmp113:
.LBB13_10:
	.loc	4 420 8                 @ ../../../Library/StdDriver/src/uart.c:420:8
	ldr	r0, [sp, #44]
.Ltmp114:
	.loc	4 420 8 is_stmt 0       @ ../../../Library/StdDriver/src/uart.c:420:8
	cmp	r0, #0
	bne	.LBB13_12
	b	.LBB13_11
.LBB13_11:
.Ltmp115:
	.loc	4 422 9 is_stmt 1       @ ../../../Library/StdDriver/src/uart.c:422:9
	ldr	r0, [sp, #52]
	.loc	4 422 20 is_stmt 0      @ ../../../Library/StdDriver/src/uart.c:422:20
	ldr	r1, [r0, #40]
	movs	r2, #64
	orrs	r1, r2
	str	r1, [r0, #40]
	.loc	4 423 9 is_stmt 1       @ ../../../Library/StdDriver/src/uart.c:423:9
	ldr	r0, [sp, #52]
	.loc	4 423 20 is_stmt 0      @ ../../../Library/StdDriver/src/uart.c:423:20
	ldr	r1, [r0, #40]
	movs	r2, #2
	bics	r1, r2
	str	r1, [r0, #40]
	.loc	4 424 5 is_stmt 1       @ ../../../Library/StdDriver/src/uart.c:424:5
	b	.LBB13_13
.Ltmp116:
.LBB13_12:
	.loc	4 427 9                 @ ../../../Library/StdDriver/src/uart.c:427:9
	ldr	r0, [sp, #52]
	.loc	4 427 20 is_stmt 0      @ ../../../Library/StdDriver/src/uart.c:427:20
	ldr	r1, [r0, #40]
	movs	r2, #32
	bics	r1, r2
	str	r1, [r0, #40]
	.loc	4 428 9 is_stmt 1       @ ../../../Library/StdDriver/src/uart.c:428:9
	ldr	r0, [sp, #52]
	.loc	4 428 20 is_stmt 0      @ ../../../Library/StdDriver/src/uart.c:428:20
	ldr	r1, [r0, #40]
	movs	r2, #2
	orrs	r1, r2
	str	r1, [r0, #40]
	b	.LBB13_13
.Ltmp117:
.LBB13_13:
	.loc	4 431 1 is_stmt 1       @ ../../../Library/StdDriver/src/uart.c:431:1
	add	sp, #56
	pop	{r4, r5, r7, pc}
.Ltmp118:
	.p2align	2
@ %bb.14:
	.loc	4 0 1 is_stmt 0         @ ../../../Library/StdDriver/src/uart.c:0:1
__arm_cp.13_0:
	.long	.LUART_SelectIrDAMode.au32ClkTbl
.Lcpi_end25:
	.size	__arm_cp.13_0, .Lcpi_end25-__arm_cp.13_0
__arm_cp.13_1:
	.long	1074069504              @ 0x40050000
.Lcpi_end26:
	.size	__arm_cp.13_1, .Lcpi_end26-__arm_cp.13_1
__arm_cp.13_2:
	.long	1075118080              @ 0x40150000
.Lcpi_end27:
	.size	__arm_cp.13_2, .Lcpi_end27-__arm_cp.13_2
__arm_cp.13_3:
	.long	1342177812              @ 0x50000214
.Lcpi_end28:
	.size	__arm_cp.13_3, .Lcpi_end28-__arm_cp.13_3
__arm_cp.13_4:
	.long	1342177816              @ 0x50000218
.Lcpi_end29:
	.size	__arm_cp.13_4, .Lcpi_end29-__arm_cp.13_4
__arm_cp.13_5:
	.long	65534                   @ 0xfffe
.Lcpi_end30:
	.size	__arm_cp.13_5, .Lcpi_end30-__arm_cp.13_5
.Lfunc_end13:
	.size	UART_SelectIrDAMode, .Lfunc_end13-UART_SelectIrDAMode
	.cfi_endproc
	.cantunwind
	.fnend
                                        @ -- End function
	.section	.text.UART_SelectRS485Mode,"ax",%progbits
	.hidden	UART_SelectRS485Mode    @ -- Begin function UART_SelectRS485Mode
	.globl	UART_SelectRS485Mode
	.p2align	2
	.type	UART_SelectRS485Mode,%function
	.code	16                      @ @UART_SelectRS485Mode
	.thumb_func
UART_SelectRS485Mode:
.Lfunc_begin14:
	.loc	4 449 0 is_stmt 1       @ ../../../Library/StdDriver/src/uart.c:449:0
	.fnstart
	.cfi_startproc
@ %bb.0:
	.save	{r4, r5, r7, lr}
	push	{r4, r5, r7, lr}
	.cfi_def_cfa_offset 16
	.cfi_offset lr, -4
	.cfi_offset r7, -8
	.cfi_offset r5, -12
	.cfi_offset r4, -16
	.pad	#24
	sub	sp, #24
	.cfi_def_cfa_offset 40
	mov	r3, r2
	mov	r4, r1
	mov	r5, r0
	str	r0, [sp, #20]
	str	r1, [sp, #16]
	str	r2, [sp, #12]
.Ltmp119:
	.loc	4 451 5 prologue_end    @ ../../../Library/StdDriver/src/uart.c:451:5
	ldr	r0, [sp, #20]
	.loc	4 451 19 is_stmt 0      @ ../../../Library/StdDriver/src/uart.c:451:19
	movs	r1, #3
	str	r1, [r0, #48]
	.loc	4 454 5 is_stmt 1       @ ../../../Library/StdDriver/src/uart.c:454:5
	ldr	r0, [sp, #20]
	.loc	4 454 18 is_stmt 0      @ ../../../Library/StdDriver/src/uart.c:454:18
	ldr	r1, [r0, #44]
	ldr	r2, __arm_cp.14_0
	ands	r1, r2
	str	r1, [r0, #44]
	.loc	4 455 22 is_stmt 1      @ ../../../Library/StdDriver/src/uart.c:455:22
	ldr	r0, [sp, #16]
	.loc	4 455 33 is_stmt 0      @ ../../../Library/StdDriver/src/uart.c:455:33
	ldr	r1, [sp, #12]
	.loc	4 455 41                @ ../../../Library/StdDriver/src/uart.c:455:41
	lsls	r1, r1, #24
	.loc	4 455 30                @ ../../../Library/StdDriver/src/uart.c:455:30
	orrs	r0, r1
	.loc	4 455 5                 @ ../../../Library/StdDriver/src/uart.c:455:5
	ldr	r1, [sp, #20]
	.loc	4 455 18                @ ../../../Library/StdDriver/src/uart.c:455:18
	ldr	r2, [r1, #44]
	orrs	r2, r0
	str	r2, [r1, #44]
	.loc	4 456 1 is_stmt 1       @ ../../../Library/StdDriver/src/uart.c:456:1
	str	r3, [sp, #8]            @ 4-byte Spill
	str	r4, [sp, #4]            @ 4-byte Spill
	str	r5, [sp]                @ 4-byte Spill
	add	sp, #24
	pop	{r4, r5, r7, pc}
.Ltmp120:
	.p2align	2
@ %bb.1:
	.loc	4 0 1 is_stmt 0         @ ../../../Library/StdDriver/src/uart.c:0:1
__arm_cp.14_0:
	.long	16775423                @ 0xfff8ff
.Lcpi_end31:
	.size	__arm_cp.14_0, .Lcpi_end31-__arm_cp.14_0
.Lfunc_end14:
	.size	UART_SelectRS485Mode, .Lfunc_end14-UART_SelectRS485Mode
	.cfi_endproc
	.cantunwind
	.fnend
                                        @ -- End function
	.section	.text.UART_Write,"ax",%progbits
	.hidden	UART_Write              @ -- Begin function UART_Write
	.globl	UART_Write
	.p2align	1
	.type	UART_Write,%function
	.code	16                      @ @UART_Write
	.thumb_func
UART_Write:
.Lfunc_begin15:
	.loc	4 471 0 is_stmt 1       @ ../../../Library/StdDriver/src/uart.c:471:0
	.fnstart
	.cfi_startproc
@ %bb.0:
	.save	{r4, r5, r7, lr}
	push	{r4, r5, r7, lr}
	.cfi_def_cfa_offset 16
	.cfi_offset lr, -4
	.cfi_offset r7, -8
	.cfi_offset r5, -12
	.cfi_offset r4, -16
	.pad	#36
	sub	sp, #36
	.cfi_def_cfa_offset 52
	mov	r3, r2
	mov	r4, r1
	mov	r5, r0
	str	r0, [sp, #28]
	str	r1, [sp, #24]
	str	r2, [sp, #20]
	movs	r0, #0
.Ltmp121:
	.loc	4 474 18 prologue_end   @ ../../../Library/StdDriver/src/uart.c:474:18
	str	r0, [sp, #16]
	.loc	4 474 9 is_stmt 0       @ ../../../Library/StdDriver/src/uart.c:474:9
	str	r3, [sp, #8]            @ 4-byte Spill
	str	r4, [sp, #4]            @ 4-byte Spill
	str	r5, [sp]                @ 4-byte Spill
	b	.LBB15_1
.LBB15_1:                               @ =>This Loop Header: Depth=1
                                        @     Child Loop BB15_3 Depth 2
.Ltmp122:
	.loc	4 474 23                @ ../../../Library/StdDriver/src/uart.c:474:23
	ldr	r0, [sp, #16]
	.loc	4 474 35                @ ../../../Library/StdDriver/src/uart.c:474:35
	ldr	r1, [sp, #20]
.Ltmp123:
	.loc	4 474 5                 @ ../../../Library/StdDriver/src/uart.c:474:5
	cmp	r0, r1
	beq	.LBB15_9
	b	.LBB15_2
.LBB15_2:                               @   in Loop: Header=BB15_1 Depth=1
.Ltmp124:
	.loc	4 476 20 is_stmt 1      @ ../../../Library/StdDriver/src/uart.c:476:20
	movs	r0, #0
	str	r0, [sp, #12]
	.loc	4 477 9                 @ ../../../Library/StdDriver/src/uart.c:477:9
	b	.LBB15_3
.LBB15_3:                               @   Parent Loop BB15_1 Depth=1
                                        @ =>  This Inner Loop Header: Depth=2
	.loc	4 477 16 is_stmt 0      @ ../../../Library/StdDriver/src/uart.c:477:16
	ldr	r0, [sp, #28]
	.loc	4 477 22                @ ../../../Library/StdDriver/src/uart.c:477:22
	ldr	r0, [r0, #24]
	.loc	4 477 30                @ ../../../Library/StdDriver/src/uart.c:477:30
	movs	r1, #1
	lsls	r1, r1, #28
	.loc	4 477 9                 @ ../../../Library/StdDriver/src/uart.c:477:9
	tst	r0, r1
	bne	.LBB15_7
	b	.LBB15_4
.LBB15_4:                               @   in Loop: Header=BB15_3 Depth=2
.Ltmp125:
	.loc	4 479 23 is_stmt 1      @ ../../../Library/StdDriver/src/uart.c:479:23
	ldr	r0, [sp, #12]
	adds	r0, r0, #1
	str	r0, [sp, #12]
.Ltmp126:
	.loc	4 480 16                @ ../../../Library/StdDriver/src/uart.c:480:16
	ldr	r0, [sp, #12]
.Ltmp127:
	.loc	4 480 16 is_stmt 0      @ ../../../Library/StdDriver/src/uart.c:480:16
	lsrs	r0, r0, #30
	cmp	r0, #0
	beq	.LBB15_6
	b	.LBB15_5
.LBB15_5:
.Ltmp128:
	.loc	4 481 17 is_stmt 1      @ ../../../Library/StdDriver/src/uart.c:481:17
	movs	r0, #0
	str	r0, [sp, #32]
	b	.LBB15_10
.Ltmp129:
.LBB15_6:                               @   in Loop: Header=BB15_3 Depth=2
	.loc	4 477 9                 @ ../../../Library/StdDriver/src/uart.c:477:9
	b	.LBB15_3
.LBB15_7:                               @   in Loop: Header=BB15_1 Depth=1
	.loc	4 483 21                @ ../../../Library/StdDriver/src/uart.c:483:21
	ldr	r0, [sp, #24]
	.loc	4 483 30 is_stmt 0      @ ../../../Library/StdDriver/src/uart.c:483:30
	ldr	r1, [sp, #16]
	.loc	4 483 21                @ ../../../Library/StdDriver/src/uart.c:483:21
	ldrb	r0, [r0, r1]
	.loc	4 483 9                 @ ../../../Library/StdDriver/src/uart.c:483:9
	ldr	r1, [sp, #28]
	.loc	4 483 19                @ ../../../Library/StdDriver/src/uart.c:483:19
	str	r0, [r1]
	.loc	4 484 5 is_stmt 1       @ ../../../Library/StdDriver/src/uart.c:484:5
	b	.LBB15_8
.Ltmp130:
.LBB15_8:                               @   in Loop: Header=BB15_1 Depth=1
	.loc	4 474 58                @ ../../../Library/StdDriver/src/uart.c:474:58
	ldr	r0, [sp, #16]
	adds	r0, r0, #1
	str	r0, [sp, #16]
	.loc	4 474 5 is_stmt 0       @ ../../../Library/StdDriver/src/uart.c:474:5
	b	.LBB15_1
.Ltmp131:
.LBB15_9:
	.loc	4 486 12 is_stmt 1      @ ../../../Library/StdDriver/src/uart.c:486:12
	ldr	r0, [sp, #16]
	.loc	4 486 5 is_stmt 0       @ ../../../Library/StdDriver/src/uart.c:486:5
	str	r0, [sp, #32]
	b	.LBB15_10
.LBB15_10:
	.loc	4 488 1 is_stmt 1       @ ../../../Library/StdDriver/src/uart.c:488:1
	ldr	r0, [sp, #32]
	add	sp, #36
	pop	{r4, r5, r7, pc}
.Ltmp132:
.Lfunc_end15:
	.size	UART_Write, .Lfunc_end15-UART_Write
	.cfi_endproc
	.cantunwind
	.fnend
                                        @ -- End function
	.type	.LUART_Open.au32ClkTbl,%object @ @UART_Open.au32ClkTbl
	.section	.rodata.cst16,"aM",%progbits,16
	.p2align	2
.LUART_Open.au32ClkTbl:
	.long	12000000                @ 0xb71b00
	.long	0                       @ 0x0
	.long	32768                   @ 0x8000
	.long	24000000                @ 0x16e3600
	.size	.LUART_Open.au32ClkTbl, 16

	.type	.LUART_SetLine_Config.au32ClkTbl,%object @ @UART_SetLine_Config.au32ClkTbl
	.p2align	2
.LUART_SetLine_Config.au32ClkTbl:
	.long	12000000                @ 0xb71b00
	.long	0                       @ 0x0
	.long	32768                   @ 0x8000
	.long	24000000                @ 0x16e3600
	.size	.LUART_SetLine_Config.au32ClkTbl, 16

	.type	.LUART_SelectIrDAMode.au32ClkTbl,%object @ @UART_SelectIrDAMode.au32ClkTbl
	.p2align	2
.LUART_SelectIrDAMode.au32ClkTbl:
	.long	12000000                @ 0xb71b00
	.long	0                       @ 0x0
	.long	32768                   @ 0x8000
	.long	24000000                @ 0x16e3600
	.size	.LUART_SelectIrDAMode.au32ClkTbl, 16

	.type	.LCLK_GetPLLClockFreq.au8NoTbl,%object @ @CLK_GetPLLClockFreq.au8NoTbl
	.section	.rodata.cst4,"aM",%progbits,4
.LCLK_GetPLLClockFreq.au8NoTbl:
	.ascii	"\001\002\002\004"
	.size	.LCLK_GetPLLClockFreq.au8NoTbl, 4

	.section	".note.GNU-stack","",%progbits
	.eabi_attribute	30, 6	@ Tag_ABI_optimization_goals
	.ARM_attribute	16, 1	@ Tag_AV_eba